 MQ2ChatWnd

 Timestamp is 556ff573 (Wed Jun 03 23:51:31 2015)

 Preferred load address is 04000000

 Start         Length     Name                   Class
 0001:00000000 00000074H .text$di                CODE
 0001:00000080 0002b3c1H .text$mn                CODE
 0001:0002b450 00000125H .text$x                 CODE
 0001:0002b580 0000006dH .text$yd                CODE
 0002:00000000 00000228H .idata$5                DATA
 0002:00000228 00000004H .CRT$XCA                DATA
 0002:0000022c 0000000cH .CRT$XCU                DATA
 0002:00000238 00000004H .CRT$XCZ                DATA
 0002:0000023c 00000004H .CRT$XIA                DATA
 0002:00000240 00000010H .CRT$XIC                DATA
 0002:00000250 00000004H .CRT$XIZ                DATA
 0002:00000254 00000004H .CRT$XPA                DATA
 0002:00000258 00000008H .CRT$XPX                DATA
 0002:00000260 00000004H .CRT$XPXA               DATA
 0002:00000264 00000004H .CRT$XPZ                DATA
 0002:00000268 00000004H .CRT$XTA                DATA
 0002:0000026c 00000004H .CRT$XTZ                DATA
 0002:00000270 00007530H .rdata                  DATA
 0002:000077a0 0000006cH .rdata$debug            DATA
 0002:0000780c 0000077cH .rdata$r                DATA
 0002:00007f90 00000038H .rdata$sxdata           DATA
 0002:00007fc8 00000004H .rtc$IAA                DATA
 0002:00007fcc 00000004H .rtc$IZZ                DATA
 0002:00007fd0 00000004H .rtc$TAA                DATA
 0002:00007fd4 00000004H .rtc$TZZ                DATA
 0002:00007fd8 00000b54H .xdata$x                DATA
 0002:00008b30 000000d8H .edata                  DATA
 0002:00008c08 00000028H .idata$2                DATA
 0002:00008c30 00000014H .idata$3                DATA
 0002:00008c44 00000228H .idata$4                DATA
 0002:00008e6c 00000ce4H .idata$6                DATA
 0003:00000000 00001420H .data                   DATA
 0003:00001420 0000031fH .data$r                 DATA
 0003:00001740 00002820H .bss                    DATA
 0004:00000000 00000058H .rsrc$01                DATA
 0004:00000060 00000180H .rsrc$02                DATA

  Address         Publics by Value              Rva+Base       Lib:Object

 0000:00000000       __except_list              00000000     <absolute>
 0000:00000000       ___guard_fids_table        00000000     <absolute>
 0000:00000000       ___guard_fids_count        00000000     <absolute>
 0000:00000000       ___guard_flags             00000000     <absolute>
 0000:0000000e       ___safe_se_handler_count   0000000e     <absolute>
 0000:00000000       ___ImageBase               04000000     <linker-defined>
 0001:00000080       _DllMain@12                04001080 f   MQ2ChatWnd.obj
 0001:000000f0       ?LoadChatSettings@@YAXXZ   040010f0 f   MQ2ChatWnd.obj
 0001:00000210       ?LoadChatFromINI@@YAXPAU_CSIDLWND@EQUIStructs@@@Z 04001210 f   MQ2ChatWnd.obj
 0001:00000450       ?SaveChatToINI@@YAXPAU_CSIDLWND@EQUIStructs@@@Z 04001450 f   MQ2ChatWnd.obj
 0001:00000820       ?CreateChatWindow@@YAXXZ   04001820 f   MQ2ChatWnd.obj
 0001:000008d0       ?DestroyChatWnd@@YAXXZ     040018d0 f   MQ2ChatWnd.obj
 0001:00000920       ?Style@@YAXPAU_SPAWNINFO@EQData@@PAD@Z 04001920 f   MQ2ChatWnd.obj
 0001:000009e0       ?MQChatFont@@YAXPAU_SPAWNINFO@EQData@@PAD@Z 040019e0 f   MQ2ChatWnd.obj
 0001:00000a30       ?MQChatMin@@YAXPAU_SPAWNINFO@EQData@@PAD@Z 04001a30 f   MQ2ChatWnd.obj
 0001:00000a50       ?MQChatClear@@YAXPAU_SPAWNINFO@EQData@@PAD@Z 04001a50 f   MQ2ChatWnd.obj
 0001:00000a80       ?DoMQ2ChatBind@@YAXPADH@Z  04001a80 f   MQ2ChatWnd.obj
 0001:00000b30       _OnReloadUI                04001b30 f   MQ2ChatWnd.obj
 0001:00000b50       _OnCleanUI                 04001b50 f   MQ2ChatWnd.obj
 0001:00000b70       _SetGameState              04001b70 f   MQ2ChatWnd.obj
 0001:00000c00       _OnWriteChatColor          04001c00 f   MQ2ChatWnd.obj
 0001:00000d50       _OnPulse                   04001d50 f   MQ2ChatWnd.obj
 0001:00000ee0       _InitializePlugin          04001ee0 f   MQ2ChatWnd.obj
 0001:00000f70       _ShutdownPlugin            04001f70 f   MQ2ChatWnd.obj
 0001:00001000       ??$?8DD@std@@YA_NABV?$allocator@D@0@0@Z 04002000 f i MQ2ChatWnd.obj
 0001:00001010       ??$?8V?$allocator@D@std@@V01@@std@@YA_NABU?$_Wrap_alloc@V?$allocator@D@std@@@0@0@Z 04002010 f i MQ2ChatWnd.obj
 0001:00001020       ??$?9V?$allocator@D@std@@V01@@std@@YA_NABU?$_Wrap_alloc@V?$allocator@D@std@@@0@0@Z 04002020 f i MQ2ChatWnd.obj
 0001:00001030       ??$_Advance@V?$_Vector_iterator@V?$_Vector_val@U?$_Simple_types@V?$basic_string@DU?$char_traits@D@std@@V?$allocator@D@2@@std@@@std@@@std@@@std@@H@std@@YAXAAV?$_Vector_iterator@V?$_Vector_val@U?$_Simple_types@V?$basic_string@DU?$char_traits@D@std@@V?$allocator@D@2@@std@@@std@@@std@@@0@HUrandom_access_iterator_tag@0@@Z 04002030 f i MQ2ChatWnd.obj
 0001:00001050       ??$_Allocate@D@std@@YAPADIPAD@Z 04002050 f i MQ2ChatWnd.obj
 0001:00001080       ??$_Allocate@V?$basic_string@DU?$char_traits@D@std@@V?$allocator@D@2@@std@@@std@@YAPAV?$basic_string@DU?$char_traits@D@std@@V?$allocator@D@2@@0@IPAV10@@Z 04002080 f i MQ2ChatWnd.obj
 0001:000010c0       ??$_Destroy_range@U?$_Wrap_alloc@V?$allocator@V?$basic_string@DU?$char_traits@D@std@@V?$allocator@D@2@@std@@@std@@@std@@@std@@YAXPAV?$basic_string@DU?$char_traits@D@std@@V?$allocator@D@2@@0@0AAU?$_Wrap_alloc@V?$allocator@V?$basic_string@DU?$char_traits@D@std@@V?$allocator@D@2@@std@@@std@@@0@@Z 040020c0 f i MQ2ChatWnd.obj
 0001:000010e0       ??$_Destroy_range@U?$_Wrap_alloc@V?$allocator@V?$basic_string@DU?$char_traits@D@std@@V?$allocator@D@2@@std@@@std@@@std@@@std@@YAXPAV?$basic_string@DU?$char_traits@D@std@@V?$allocator@D@2@@0@0AAU?$_Wrap_alloc@V?$allocator@V?$basic_string@DU?$char_traits@D@std@@V?$allocator@D@2@@std@@@std@@@0@U_Nonscalar_ptr_iterator_tag@0@@Z 040020e0 f i MQ2ChatWnd.obj
 0001:00001120       ??$_Dist_type@PAV?$basic_string@DU?$char_traits@D@std@@V?$allocator@D@2@@std@@@std@@YAPAHPAV?$basic_string@DU?$char_traits@D@std@@V?$allocator@D@2@@0@@Z 04002120 f i MQ2ChatWnd.obj
 0001:00001130       ??$_Distance2@V?$_Vector_iterator@V?$_Vector_val@U?$_Simple_types@V?$basic_string@DU?$char_traits@D@std@@V?$allocator@D@2@@std@@@std@@@std@@@std@@H@std@@YAXV?$_Vector_iterator@V?$_Vector_val@U?$_Simple_types@V?$basic_string@DU?$char_traits@D@std@@V?$allocator@D@2@@std@@@std@@@std@@@0@0AAHUrandom_access_iterator_tag@0@@Z 04002130 f i MQ2ChatWnd.obj
 0001:00001160       ??$_Iter_cat@V?$_Vector_iterator@V?$_Vector_val@U?$_Simple_types@V?$basic_string@DU?$char_traits@D@std@@V?$allocator@D@2@@std@@@std@@@std@@@std@@@std@@YA?AUrandom_access_iterator_tag@0@ABV?$_Vector_iterator@V?$_Vector_val@U?$_Simple_types@V?$basic_string@DU?$char_traits@D@std@@V?$allocator@D@2@@std@@@std@@@std@@@0@@Z 04002160 f i MQ2ChatWnd.obj
 0001:00001170       ??$_Move@AAD@std@@YA$$QADAAD@Z 04002170 f i MQ2ChatWnd.obj
 0001:00001180       ??$_Move@AAI@std@@YA$$QAIAAI@Z 04002180 f i MQ2ChatWnd.obj
 0001:00001190       ??$_Move@AAPAD@std@@YA$$QAPADAAPAD@Z 04002190 f i MQ2ChatWnd.obj
 0001:000011a0       ??$_Move@AAT_Bxty@?$_String_val@U?$_Simple_types@D@std@@@std@@@std@@YA$$QAT_Bxty@?$_String_val@U?$_Simple_types@D@std@@@0@AAT120@@Z 040021a0 f i MQ2ChatWnd.obj
 0001:000011b0       ??$_Ptr_cat@V?$basic_string@DU?$char_traits@D@std@@V?$allocator@D@2@@std@@V12@@std@@YA?AU_Nonscalar_ptr_iterator_tag@0@PAV?$basic_string@DU?$char_traits@D@std@@V?$allocator@D@2@@0@0@Z 040021b0 f i MQ2ChatWnd.obj
 0001:000011c0       ??$_Rechecked@PAV?$basic_string@DU?$char_traits@D@std@@V?$allocator@D@2@@std@@PAV12@@std@@YAAAPAV?$basic_string@DU?$char_traits@D@std@@V?$allocator@D@2@@0@AAPAV10@PAV10@@Z 040021c0 f i MQ2ChatWnd.obj
 0001:000011d0       ??$_Rotate@PAV?$basic_string@DU?$char_traits@D@std@@V?$allocator@D@2@@std@@@std@@YAXPAV?$basic_string@DU?$char_traits@D@std@@V?$allocator@D@2@@0@00Urandom_access_iterator_tag@0@@Z 040021d0 f i MQ2ChatWnd.obj
 0001:000011f0       ??$_Rotate@PAV?$basic_string@DU?$char_traits@D@std@@V?$allocator@D@2@@std@@HV12@@std@@YAXPAV?$basic_string@DU?$char_traits@D@std@@V?$allocator@D@2@@0@00PAH0@Z 040021f0 f i MQ2ChatWnd.obj
 0001:000013a0       ??$_Swap_adl@PAD@std@@YAXAAPAD0@Z 040023a0 f i MQ2ChatWnd.obj
 0001:000013c0       ??$_Umove@PAV?$basic_string@DU?$char_traits@D@std@@V?$allocator@D@2@@std@@@?$vector@V?$basic_string@DU?$char_traits@D@std@@V?$allocator@D@2@@std@@V?$allocator@V?$basic_string@DU?$char_traits@D@std@@V?$allocator@D@2@@std@@@2@@std@@IAEPAV?$basic_string@DU?$char_traits@D@std@@V?$allocator@D@2@@1@PAV21@00@Z 040023c0 f i MQ2ChatWnd.obj
 0001:000013f0       ??$_Unchecked@PAV?$basic_string@DU?$char_traits@D@std@@V?$allocator@D@2@@std@@@std@@YAPAV?$basic_string@DU?$char_traits@D@std@@V?$allocator@D@2@@0@PAV10@@Z 040023f0 f i MQ2ChatWnd.obj
 0001:00001400       ??$_Unchecked@V?$_Vector_val@U?$_Simple_types@V?$basic_string@DU?$char_traits@D@std@@V?$allocator@D@2@@std@@@std@@@std@@@std@@YAPAV?$basic_string@DU?$char_traits@D@std@@V?$allocator@D@2@@0@V?$_Vector_iterator@V?$_Vector_val@U?$_Simple_types@V?$basic_string@DU?$char_traits@D@std@@V?$allocator@D@2@@std@@@std@@@std@@@0@@Z 04002400 f i MQ2ChatWnd.obj
 0001:00001410       ??$_Uninit_move@PAV?$basic_string@DU?$char_traits@D@std@@V?$allocator@D@2@@std@@PAV12@U?$_Wrap_alloc@V?$allocator@V?$basic_string@DU?$char_traits@D@std@@V?$allocator@D@2@@std@@@std@@@2@@std@@YAPAV?$basic_string@DU?$char_traits@D@std@@V?$allocator@D@2@@0@PAV10@00AAU?$_Wrap_alloc@V?$allocator@V?$basic_string@DU?$char_traits@D@std@@V?$allocator@D@2@@std@@@std@@@0@@Z 04002410 f i MQ2ChatWnd.obj
 0001:00001440       ??$_Uninit_move@PAV?$basic_string@DU?$char_traits@D@std@@V?$allocator@D@2@@std@@PAV12@V?$allocator@V?$basic_string@DU?$char_traits@D@std@@V?$allocator@D@2@@std@@@2@V12@@std@@YAPAV?$basic_string@DU?$char_traits@D@std@@V?$allocator@D@2@@0@PAV10@00AAU?$_Wrap_alloc@V?$allocator@V?$basic_string@DU?$char_traits@D@std@@V?$allocator@D@2@@std@@@std@@@0@0U_Nonscalar_ptr_iterator_tag@0@@Z 04002440 f i MQ2ChatWnd.obj
 0001:000014d0       ??$_Uninitialized_move@PAV?$basic_string@DU?$char_traits@D@std@@V?$allocator@D@2@@std@@PAV12@U?$_Wrap_alloc@V?$allocator@V?$basic_string@DU?$char_traits@D@std@@V?$allocator@D@2@@std@@@std@@@2@@std@@YAPAV?$basic_string@DU?$char_traits@D@std@@V?$allocator@D@2@@0@PAV10@00AAU?$_Wrap_alloc@V?$allocator@V?$basic_string@DU?$char_traits@D@std@@V?$allocator@D@2@@std@@@std@@@0@@Z 040024d0 f i MQ2ChatWnd.obj
 0001:000014f0       ??$_Val_type@PAV?$basic_string@DU?$char_traits@D@std@@V?$allocator@D@2@@std@@@std@@YAPAV?$basic_string@DU?$char_traits@D@std@@V?$allocator@D@2@@0@PAV10@@Z 040024f0 f i MQ2ChatWnd.obj
 0001:00001500       ??$addressof@D@std@@YAPADAAD@Z 04002500 f i MQ2ChatWnd.obj
 0001:00001510       ??$advance@V?$_Vector_iterator@V?$_Vector_val@U?$_Simple_types@V?$basic_string@DU?$char_traits@D@std@@V?$allocator@D@2@@std@@@std@@@std@@@std@@H@std@@YAXAAV?$_Vector_iterator@V?$_Vector_val@U?$_Simple_types@V?$basic_string@DU?$char_traits@D@std@@V?$allocator@D@2@@std@@@std@@@std@@@0@H@Z 04002510 f i MQ2ChatWnd.obj
 0001:00001530       ??$construct@PADAAPAD@?$_Wrap_alloc@V?$allocator@D@std@@@std@@QAEXPAPADAAPAD@Z 04002530 f i MQ2ChatWnd.obj
 0001:00001550       ??$construct@PADAAPAD@?$allocator@D@std@@QAEXPAPADAAPAD@Z 04002550 f i MQ2ChatWnd.obj
 0001:00001570       ??$construct@PADAAPAD@?$allocator_traits@V?$allocator@D@std@@@std@@SAXAAV?$allocator@D@1@PAPADAAPAD@Z 04002570 f i MQ2ChatWnd.obj
 0001:00001590       ??$construct@V?$basic_string@DU?$char_traits@D@std@@V?$allocator@D@2@@std@@V12@@?$_Wrap_alloc@V?$allocator@V?$basic_string@DU?$char_traits@D@std@@V?$allocator@D@2@@std@@@std@@@std@@QAEXPAV?$basic_string@DU?$char_traits@D@std@@V?$allocator@D@2@@1@$$QAV21@@Z 04002590 f i MQ2ChatWnd.obj
 0001:000015b0       ??$construct@V?$basic_string@DU?$char_traits@D@std@@V?$allocator@D@2@@std@@V12@@?$allocator@V?$basic_string@DU?$char_traits@D@std@@V?$allocator@D@2@@std@@@std@@QAEXPAV?$basic_string@DU?$char_traits@D@std@@V?$allocator@D@2@@1@$$QAV21@@Z 040025b0 f i MQ2ChatWnd.obj
 0001:000015d0       ??$construct@V?$basic_string@DU?$char_traits@D@std@@V?$allocator@D@2@@std@@V12@@?$allocator_traits@V?$allocator@V?$basic_string@DU?$char_traits@D@std@@V?$allocator@D@2@@std@@@std@@@std@@SAXAAV?$allocator@V?$basic_string@DU?$char_traits@D@std@@V?$allocator@D@2@@std@@@1@PAV?$basic_string@DU?$char_traits@D@std@@V?$allocator@D@2@@1@$$QAV31@@Z 040025d0 f i MQ2ChatWnd.obj
 0001:000015f0       ??$destroy@PAD@?$_Wrap_alloc@V?$allocator@D@std@@@std@@QAEXPAPAD@Z 040025f0 f i MQ2ChatWnd.obj
 0001:00001600       ??$destroy@PAD@?$allocator@D@std@@QAEXPAPAD@Z 04002600 f i MQ2ChatWnd.obj
 0001:00001610       ??$destroy@PAD@?$allocator_traits@V?$allocator@D@std@@@std@@SAXAAV?$allocator@D@1@PAPAD@Z 04002610 f i MQ2ChatWnd.obj
 0001:00001620       ??$destroy@V?$basic_string@DU?$char_traits@D@std@@V?$allocator@D@2@@std@@@?$_Wrap_alloc@V?$allocator@V?$basic_string@DU?$char_traits@D@std@@V?$allocator@D@2@@std@@@std@@@std@@QAEXPAV?$basic_string@DU?$char_traits@D@std@@V?$allocator@D@2@@1@@Z 04002620 f i MQ2ChatWnd.obj
 0001:00001650       ??$destroy@V?$basic_string@DU?$char_traits@D@std@@V?$allocator@D@2@@std@@@?$allocator@V?$basic_string@DU?$char_traits@D@std@@V?$allocator@D@2@@std@@@std@@QAEXPAV?$basic_string@DU?$char_traits@D@std@@V?$allocator@D@2@@1@@Z 04002650 f i MQ2ChatWnd.obj
 0001:00001680       ??$destroy@V?$basic_string@DU?$char_traits@D@std@@V?$allocator@D@2@@std@@@?$allocator_traits@V?$allocator@V?$basic_string@DU?$char_traits@D@std@@V?$allocator@D@2@@std@@@std@@@std@@SAXAAV?$allocator@V?$basic_string@DU?$char_traits@D@std@@V?$allocator@D@2@@std@@@1@PAV?$basic_string@DU?$char_traits@D@std@@V?$allocator@D@2@@1@@Z 04002680 f i MQ2ChatWnd.obj
 0001:000016b0       ??$distance@V?$_Vector_iterator@V?$_Vector_val@U?$_Simple_types@V?$basic_string@DU?$char_traits@D@std@@V?$allocator@D@2@@std@@@std@@@std@@@std@@@std@@YAHV?$_Vector_iterator@V?$_Vector_val@U?$_Simple_types@V?$basic_string@DU?$char_traits@D@std@@V?$allocator@D@2@@std@@@std@@@std@@@0@0@Z 040026b0 f i MQ2ChatWnd.obj
 0001:000016d0       ??$emplace@V?$basic_string@DU?$char_traits@D@std@@V?$allocator@D@2@@std@@@?$vector@V?$basic_string@DU?$char_traits@D@std@@V?$allocator@D@2@@std@@V?$allocator@V?$basic_string@DU?$char_traits@D@std@@V?$allocator@D@2@@std@@@2@@std@@QAE?AV?$_Vector_iterator@V?$_Vector_val@U?$_Simple_types@V?$basic_string@DU?$char_traits@D@std@@V?$allocator@D@2@@std@@@std@@@std@@@1@V?$_Vector_const_iterator@V?$_Vector_val@U?$_Simple_types@V?$basic_string@DU?$char_traits@D@std@@V?$allocator@D@2@@std@@@std@@@std@@@1@$$QAV?$basic_string@DU?$char_traits@D@std@@V?$allocator@D@2@@1@@Z 040026d0 f i MQ2ChatWnd.obj
 0001:00001750       ??$emplace_back@V?$basic_string@DU?$char_traits@D@std@@V?$allocator@D@2@@std@@@?$vector@V?$basic_string@DU?$char_traits@D@std@@V?$allocator@D@2@@std@@V?$allocator@V?$basic_string@DU?$char_traits@D@std@@V?$allocator@D@2@@std@@@2@@std@@QAEX$$QAV?$basic_string@DU?$char_traits@D@std@@V?$allocator@D@2@@1@@Z 04002750 f i MQ2ChatWnd.obj
 0001:00001780       ??$forward@AAPAD@std@@YAAAPADAAPAD@Z 04002780 f i MQ2ChatWnd.obj
 0001:00001790       ??$forward@V?$basic_string@DU?$char_traits@D@std@@V?$allocator@D@2@@std@@@std@@YA$$QAV?$basic_string@DU?$char_traits@D@std@@V?$allocator@D@2@@0@AAV10@@Z 04002790 f i MQ2ChatWnd.obj
 0001:000017a0       ??$iter_swap@PADPAD@std@@YAXPAD0@Z 040027a0 f i MQ2ChatWnd.obj
 0001:000017c0       ??$iter_swap@PAV?$basic_string@DU?$char_traits@D@std@@V?$allocator@D@2@@std@@PAV12@@std@@YAXPAV?$basic_string@DU?$char_traits@D@std@@V?$allocator@D@2@@0@0@Z 040027c0 f i MQ2ChatWnd.obj
 0001:00001800       ??$move@AAV?$basic_string@DU?$char_traits@D@std@@V?$allocator@D@2@@std@@@std@@YA$$QAV?$basic_string@DU?$char_traits@D@std@@V?$allocator@D@2@@0@AAV10@@Z 04002800 f i MQ2ChatWnd.obj
 0001:00001810       ??$rotate@V?$_Vector_iterator@V?$_Vector_val@U?$_Simple_types@V?$basic_string@DU?$char_traits@D@std@@V?$allocator@D@2@@std@@@std@@@std@@@std@@@std@@YA?AV?$_Vector_iterator@V?$_Vector_val@U?$_Simple_types@V?$basic_string@DU?$char_traits@D@std@@V?$allocator@D@2@@std@@@std@@@std@@@0@V10@00@Z 04002810 f i MQ2ChatWnd.obj
 0001:00001860       ??$swap@D$0BA@@std@@YAXAAY0BA@D0@Z 04002860 f i MQ2ChatWnd.obj
 0001:000018a0       ??$swap@D@std@@YAXAAD0@Z   040028a0 f i MQ2ChatWnd.obj
 0001:000018c0       ??$swap@DU?$char_traits@D@std@@V?$allocator@D@2@@std@@YAXAAV?$basic_string@DU?$char_traits@D@std@@V?$allocator@D@2@@0@0@Z 040028c0 f i MQ2ChatWnd.obj
 0001:00001900       ??$swap@I@std@@YAXAAI0@Z   04002900 f i MQ2ChatWnd.obj
 0001:00001920       ??$swap@PAD@std@@YAXAAPAD0@Z 04002920 f i MQ2ChatWnd.obj
 0001:00001940       ??$swap@T_Bxty@?$_String_val@U?$_Simple_types@D@std@@@std@@@std@@YAXAAT_Bxty@?$_String_val@U?$_Simple_types@D@std@@@0@0@Z 04002940 f i MQ2ChatWnd.obj
 0001:00001960       ??0?$_String_alloc@$0A@U?$_String_base_types@DV?$allocator@D@std@@@std@@@std@@QAE@ABV?$allocator@D@1@@Z 04002960 f i MQ2ChatWnd.obj
 0001:00001980       ??0?$_String_val@U?$_Simple_types@D@std@@@std@@QAE@XZ 04002980 f i MQ2ChatWnd.obj
 0001:000019a0       ??0?$_Vector_alloc@$0A@U?$_Vec_base_types@V?$basic_string@DU?$char_traits@D@std@@V?$allocator@D@2@@std@@V?$allocator@V?$basic_string@DU?$char_traits@D@std@@V?$allocator@D@2@@std@@@2@@std@@@std@@QAE@ABV?$allocator@V?$basic_string@DU?$char_traits@D@std@@V?$allocator@D@2@@std@@@1@@Z 040029a0 f i MQ2ChatWnd.obj
 0001:000019c0       ??0?$_Vector_const_iterator@V?$_Vector_val@U?$_Simple_types@V?$basic_string@DU?$char_traits@D@std@@V?$allocator@D@2@@std@@@std@@@std@@@std@@QAE@PAV?$basic_string@DU?$char_traits@D@std@@V?$allocator@D@2@@1@PBU_Container_base0@1@@Z 040029c0 f i MQ2ChatWnd.obj
 0001:000019d0       ??0?$_Vector_iterator@V?$_Vector_val@U?$_Simple_types@V?$basic_string@DU?$char_traits@D@std@@V?$allocator@D@2@@std@@@std@@@std@@@std@@QAE@PAV?$basic_string@DU?$char_traits@D@std@@V?$allocator@D@2@@1@PBU_Container_base0@1@@Z 040029d0 f i MQ2ChatWnd.obj
 0001:000019e0       ??0?$_Vector_val@U?$_Simple_types@V?$basic_string@DU?$char_traits@D@std@@V?$allocator@D@2@@std@@@std@@@std@@QAE@XZ 040029e0 f i MQ2ChatWnd.obj
 0001:00001a00       ??0?$_Wrap_alloc@V?$allocator@D@std@@@std@@QAE@ABV?$allocator@D@1@@Z 04002a00 f i MQ2ChatWnd.obj
 0001:00001a10       ??0?$_Wrap_alloc@V?$allocator@D@std@@@std@@QAE@XZ 04002a10 f i MQ2ChatWnd.obj
 0001:00001a20       ??0?$_Wrap_alloc@V?$allocator@V?$basic_string@DU?$char_traits@D@std@@V?$allocator@D@2@@std@@@std@@@std@@QAE@XZ 04002a20 f i MQ2ChatWnd.obj
 0001:00001a30       ??0?$allocator@D@std@@QAE@ABV01@@Z 04002a30 f i MQ2ChatWnd.obj
 0001:00001a40       ??0?$allocator@D@std@@QAE@XZ 04002a40 f i MQ2ChatWnd.obj
 0001:00001a50       ??0?$allocator@V?$basic_string@DU?$char_traits@D@std@@V?$allocator@D@2@@std@@@std@@QAE@XZ 04002a50 f i MQ2ChatWnd.obj
 0001:00001a60       ??0?$basic_string@DU?$char_traits@D@std@@V?$allocator@D@2@@std@@QAE@$$QAV01@@Z 04002a60 f i MQ2ChatWnd.obj
 0001:00001ad0       ??0?$basic_string@DU?$char_traits@D@std@@V?$allocator@D@2@@std@@QAE@ABV01@@Z 04002ad0 f i MQ2ChatWnd.obj
 0001:00001b00       ??0?$basic_string@DU?$char_traits@D@std@@V?$allocator@D@2@@std@@QAE@PBD@Z 04002b00 f i MQ2ChatWnd.obj
 0001:00001b60       ??0?$vector@V?$basic_string@DU?$char_traits@D@std@@V?$allocator@D@2@@std@@V?$allocator@V?$basic_string@DU?$char_traits@D@std@@V?$allocator@D@2@@std@@@2@@std@@QAE@XZ 04002b60 f i MQ2ChatWnd.obj
 0001:00001b80       ??0CCustomWnd@MQ2Internal@@QAE@PAVCXStr@EQClasses@@@Z 04002b80 f i MQ2ChatWnd.obj
 0001:00001c20       ??0CMQChatWnd@@QAE@PAVCXStr@EQClasses@@@Z 04002c20 f i MQ2ChatWnd.obj
 0001:00001d90       ??0_Generic_error_category@std@@QAE@XZ 04002d90 f i MQ2ChatWnd.obj
 0001:00001da0       ??0_Ignore@std@@QAE@XZ     04002da0 f i MQ2ChatWnd.obj
 0001:00001db0       ??0_Iostream_error_category@std@@QAE@XZ 04002db0 f i MQ2ChatWnd.obj
 0001:00001dc0       ??0_System_error_category@std@@QAE@XZ 04002dc0 f i MQ2ChatWnd.obj
 0001:00001dd0       ??0error_category@std@@QAE@XZ 04002dd0 f i MQ2ChatWnd.obj
 0001:00001de0       ??0error_condition@std@@QAE@HABVerror_category@1@@Z 04002de0 f i MQ2ChatWnd.obj
 0001:00001e00       ??0id@locale@std@@QAE@I@Z  04002e00 f i MQ2ChatWnd.obj
 0001:00001e10       ??1?$basic_string@DU?$char_traits@D@std@@V?$allocator@D@2@@std@@QAE@XZ 04002e10 f i MQ2ChatWnd.obj
 0001:00001e40       ??1?$vector@V?$basic_string@DU?$char_traits@D@std@@V?$allocator@D@2@@std@@V?$allocator@V?$basic_string@DU?$char_traits@D@std@@V?$allocator@D@2@@std@@@2@@std@@QAE@XZ 04002e40 f i MQ2ChatWnd.obj
 0001:00001e80       ??1CCustomWnd@MQ2Internal@@QAE@XZ 04002e80 f i MQ2ChatWnd.obj
 0001:00001ea0       ??1CMQChatWnd@@QAE@XZ      04002ea0 f i MQ2ChatWnd.obj
 0001:00001f00       ??1_Generic_error_category@std@@UAE@XZ 04002f00 f i MQ2ChatWnd.obj
 0001:00001f10       ??1_Iostream_error_category@std@@UAE@XZ 04002f10 f i MQ2ChatWnd.obj
 0001:00001f20       ??1_System_error_category@std@@UAE@XZ 04002f20 f i MQ2ChatWnd.obj
 0001:00001f30       ??1error_category@std@@UAE@XZ 04002f30 f i MQ2ChatWnd.obj
 0001:00001f40       ??2@YAPAXIPAX@Z            04002f40 f i MQ2ChatWnd.obj
 0001:00001f50       ??3@YAXPAX0@Z              04002f50 f i MQ2ChatWnd.obj
 0001:00001f60       ??4?$basic_string@DU?$char_traits@D@std@@V?$allocator@D@2@@std@@QAEAAV01@ABV01@@Z 04002f60 f i MQ2ChatWnd.obj
 0001:00001f80       ??8?$_Vector_const_iterator@V?$_Vector_val@U?$_Simple_types@V?$basic_string@DU?$char_traits@D@std@@V?$allocator@D@2@@std@@@std@@@std@@@std@@QBE_NABV01@@Z 04002f80 f i MQ2ChatWnd.obj
 0001:00001fa0       ??8error_category@std@@QBE_NABV01@@Z 04002fa0 f i MQ2ChatWnd.obj
 0001:00001fb0       ??8error_condition@std@@QBE_NABV01@@Z 04002fb0 f i MQ2ChatWnd.obj
 0001:00001fd0       ??9?$_Vector_const_iterator@V?$_Vector_val@U?$_Simple_types@V?$basic_string@DU?$char_traits@D@std@@V?$allocator@D@2@@std@@@std@@@std@@@std@@QBE_NABV01@@Z 04002fd0 f i MQ2ChatWnd.obj
 0001:00001ff0       ??D?$_Vector_const_iterator@V?$_Vector_val@U?$_Simple_types@V?$basic_string@DU?$char_traits@D@std@@V?$allocator@D@2@@std@@@std@@@std@@@std@@QBEABV?$basic_string@DU?$char_traits@D@std@@V?$allocator@D@2@@1@XZ 04002ff0 f i MQ2ChatWnd.obj
 0001:00002000       ??D?$_Vector_iterator@V?$_Vector_val@U?$_Simple_types@V?$basic_string@DU?$char_traits@D@std@@V?$allocator@D@2@@std@@@std@@@std@@@std@@QBEAAV?$basic_string@DU?$char_traits@D@std@@V?$allocator@D@2@@1@XZ 04003000 f i MQ2ChatWnd.obj
 0001:00002010       ??G?$_Vector_const_iterator@V?$_Vector_val@U?$_Simple_types@V?$basic_string@DU?$char_traits@D@std@@V?$allocator@D@2@@std@@@std@@@std@@@std@@QBEHABV01@@Z 04003010 f i MQ2ChatWnd.obj
 0001:00002030       ??G?$_Vector_iterator@V?$_Vector_val@U?$_Simple_types@V?$basic_string@DU?$char_traits@D@std@@V?$allocator@D@2@@std@@@std@@@std@@@std@@QBE?AV01@H@Z 04003030 f i MQ2ChatWnd.obj
 0001:00002050       ??G?$_Vector_iterator@V?$_Vector_val@U?$_Simple_types@V?$basic_string@DU?$char_traits@D@std@@V?$allocator@D@2@@std@@@std@@@std@@@std@@QBEHABV?$_Vector_const_iterator@V?$_Vector_val@U?$_Simple_types@V?$basic_string@DU?$char_traits@D@std@@V?$allocator@D@2@@std@@@std@@@std@@@1@@Z 04003050 f i MQ2ChatWnd.obj
 0001:00002070       ??H?$_Vector_iterator@V?$_Vector_val@U?$_Simple_types@V?$basic_string@DU?$char_traits@D@std@@V?$allocator@D@2@@std@@@std@@@std@@@std@@QBE?AV01@H@Z 04003070 f i MQ2ChatWnd.obj
 0001:00002090       ??Y?$_Vector_const_iterator@V?$_Vector_val@U?$_Simple_types@V?$basic_string@DU?$char_traits@D@std@@V?$allocator@D@2@@std@@@std@@@std@@@std@@QAEAAV01@H@Z 04003090 f i MQ2ChatWnd.obj
 0001:000020b0       ??Y?$_Vector_iterator@V?$_Vector_val@U?$_Simple_types@V?$basic_string@DU?$char_traits@D@std@@V?$allocator@D@2@@std@@@std@@@std@@@std@@QAEAAV01@H@Z 040030b0 f i MQ2ChatWnd.obj
 0001:000020d0       ??Z?$_Vector_iterator@V?$_Vector_val@U?$_Simple_types@V?$basic_string@DU?$char_traits@D@std@@V?$allocator@D@2@@std@@@std@@@std@@@std@@QAEAAV01@H@Z 040030d0 f i MQ2ChatWnd.obj
 0001:000020e0       ??_G?$basic_string@DU?$char_traits@D@std@@V?$allocator@D@2@@std@@QAEPAXI@Z 040030e0 f i MQ2ChatWnd.obj
 0001:00002120       ??_GCMQChatWnd@@QAEPAXI@Z  04003120 f i MQ2ChatWnd.obj
 0001:00002150       ??_G_Generic_error_category@std@@UAEPAXI@Z 04003150 f i MQ2ChatWnd.obj
 0001:00002150       ??_E_Generic_error_category@std@@UAEPAXI@Z 04003150 f i MQ2ChatWnd.obj
 0001:00002180       ??_E_Iostream_error_category@std@@UAEPAXI@Z 04003180 f i MQ2ChatWnd.obj
 0001:00002180       ??_G_Iostream_error_category@std@@UAEPAXI@Z 04003180 f i MQ2ChatWnd.obj
 0001:000021b0       ??_G_System_error_category@std@@UAEPAXI@Z 040031b0 f i MQ2ChatWnd.obj
 0001:000021b0       ??_E_System_error_category@std@@UAEPAXI@Z 040031b0 f i MQ2ChatWnd.obj
 0001:000021e0       ??_Gerror_category@std@@UAEPAXI@Z 040031e0 f i MQ2ChatWnd.obj
 0001:000021e0       ??_Eerror_category@std@@UAEPAXI@Z 040031e0 f i MQ2ChatWnd.obj
 0001:00002210       ?RemovevfTable@CCustomWnd@MQ2Internal@@QAEXXZ 04003210 f i MQ2ChatWnd.obj
 0001:00002230       ?ReplacevfTable@CCustomWnd@MQ2Internal@@QAEXXZ 04003230 f i MQ2ChatWnd.obj
 0001:00002260       ?SetChatFont@CMQChatWnd@@QAEXH@Z 04003260 f i MQ2ChatWnd.obj
 0001:00002360       ?SetvfTable@CCustomWnd@MQ2Internal@@QAEXKK@Z 04003360 f i MQ2ChatWnd.obj
 0001:00002380       ?WndNotification@CMQChatWnd@@QAEHPAVCXWnd@EQClasses@@IPAX@Z 04003380 f i MQ2ChatWnd.obj
 0001:000027d0       ?_Adopt@_Iterator_base0@std@@QAEXPBX@Z 040037d0 f i MQ2ChatWnd.obj
 0001:000027e0       ?_Assign_rv@?$basic_string@DU?$char_traits@D@std@@V?$allocator@D@2@@std@@QAEX$$QAV12@@Z 040037e0 f i MQ2ChatWnd.obj
 0001:00002840       ?_Change_alloc@?$_String_alloc@$0A@U?$_String_base_types@DV?$allocator@D@std@@@std@@@std@@QAEXABU?$_Wrap_alloc@V?$allocator@D@std@@@2@@Z 04003840 f i MQ2ChatWnd.obj
 0001:00002850       ?_Compat@?$_Vector_const_iterator@V?$_Vector_val@U?$_Simple_types@V?$basic_string@DU?$char_traits@D@std@@V?$allocator@D@2@@std@@@std@@@std@@@std@@QBEXABV12@@Z 04003850 f i MQ2ChatWnd.obj
 0001:00002860       ?_Copy@?$basic_string@DU?$char_traits@D@std@@V?$allocator@D@2@@std@@QAEXII@Z 04003860 f i MQ2ChatWnd.obj
 0001:000029b0       ?_Destroy@?$vector@V?$basic_string@DU?$char_traits@D@std@@V?$allocator@D@2@@std@@V?$allocator@V?$basic_string@DU?$char_traits@D@std@@V?$allocator@D@2@@std@@@2@@std@@IAEXPAV?$basic_string@DU?$char_traits@D@std@@V?$allocator@D@2@@2@0@Z 040039b0 f i MQ2ChatWnd.obj
 0001:000029f0       ?_Eos@?$basic_string@DU?$char_traits@D@std@@V?$allocator@D@2@@std@@QAEXI@Z 040039f0 f i MQ2ChatWnd.obj
 0001:00002a20       ?_Getal@?$_String_alloc@$0A@U?$_String_base_types@DV?$allocator@D@std@@@std@@@std@@QBE?AU?$_Wrap_alloc@V?$allocator@D@std@@@2@XZ 04003a20 f i MQ2ChatWnd.obj
 0001:00002a30       ?_Getal@?$_Vector_alloc@$0A@U?$_Vec_base_types@V?$basic_string@DU?$char_traits@D@std@@V?$allocator@D@2@@std@@V?$allocator@V?$basic_string@DU?$char_traits@D@std@@V?$allocator@D@2@@std@@@2@@std@@@std@@QBE?AU?$_Wrap_alloc@V?$allocator@V?$basic_string@DU?$char_traits@D@std@@V?$allocator@D@2@@std@@@std@@@2@XZ 04003a30 f i MQ2ChatWnd.obj
 0001:00002a40       ?_Grow@?$basic_string@DU?$char_traits@D@std@@V?$allocator@D@2@@std@@QAE_NI_N@Z 04003a40 f i MQ2ChatWnd.obj
 0001:00002b00       ?_Grow_to@?$vector@V?$basic_string@DU?$char_traits@D@std@@V?$allocator@D@2@@std@@V?$allocator@V?$basic_string@DU?$char_traits@D@std@@V?$allocator@D@2@@std@@@2@@std@@IBEII@Z 04003b00 f i MQ2ChatWnd.obj
 0001:00002b50       ?_Inside@?$basic_string@DU?$char_traits@D@std@@V?$allocator@D@2@@std@@QAE_NPBD@Z 04003b50 f i MQ2ChatWnd.obj
 0001:00002b90       ?_Myptr@?$_String_val@U?$_Simple_types@D@std@@@std@@QAEPADXZ 04003b90 f i MQ2ChatWnd.obj
 0001:00002ba0       ?_Myptr@?$_String_val@U?$_Simple_types@D@std@@@std@@QBEPBDXZ 04003ba0 f i MQ2ChatWnd.obj
 0001:00002bb0       ?_Orphan_all@_Container_base0@std@@QAEXXZ 04003bb0 f i MQ2ChatWnd.obj
 0001:00002bc0       ?_Orphan_range@?$vector@V?$basic_string@DU?$char_traits@D@std@@V?$allocator@D@2@@std@@V?$allocator@V?$basic_string@DU?$char_traits@D@std@@V?$allocator@D@2@@std@@@2@@std@@IBEXPAV?$basic_string@DU?$char_traits@D@std@@V?$allocator@D@2@@2@0@Z 04003bc0 f i MQ2ChatWnd.obj
 0001:00002bd0       ?_Reallocate@?$vector@V?$basic_string@DU?$char_traits@D@std@@V?$allocator@D@2@@std@@V?$allocator@V?$basic_string@DU?$char_traits@D@std@@V?$allocator@D@2@@std@@@2@@std@@IAEXI@Z 04003bd0 f i MQ2ChatWnd.obj
 0001:00002cc0       ?_Reserve@?$vector@V?$basic_string@DU?$char_traits@D@std@@V?$allocator@D@2@@std@@V?$allocator@V?$basic_string@DU?$char_traits@D@std@@V?$allocator@D@2@@std@@@2@@std@@IAEXI@Z 04003cc0 f i MQ2ChatWnd.obj
 0001:00002d70       ?_Swap_all@_Container_base0@std@@QAEXAAU12@@Z 04003d70 f i MQ2ChatWnd.obj
 0001:00002d80       ?_Swap_alloc@?$_String_alloc@$0A@U?$_String_base_types@DV?$allocator@D@std@@@std@@@std@@QAEXAAV12@@Z 04003d80 f i MQ2ChatWnd.obj
 0001:00002d90       ?_Swap_bx@?$basic_string@DU?$char_traits@D@std@@V?$allocator@D@2@@std@@QAEXAAV12@@Z 04003d90 f i MQ2ChatWnd.obj
 0001:00002e10       ?_Tidy@?$basic_string@DU?$char_traits@D@std@@V?$allocator@D@2@@std@@QAEX_NI@Z 04003e10 f i MQ2ChatWnd.obj
 0001:00002e60       ?_Tidy@?$vector@V?$basic_string@DU?$char_traits@D@std@@V?$allocator@D@2@@std@@V?$allocator@V?$basic_string@DU?$char_traits@D@std@@V?$allocator@D@2@@std@@@2@@std@@IAEXXZ 04003e60 f i MQ2ChatWnd.obj
 0001:00002ea0       ?_Unchecked@?$_Vector_iterator@V?$_Vector_val@U?$_Simple_types@V?$basic_string@DU?$char_traits@D@std@@V?$allocator@D@2@@std@@@std@@@std@@@std@@QBEPAV?$basic_string@DU?$char_traits@D@std@@V?$allocator@D@2@@2@XZ 04003ea0 f i MQ2ChatWnd.obj
 0001:00002eb0       ?_Unused_capacity@?$vector@V?$basic_string@DU?$char_traits@D@std@@V?$allocator@D@2@@std@@V?$allocator@V?$basic_string@DU?$char_traits@D@std@@V?$allocator@D@2@@std@@@2@@std@@QBEIXZ 04003eb0 f i MQ2ChatWnd.obj
 0001:00002ed0       ?_Xlen@?$basic_string@DU?$char_traits@D@std@@V?$allocator@D@2@@std@@QBEXXZ 04003ed0 f i MQ2ChatWnd.obj
 0001:00002ee0       ?_Xlen@?$vector@V?$basic_string@DU?$char_traits@D@std@@V?$allocator@D@2@@std@@V?$allocator@V?$basic_string@DU?$char_traits@D@std@@V?$allocator@D@2@@std@@@2@@std@@IBEXXZ 04003ee0 f i MQ2ChatWnd.obj
 0001:00002ef0       ?_Xran@?$basic_string@DU?$char_traits@D@std@@V?$allocator@D@2@@std@@QBEXXZ 04003ef0 f i MQ2ChatWnd.obj
 0001:00002f00       ?_Xran@?$vector@V?$basic_string@DU?$char_traits@D@std@@V?$allocator@D@2@@std@@V?$allocator@V?$basic_string@DU?$char_traits@D@std@@V?$allocator@D@2@@std@@@2@@std@@IBEXXZ 04003f00 f i MQ2ChatWnd.obj
 0001:00002f10       ?allocate@?$_Wrap_alloc@V?$allocator@D@std@@@std@@QAEPADI@Z 04003f10 f i MQ2ChatWnd.obj
 0001:00002f40       ?allocate@?$_Wrap_alloc@V?$allocator@V?$basic_string@DU?$char_traits@D@std@@V?$allocator@D@2@@std@@@std@@@std@@QAEPAV?$basic_string@DU?$char_traits@D@std@@V?$allocator@D@2@@2@I@Z 04003f40 f i MQ2ChatWnd.obj
 0001:00002f80       ?allocate@?$allocator@D@std@@QAEPADI@Z 04003f80 f i MQ2ChatWnd.obj
 0001:00002fb0       ?allocate@?$allocator@V?$basic_string@DU?$char_traits@D@std@@V?$allocator@D@2@@std@@@std@@QAEPAV?$basic_string@DU?$char_traits@D@std@@V?$allocator@D@2@@2@I@Z 04003fb0 f i MQ2ChatWnd.obj
 0001:00002ff0       ?assign@?$basic_string@DU?$char_traits@D@std@@V?$allocator@D@2@@std@@QAEAAV12@ABV12@@Z 04003ff0 f i MQ2ChatWnd.obj
 0001:00003010       ?assign@?$basic_string@DU?$char_traits@D@std@@V?$allocator@D@2@@std@@QAEAAV12@ABV12@II@Z 04004010 f i MQ2ChatWnd.obj
 0001:00003140       ?assign@?$basic_string@DU?$char_traits@D@std@@V?$allocator@D@2@@std@@QAEAAV12@PBD@Z 04004140 f i MQ2ChatWnd.obj
 0001:00003180       ?assign@?$basic_string@DU?$char_traits@D@std@@V?$allocator@D@2@@std@@QAEAAV12@PBDI@Z 04004180 f i MQ2ChatWnd.obj
 0001:00003280       ?assign@?$char_traits@D@std@@SAXAADABD@Z 04004280 f i MQ2ChatWnd.obj
 0001:00003290       ?at@?$vector@V?$basic_string@DU?$char_traits@D@std@@V?$allocator@D@2@@std@@V?$allocator@V?$basic_string@DU?$char_traits@D@std@@V?$allocator@D@2@@std@@@2@@std@@QAEAAV?$basic_string@DU?$char_traits@D@std@@V?$allocator@D@2@@2@I@Z 04004290 f i MQ2ChatWnd.obj
 0001:000032d0       ?begin@?$vector@V?$basic_string@DU?$char_traits@D@std@@V?$allocator@D@2@@std@@V?$allocator@V?$basic_string@DU?$char_traits@D@std@@V?$allocator@D@2@@std@@@2@@std@@QAE?AV?$_Vector_iterator@V?$_Vector_val@U?$_Simple_types@V?$basic_string@DU?$char_traits@D@std@@V?$allocator@D@2@@std@@@std@@@std@@@2@XZ 040042d0 f i MQ2ChatWnd.obj
 0001:000032e0       ?c_str@?$basic_string@DU?$char_traits@D@std@@V?$allocator@D@2@@std@@QBEPBDXZ 040042e0 f i MQ2ChatWnd.obj
 0001:000032f0       ?capacity@?$vector@V?$basic_string@DU?$char_traits@D@std@@V?$allocator@D@2@@std@@V?$allocator@V?$basic_string@DU?$char_traits@D@std@@V?$allocator@D@2@@std@@@2@@std@@QBEIXZ 040042f0 f i MQ2ChatWnd.obj
 0001:00003310       ?category@error_code@std@@QBEABVerror_category@2@XZ 04004310 f i MQ2ChatWnd.obj
 0001:00003320       ?category@error_condition@std@@QBEABVerror_category@2@XZ 04004320 f i MQ2ChatWnd.obj
 0001:00003330       ?compare@?$basic_string@DU?$char_traits@D@std@@V?$allocator@D@2@@std@@QBEHIIPBDI@Z 04004330 f i MQ2ChatWnd.obj
 0001:000033a0       ?compare@?$basic_string@DU?$char_traits@D@std@@V?$allocator@D@2@@std@@QBEHPBD@Z 040043a0 f i MQ2ChatWnd.obj
 0001:000033e0       ?compare@?$char_traits@D@std@@SAHPBD0I@Z 040043e0 f i MQ2ChatWnd.obj
 0001:00003450       ?copy@?$char_traits@D@std@@SAPADPADPBDI@Z 04004450 f i MQ2ChatWnd.obj
 0001:00003470       ?deallocate@?$_Wrap_alloc@V?$allocator@D@std@@@std@@QAEXPADI@Z 04004470 f i MQ2ChatWnd.obj
 0001:00003490       ?deallocate@?$_Wrap_alloc@V?$allocator@V?$basic_string@DU?$char_traits@D@std@@V?$allocator@D@2@@std@@@std@@@std@@QAEXPAV?$basic_string@DU?$char_traits@D@std@@V?$allocator@D@2@@2@I@Z 04004490 f i MQ2ChatWnd.obj
 0001:000034b0       ?deallocate@?$allocator@D@std@@QAEXPADI@Z 040044b0 f i MQ2ChatWnd.obj
 0001:000034d0       ?deallocate@?$allocator@V?$basic_string@DU?$char_traits@D@std@@V?$allocator@D@2@@std@@@std@@QAEXPAV?$basic_string@DU?$char_traits@D@std@@V?$allocator@D@2@@2@I@Z 040044d0 f i MQ2ChatWnd.obj
 0001:000034f0       ?default_error_condition@_System_error_category@std@@UBE?AVerror_condition@2@H@Z 040044f0 f i MQ2ChatWnd.obj
 0001:00003530       ?default_error_condition@error_category@std@@UBE?AVerror_condition@2@H@Z 04004530 f i MQ2ChatWnd.obj
 0001:00003550       ?end@?$vector@V?$basic_string@DU?$char_traits@D@std@@V?$allocator@D@2@@std@@V?$allocator@V?$basic_string@DU?$char_traits@D@std@@V?$allocator@D@2@@std@@@2@@std@@QAE?AV?$_Vector_iterator@V?$_Vector_val@U?$_Simple_types@V?$basic_string@DU?$char_traits@D@std@@V?$allocator@D@2@@std@@@std@@@std@@@2@XZ 04004550 f i MQ2ChatWnd.obj
 0001:00003560       ?equivalent@error_category@std@@UBE_NABVerror_code@2@H@Z 04004560 f i MQ2ChatWnd.obj
 0001:00003580       ?equivalent@error_category@std@@UBE_NHABVerror_condition@2@@Z 04004580 f i MQ2ChatWnd.obj
 0001:000035c0       ?erase@?$basic_string@DU?$char_traits@D@std@@V?$allocator@D@2@@std@@QAEAAV12@I@Z 040045c0 f i MQ2ChatWnd.obj
 0001:00003600       ?erase@?$basic_string@DU?$char_traits@D@std@@V?$allocator@D@2@@std@@QAEAAV12@II@Z 04004600 f i MQ2ChatWnd.obj
 0001:000036a0       ?front@?$vector@V?$basic_string@DU?$char_traits@D@std@@V?$allocator@D@2@@std@@V?$allocator@V?$basic_string@DU?$char_traits@D@std@@V?$allocator@D@2@@std@@@2@@std@@QAEAAV?$basic_string@DU?$char_traits@D@std@@V?$allocator@D@2@@2@XZ 040046a0 f i MQ2ChatWnd.obj
 0001:000036b0       ?generic_category@std@@YAABVerror_category@1@XZ 040046b0 f i MQ2ChatWnd.obj
 0001:000036c0       ?insert@?$vector@V?$basic_string@DU?$char_traits@D@std@@V?$allocator@D@2@@std@@V?$allocator@V?$basic_string@DU?$char_traits@D@std@@V?$allocator@D@2@@std@@@2@@std@@QAE?AV?$_Vector_iterator@V?$_Vector_val@U?$_Simple_types@V?$basic_string@DU?$char_traits@D@std@@V?$allocator@D@2@@std@@@std@@@std@@@2@V?$_Vector_const_iterator@V?$_Vector_val@U?$_Simple_types@V?$basic_string@DU?$char_traits@D@std@@V?$allocator@D@2@@std@@@std@@@std@@@2@$$QAV?$basic_string@DU?$char_traits@D@std@@V?$allocator@D@2@@2@@Z 040046c0 f i MQ2ChatWnd.obj
 0001:000036e0       ?length@?$char_traits@D@std@@SAIPBD@Z 040046e0 f i MQ2ChatWnd.obj
 0001:00003700       ?max_size@?$_Wrap_alloc@V?$allocator@D@std@@@std@@QBEIXZ 04004700 f i MQ2ChatWnd.obj
 0001:00003710       ?max_size@?$_Wrap_alloc@V?$allocator@V?$basic_string@DU?$char_traits@D@std@@V?$allocator@D@2@@std@@@std@@@std@@QBEIXZ 04004710 f i MQ2ChatWnd.obj
 0001:00003720       ?max_size@?$allocator@D@std@@QBEIXZ 04004720 f i MQ2ChatWnd.obj
 0001:00003730       ?max_size@?$allocator@V?$basic_string@DU?$char_traits@D@std@@V?$allocator@D@2@@std@@@std@@QBEIXZ 04004730 f i MQ2ChatWnd.obj
 0001:00003740       ?max_size@?$allocator_traits@V?$allocator@D@std@@@std@@SAIABV?$allocator@D@2@@Z 04004740 f i MQ2ChatWnd.obj
 0001:00003750       ?max_size@?$allocator_traits@V?$allocator@V?$basic_string@DU?$char_traits@D@std@@V?$allocator@D@2@@std@@@std@@@std@@SAIABV?$allocator@V?$basic_string@DU?$char_traits@D@std@@V?$allocator@D@2@@std@@@2@@Z 04004750 f i MQ2ChatWnd.obj
 0001:00003760       ?max_size@?$basic_string@DU?$char_traits@D@std@@V?$allocator@D@2@@std@@QBEIXZ 04004760 f i MQ2ChatWnd.obj
 0001:00003770       ?max_size@?$vector@V?$basic_string@DU?$char_traits@D@std@@V?$allocator@D@2@@std@@V?$allocator@V?$basic_string@DU?$char_traits@D@std@@V?$allocator@D@2@@std@@@2@@std@@QBEIXZ 04004770 f i MQ2ChatWnd.obj
 0001:00003780       ?message@_Generic_error_category@std@@UBE?AV?$basic_string@DU?$char_traits@D@std@@V?$allocator@D@2@@2@H@Z 04004780 f i MQ2ChatWnd.obj
 0001:000037f0       ?message@_Iostream_error_category@std@@UBE?AV?$basic_string@DU?$char_traits@D@std@@V?$allocator@D@2@@2@H@Z 040047f0 f i MQ2ChatWnd.obj
 0001:00003840       ?message@_System_error_category@std@@UBE?AV?$basic_string@DU?$char_traits@D@std@@V?$allocator@D@2@@2@H@Z 04004840 f i MQ2ChatWnd.obj
 0001:000038b0       ?move@?$char_traits@D@std@@SAPADPADPBDI@Z 040048b0 f i MQ2ChatWnd.obj
 0001:000038d0       ?name@_Generic_error_category@std@@UBEPBDXZ 040048d0 f i MQ2ChatWnd.obj
 0001:000038e0       ?name@_Iostream_error_category@std@@UBEPBDXZ 040048e0 f i MQ2ChatWnd.obj
 0001:000038f0       ?name@_System_error_category@std@@UBEPBDXZ 040048f0 f i MQ2ChatWnd.obj
 0001:00003900       ?pXWnd@CSidlScreenWnd@EQClasses@@QAEPAVCXWnd@2@XZ 04004900 f i MQ2ChatWnd.obj
 0001:00003910       ?pop_back@?$vector@V?$basic_string@DU?$char_traits@D@std@@V?$allocator@D@2@@std@@V?$allocator@V?$basic_string@DU?$char_traits@D@std@@V?$allocator@D@2@@std@@@2@@std@@QAEXXZ 04004910 f i MQ2ChatWnd.obj
 0001:00003950       ?select_on_container_copy_construction@?$_Wrap_alloc@V?$allocator@D@std@@@std@@QBE?AU12@XZ 04004950 f i MQ2ChatWnd.obj
 0001:00003960       ?select_on_container_copy_construction@?$allocator@D@std@@QBE?AV12@XZ 04004960 f i MQ2ChatWnd.obj
 0001:00003970       ?select_on_container_copy_construction@?$allocator_traits@V?$allocator@D@std@@@std@@SA?AV?$allocator@D@2@ABV32@@Z 04004970 f i MQ2ChatWnd.obj
 0001:00003980       ?size@?$basic_string@DU?$char_traits@D@std@@V?$allocator@D@2@@std@@QBEIXZ 04004980 f i MQ2ChatWnd.obj
 0001:00003990       ?size@?$vector@V?$basic_string@DU?$char_traits@D@std@@V?$allocator@D@2@@std@@V?$allocator@V?$basic_string@DU?$char_traits@D@std@@V?$allocator@D@2@@std@@@2@@std@@QBEIXZ 04004990 f i MQ2ChatWnd.obj
 0001:000039b0       ?swap@?$basic_string@DU?$char_traits@D@std@@V?$allocator@D@2@@std@@QAEXAAV12@@Z 040049b0 f i MQ2ChatWnd.obj
 0001:000039f0       ?system_category@std@@YAABVerror_category@1@XZ 040049f0 f i MQ2ChatWnd.obj
 0001:00003a00       ?value@error_code@std@@QBEHXZ 04004a00 f i MQ2ChatWnd.obj
 0001:00003a10       ?value@error_condition@std@@QBEHXZ 04004a10 f i MQ2ChatWnd.obj
 0001:00003a20       _hypot                     04004a20 f i MQ2ChatWnd.obj
 0001:00003a46       _GetPrivateProfileIntA@16  04004a46 f   kernel32:KERNEL32.dll
 0001:00003a4c       _GetPrivateProfileStringA@24 04004a4c f   kernel32:KERNEL32.dll
 0001:00003a52       _WritePrivateProfileStringA@16 04004a52 f   kernel32:KERNEL32.dll
 0001:00003a58       ??0bad_alloc@std@@QAE@ABV01@@Z 04004a58 f i libcpmt:xthrow.obj
 0001:00003a73       ??0bad_alloc@std@@QAE@XZ   04004a73 f i libcpmt:xthrow.obj
 0001:00003a99       ??0bad_function_call@std@@QAE@ABV01@@Z 04004a99 f i libcpmt:xthrow.obj
 0001:00003ab4       ??0bad_function_call@std@@QAE@PBD@Z 04004ab4 f i libcpmt:xthrow.obj
 0001:00003ac8       ??0invalid_argument@std@@QAE@ABV01@@Z 04004ac8 f i libcpmt:xthrow.obj
 0001:00003ae3       ??0invalid_argument@std@@QAE@PBD@Z 04004ae3 f i libcpmt:xthrow.obj
 0001:00003b05       ??0length_error@std@@QAE@ABV01@@Z 04004b05 f i libcpmt:xthrow.obj
 0001:00003b20       ??0length_error@std@@QAE@PBD@Z 04004b20 f i libcpmt:xthrow.obj
 0001:00003b42       ??0logic_error@std@@QAE@ABV01@@Z 04004b42 f i libcpmt:xthrow.obj
 0001:00003b5d       ??0logic_error@std@@QAE@PBD@Z 04004b5d f i libcpmt:xthrow.obj
 0001:00003b79       ??0out_of_range@std@@QAE@ABV01@@Z 04004b79 f i libcpmt:xthrow.obj
 0001:00003b94       ??0out_of_range@std@@QAE@PBD@Z 04004b94 f i libcpmt:xthrow.obj
 0001:00003bb6       ??0overflow_error@std@@QAE@ABV01@@Z 04004bb6 f i libcpmt:xthrow.obj
 0001:00003bd1       ??0overflow_error@std@@QAE@PBD@Z 04004bd1 f i libcpmt:xthrow.obj
 0001:00003bf3       ??0regex_error@std@@QAE@ABV01@@Z 04004bf3 f i libcpmt:xthrow.obj
 0001:00003c17       ??0regex_error@std@@QAE@W4error_type@regex_constants@1@@Z 04004c17 f i libcpmt:xthrow.obj
 0001:00003c47       ??0runtime_error@std@@QAE@ABV01@@Z 04004c47 f i libcpmt:xthrow.obj
 0001:00003c62       ??0runtime_error@std@@QAE@PBD@Z 04004c62 f i libcpmt:xthrow.obj
 0001:00003c7e       ??1bad_alloc@std@@UAE@XZ   04004c7e f i libcpmt:xthrow.obj
 0001:00003c89       ??1bad_function_call@std@@UAE@XZ 04004c89 f i libcpmt:xthrow.obj
 0001:00003c8e       ??1invalid_argument@std@@UAE@XZ 04004c8e f i libcpmt:xthrow.obj
 0001:00003c93       ??1length_error@std@@UAE@XZ 04004c93 f i libcpmt:xthrow.obj
 0001:00003c98       ??1logic_error@std@@UAE@XZ 04004c98 f i libcpmt:xthrow.obj
 0001:00003c9d       ??1out_of_range@std@@UAE@XZ 04004c9d f i libcpmt:xthrow.obj
 0001:00003ca2       ??1overflow_error@std@@UAE@XZ 04004ca2 f i libcpmt:xthrow.obj
 0001:00003ca7       ??1regex_error@std@@UAE@XZ 04004ca7 f i libcpmt:xthrow.obj
 0001:00003cac       ??1runtime_error@std@@UAE@XZ 04004cac f i libcpmt:xthrow.obj
 0001:00003cb1       ??_Gbad_alloc@std@@UAEPAXI@Z 04004cb1 f i libcpmt:xthrow.obj
 0001:00003cb1       ??_Ebad_alloc@std@@UAEPAXI@Z 04004cb1 f i libcpmt:xthrow.obj
 0001:00003cd6       ??_Gbad_function_call@std@@UAEPAXI@Z 04004cd6 f i libcpmt:xthrow.obj
 0001:00003cd6       ??_Ebad_function_call@std@@UAEPAXI@Z 04004cd6 f i libcpmt:xthrow.obj
 0001:00003cf5       ??_Einvalid_argument@std@@UAEPAXI@Z 04004cf5 f i libcpmt:xthrow.obj
 0001:00003cf5       ??_Ginvalid_argument@std@@UAEPAXI@Z 04004cf5 f i libcpmt:xthrow.obj
 0001:00003d14       ??_Glength_error@std@@UAEPAXI@Z 04004d14 f i libcpmt:xthrow.obj
 0001:00003d14       ??_Elength_error@std@@UAEPAXI@Z 04004d14 f i libcpmt:xthrow.obj
 0001:00003d33       ??_Glogic_error@std@@UAEPAXI@Z 04004d33 f i libcpmt:xthrow.obj
 0001:00003d33       ??_Elogic_error@std@@UAEPAXI@Z 04004d33 f i libcpmt:xthrow.obj
 0001:00003d52       ??_Gout_of_range@std@@UAEPAXI@Z 04004d52 f i libcpmt:xthrow.obj
 0001:00003d52       ??_Eout_of_range@std@@UAEPAXI@Z 04004d52 f i libcpmt:xthrow.obj
 0001:00003d71       ??_Goverflow_error@std@@UAEPAXI@Z 04004d71 f i libcpmt:xthrow.obj
 0001:00003d71       ??_Eoverflow_error@std@@UAEPAXI@Z 04004d71 f i libcpmt:xthrow.obj
 0001:00003d90       ??_Eregex_error@std@@UAEPAXI@Z 04004d90 f i libcpmt:xthrow.obj
 0001:00003d90       ??_Gregex_error@std@@UAEPAXI@Z 04004d90 f i libcpmt:xthrow.obj
 0001:00003daf       ??_Eruntime_error@std@@UAEPAXI@Z 04004daf f i libcpmt:xthrow.obj
 0001:00003daf       ??_Gruntime_error@std@@UAEPAXI@Z 04004daf f i libcpmt:xthrow.obj
 0001:00003dce       ?_Stringify@regex_error@std@@CAPBDW4error_type@regex_constants@2@@Z 04004dce f i libcpmt:xthrow.obj
 0001:00003e8e       ?_Xbad_alloc@std@@YAXXZ    04004e8e f   libcpmt:xthrow.obj
 0001:00003ebf       ?_Xbad_function_call@std@@YAXXZ 04004ebf f   libcpmt:xthrow.obj
 0001:00003ee3       ?_Xinvalid_argument@std@@YAXPBD@Z 04004ee3 f   libcpmt:xthrow.obj
 0001:00003f11       ?_Xlength_error@std@@YAXPBD@Z 04004f11 f   libcpmt:xthrow.obj
 0001:00003f3f       ?_Xout_of_range@std@@YAXPBD@Z 04004f3f f   libcpmt:xthrow.obj
 0001:00003f6d       ?_Xoverflow_error@std@@YAXPBD@Z 04004f6d f   libcpmt:xthrow.obj
 0001:00003f9b       ?_Xregex_error@std@@YAXW4error_type@regex_constants@1@@Z 04004f9b f   libcpmt:xthrow.obj
 0001:00003fbb       ?_Xruntime_error@std@@YAXPBD@Z 04004fbb f   libcpmt:xthrow.obj
 0001:00003fe9       ?what@bad_function_call@std@@UBEPBDXZ 04004fe9 f i libcpmt:xthrow.obj
 0001:00003fef       ?_Syserror_map@std@@YAPBDH@Z 04004fef f   libcpmt:syserror.obj
 0001:00004019       ?_Winerror_map@std@@YAPBDH@Z 04005019 f   libcpmt:syserror.obj
 0001:00004044       ??1CXStr@EQClasses@@QAE@XZ 04005044 f   MQ2Main:MQ2Main.dll
 0001:0000404a       ??0CXStr@EQClasses@@QAE@PBD@Z 0400504a f   MQ2Main:MQ2Main.dll
 0001:00004050       ??0CXStr@EQClasses@@QAE@ABV01@@Z 04005050 f   MQ2Main:MQ2Main.dll
 0001:00004056       ?GetScreenRect@CXWnd@EQClasses@@QBE?AVCXRect@2@XZ 04005056 f   MQ2Main:MQ2Main.dll
 0001:0000405c       ?DoAllDrawing@CXWnd@EQClasses@@QBEHXZ 0400505c f   MQ2Main:MQ2Main.dll
 0001:00004062       ?Show@CXWnd@EQClasses@@QAEH_N00@Z 04005062 f   MQ2Main:MQ2Main.dll
 0001:00004068       ?ClrFocus@CXWnd@EQClasses@@QAEXXZ 04005068 f   MQ2Main:MQ2Main.dll
 0001:0000406e       ?HandleLButtonDown@CXWnd@EQClasses@@QAEHPAVCXPoint@2@I@Z 0400506e f   MQ2Main:MQ2Main.dll
 0001:00004074       ?OnMinimizeBox@CXWnd@EQClasses@@QAEHXZ 04005074 f   MQ2Main:MQ2Main.dll
 0001:0000407a       ?SetVScrollPos@CXWnd@EQClasses@@QAEHH@Z 0400507a f   MQ2Main:MQ2Main.dll
 0001:00004080       ?SetWindowTextA@CXWnd@EQClasses@@QAEXAAVCXStr@2@@Z 04005080 f   MQ2Main:MQ2Main.dll
 0001:00004086       ?SetFont@CXWnd@EQClasses@@QAEHPAX@Z 04005086 f   MQ2Main:MQ2Main.dll
 0001:0000408c       ?GetChildItem@CSidlScreenWnd@EQClasses@@QAEPAVCXWnd@2@PAD@Z 0400508c f   MQ2Main:MQ2Main.dll
 0001:00004092       ??0CSidlScreenWnd@EQClasses@@QAE@PAVCXWnd@1@PAVCXStr@1@HHPAD@Z 04005092 f   MQ2Main:MQ2Main.dll
 0001:00004098       ?CreateChildrenFromSidl@CSidlScreenWnd@EQClasses@@QAEXXZ 04005098 f   MQ2Main:MQ2Main.dll
 0001:0000409e       ??1CSidlScreenWnd@EQClasses@@QAE@XZ 0400509e f   MQ2Main:MQ2Main.dll
 0001:000040a4       ?WndNotification@CSidlScreenWnd@EQClasses@@QAEHPAVCXWnd@2@IPAX@Z 040050a4 f   MQ2Main:MQ2Main.dll
 0001:000040aa       ?GetRGBAFromIndex@CChatManager@EQClasses@@QAEKH@Z 040050aa f   MQ2Main:MQ2Main.dll
 0001:000040b0       ?Clear@CChatWindow@EQClasses@@QAEXXZ 040050b0 f   MQ2Main:MQ2Main.dll
 0001:000040b6       ?WndNotification@CChatWindow@EQClasses@@QAEHPAVCXWnd@2@IPAX@Z 040050b6 f   MQ2Main:MQ2Main.dll
 0001:000040bc       ?SetMaxChars@CEditBaseWnd@EQClasses@@QAEXH@Z 040050bc f   MQ2Main:MQ2Main.dll
 0001:000040c2       ?AppendSTML@CStmlWnd@EQClasses@@QAE?AVCXSize@2@VCXStr@2@@Z 040050c2 f   MQ2Main:MQ2Main.dll
 0001:000040c8       ?GetSTMLText@CStmlWnd@EQClasses@@QBE?AVCXStr@2@XZ 040050c8 f   MQ2Main:MQ2Main.dll
 0001:000040ce       ?ForceParseNow@CStmlWnd@EQClasses@@QAEXXZ 040050ce f   MQ2Main:MQ2Main.dll
 0001:000040d4       ?SetSTMLText@CStmlWnd@EQClasses@@QAEXVCXStr@2@_NPAVSLinkInfo@2@@Z 040050d4 f   MQ2Main:MQ2Main.dll
 0001:000040da       ?StripFirstSTMLLines@CStmlWnd@EQClasses@@QAEXH@Z 040050da f   MQ2Main:MQ2Main.dll
 0001:000040e0       ?CenterPoint@CXRect@EQClasses@@QBE?AVCXPoint@2@XZ 040050e0 f   MQ2Main:MQ2Main.dll
 0001:000040e6       _ExitMQ2Benchmark          040050e6 f   MQ2Main:MQ2Main.dll
 0001:000040ec       _EnterMQ2Benchmark         040050ec f   MQ2Main:MQ2Main.dll
 0001:000040f2       _RemoveMQ2Benchmark        040050f2 f   MQ2Main:MQ2Main.dll
 0001:000040f8       _AddMQ2Benchmark           040050f8 f   MQ2Main:MQ2Main.dll
 0001:000040fe       _WriteChatf                040050fe f   MQ2Main:MQ2Main.dll
 0001:00004104       _WriteChatColor            04005104 f   MQ2Main:MQ2Main.dll
 0001:0000410a       _AddCommand                0400510a f   MQ2Main:MQ2Main.dll
 0001:00004110       _RemoveCommand             04005110 f   MQ2Main:MQ2Main.dll
 0001:00004116       _Echo                      04005116 f   MQ2Main:MQ2Main.dll
 0001:0000411c       _SetMQ2KeyBind             0400511c f   MQ2Main:MQ2Main.dll
 0001:00004122       _AddMQ2KeyBind             04005122 f   MQ2Main:MQ2Main.dll
 0001:00004128       _RemoveMQ2KeyBind          04005128 f   MQ2Main:MQ2Main.dll
 0001:0000412e       _DebugSpew                 0400512e f   MQ2Main:MQ2Main.dll
 0001:00004134       _DebugSpewAlways           04005134 f   MQ2Main:MQ2Main.dll
 0001:0000413a       _HideDoCommand             0400513a f   MQ2Main:MQ2Main.dll
 0001:00004140       _SetCXStr                  04005140 f   MQ2Main:MQ2Main.dll
 0001:00004146       _GetCXStr                  04005146 f   MQ2Main:MQ2Main.dll
 0001:0000414c       _MQToSTML                  0400514c f   MQ2Main:MQ2Main.dll
 0001:00004152       _ConvertItemTags           04005152 f   MQ2Main:MQ2Main.dll
 0001:00004158       _ParseKeyCombo             04005158 f   MQ2Main:MQ2Main.dll
 0001:0000415e       _InHoverState              0400515e f   MQ2Main:MQ2Main.dll
 0001:00004164       __get_purecall_handler     04005164 f   LIBCMT:purevirt.obj
 0001:00004171       __purecall                 04005171 f   LIBCMT:purevirt.obj
 0001:00004193       __set_purecall_handler     04005193 f   LIBCMT:purevirt.obj
 0001:000041b8       ??2@YAPAXI@Z               040051b8 f   LIBCMT:new.obj
 0001:00004209       ??3@YAXPAX@Z               04005209 f   LIBCMT:delete.obj
 0001:0000420e       ___onexitinit              0400520e f   LIBCMT:onexit.obj
 0001:0000423d       __onexit                   0400523d f   LIBCMT:onexit.obj
 0001:00004339       _atexit                    04005339 f   LIBCMT:onexit.obj
 0001:00004350       _memmove                   04005350 f   LIBCMT:memmove.obj
 0001:00004994       __sscanf_l                 04005994 f   LIBCMT:sscanf.obj
 0001:000049b3       __sscanf_s_l               040059b3 f   LIBCMT:sscanf.obj
 0001:000049d2       _sscanf                    040059d2 f   LIBCMT:sscanf.obj
 0001:000049f0       _sscanf_s                  040059f0 f   LIBCMT:sscanf.obj
 0001:00004a81       _vsscanf                   04005a81 f   LIBCMT:sscanf.obj
 0001:00004a9e       _vsscanf_s                 04005a9e f   LIBCMT:sscanf.obj
 0001:00004abb       __scprintf                 04005abb f   LIBCMT:sprintf.obj
 0001:00004ace       __scprintf_l               04005ace f   LIBCMT:sprintf.obj
 0001:00004ae5       __scprintf_p               04005ae5 f   LIBCMT:sprintf.obj
 0001:00004af8       __scprintf_p_l             04005af8 f   LIBCMT:sprintf.obj
 0001:00004b0f       __snprintf_s               04005b0f f   LIBCMT:sprintf.obj
 0001:00004b2e       __snprintf_s_l             04005b2e f   LIBCMT:sprintf.obj
 0001:00004b4e       __sprintf_l                04005b4e f   LIBCMT:sprintf.obj
 0001:00004b68       __sprintf_p                04005b68 f   LIBCMT:sprintf.obj
 0001:00004b84       __sprintf_p_l              04005b84 f   LIBCMT:sprintf.obj
 0001:00004ba1       __sprintf_s_l              04005ba1 f   LIBCMT:sprintf.obj
 0001:00004bbe       _sprintf                   04005bbe f   LIBCMT:sprintf.obj
 0001:00004c42       _sprintf_s                 04005c42 f   LIBCMT:sprintf.obj
 0001:00004c5e       __atoi64                   04005c5e f   LIBCMT:atox.obj
 0001:00004c72       __atoi64_l                 04005c72 f   LIBCMT:atox.obj
 0001:00004c89       __atoi_l                   04005c89 f   LIBCMT:atox.obj
 0001:00004c92       __atol_l                   04005c92 f   LIBCMT:atox.obj
 0001:00004ca9       __atoll_l                  04005ca9 f   LIBCMT:atox.obj
 0001:00004cc0       _atoi                      04005cc0 f   LIBCMT:atox.obj
 0001:00004cc9       _atol                      04005cc9 f   LIBCMT:atox.obj
 0001:00004cdd       _atoll                     04005cdd f   LIBCMT:atox.obj
 0001:00004cf1       __cabs                     04005cf1 f   LIBCMT:hypot.obj
 0001:00004d10       __hypot                    04005d10 f   LIBCMT:hypot.obj
 0001:00004f7b       __CxxThrowException@8      04005f7b f   LIBCMT:throw.obj
 0001:000050ae       ?_CallCatchBlock2@@YAPAXPAUEHRegistrationNode@@PBU_s_FuncInfo@@PAXHK@Z 040060ae f   LIBCMT:_trnsctrl_.obj
 0001:0000510e       ?_CallMemberFunction0@@YGXPAX0@Z 0400610e f   LIBCMT:_trnsctrl_.obj
 0001:00005115       ?_CallMemberFunction1@@YGXPAX00@Z 04006115 f   LIBCMT:_trnsctrl_.obj
 0001:0000511c       ?_CallMemberFunction2@@YGXPAX00H@Z 0400611c f   LIBCMT:_trnsctrl_.obj
 0001:00005123       ?_CallSETranslator@@YAHPAUEHExceptionRecord@@PAUEHRegistrationNode@@PAX2PBU_s_FuncInfo@@H1@Z 04006123 f   LIBCMT:_trnsctrl_.obj
 0001:000051fa       ?_GetRangeOfTrysToCheck@@YAPBU_s_TryBlockMapEntry@@PBU_s_FuncInfo@@HHPAI1@Z 040061fa f   LIBCMT:_trnsctrl_.obj
 0001:00005278       ?_JumpToContinuation@@YGXPAXPAUEHRegistrationNode@@@Z 04006278 f   LIBCMT:_trnsctrl_.obj
 0001:000052aa       ?_UnwindNestedFrames@@YGXPAUEHRegistrationNode@@PAUEHExceptionRecord@@@Z 040062aa f   LIBCMT:_trnsctrl_.obj
 0001:000052ff       __CreateFrameInfo          040062ff f   LIBCMT:_trnsctrl_.obj
 0001:00005329       __FindAndUnlinkFrame       04006329 f   LIBCMT:_trnsctrl_.obj
 0001:00005379       __IsExceptionObjectToBeDestroyed 04006379 f   LIBCMT:_trnsctrl_.obj
 0001:000053a2       ___CxxFrameHandler         040063a2 f   LIBCMT:_trnsctrl_.obj
 0001:000053d8       ___CxxFrameHandler2        040063d8 f   LIBCMT:_trnsctrl_.obj
 0001:0000540e       ___CxxFrameHandler3        0400640e f   LIBCMT:_trnsctrl_.obj
 0001:00005444       ___CxxLongjmpUnwind@4      04006444 f   LIBCMT:_trnsctrl_.obj
 0001:00005470       _memcpy                    04006470 f   LIBCMT:memcpy.obj
 0001:00005ac0       _memset                    04006ac0 f   LIBCMT:memset.obj
 0001:00005b50       ??0type_info@@AAE@ABV0@@Z  04006b50 f   LIBCMT:typinfo.obj
 0001:00005b5b       ??1type_info@@UAE@XZ       04006b5b f   LIBCMT:typinfo.obj
 0001:00005b69       ??4type_info@@AAEAAV0@ABV0@@Z 04006b69 f   LIBCMT:typinfo.obj
 0001:00005b6e       ??8type_info@@QBE_NABV0@@Z 04006b6e f   LIBCMT:typinfo.obj
 0001:00005b8c       ??9type_info@@QBE_NABV0@@Z 04006b8c f   LIBCMT:typinfo.obj
 0001:00005bab       ??_Etype_info@@UAEPAXI@Z   04006bab f i LIBCMT:typinfo.obj
 0001:00005bab       ??_Gtype_info@@UAEPAXI@Z   04006bab f i LIBCMT:typinfo.obj
 0001:00005bca       ?_name_internal_method@type_info@@QBEPBDPAU__type_info_node@@@Z 04006bca f   LIBCMT:typinfo.obj
 0001:00005bdc       ?_type_info_dtor_internal_method@type_info@@QAEXXZ 04006bdc f   LIBCMT:typinfo.obj
 0001:00005be4       ?before@type_info@@QBE_NABV1@@Z 04006be4 f   LIBCMT:typinfo.obj
 0001:00005c04       ?name@type_info@@QBEPBDPAU__type_info_node@@@Z 04006c04 f   LIBCMT:typinfo.obj
 0001:00005c16       ?raw_name@type_info@@QBEPBDXZ 04006c16 f   LIBCMT:typinfo.obj
 0001:00005c1a       __fpmath                   04006c1a f   LIBCMT:fpinit.obj
 0001:00005c31       ___setfflag                04006c31 f   LIBCMT:fpinit.obj
 0001:00005c44       __cfltcvt_init             04006c44 f   LIBCMT:fpinit.obj
 0001:00005ca4       __CRT_INIT@12              04006ca4 f   LIBCMT:dllcrt0.obj
 0001:00005e16       __DllMainCRTStartup@12     04006e16 f   LIBCMT:dllcrt0.obj
 0001:00005f47       ___DllXcptFilter           04006f47 f   LIBCMT:dllcrt0.obj
 0001:00005f70       _strlen                    04006f70 f   LIBCMT:strlen.obj
 0001:00005ffb       ??0__non_rtti_object@std@@QAE@ABV01@@Z 04006ffb f   LIBCMT:stdexcpt.obj
 0001:00006016       ??0__non_rtti_object@std@@QAE@PBD@Z 04007016 f   LIBCMT:stdexcpt.obj
 0001:00006031       ??0bad_cast@std@@QAE@ABV01@@Z 04007031 f   LIBCMT:stdexcpt.obj
 0001:0000604c       ??0bad_cast@std@@QAE@PBD@Z 0400704c f   LIBCMT:stdexcpt.obj
 0001:00006068       ??0bad_typeid@std@@QAE@ABV01@@Z 04007068 f   LIBCMT:stdexcpt.obj
 0001:00006083       ??0bad_typeid@std@@QAE@PBD@Z 04007083 f   LIBCMT:stdexcpt.obj
 0001:0000609f       ??0exception@std@@QAE@ABQBD@Z 0400709f f   LIBCMT:stdexcpt.obj
 0001:000060c4       ??0exception@std@@QAE@ABQBDH@Z 040070c4 f   LIBCMT:stdexcpt.obj
 0001:000060df       ??0exception@std@@QAE@ABV01@@Z 040070df f   LIBCMT:stdexcpt.obj
 0001:00006102       ??0exception@std@@QAE@XZ   04007102 f   LIBCMT:stdexcpt.obj
 0001:00006113       ??1__non_rtti_object@std@@UAE@XZ 04007113 f   LIBCMT:stdexcpt.obj
 0001:0000611e       ??1bad_cast@std@@UAE@XZ    0400711e f   LIBCMT:stdexcpt.obj
 0001:00006129       ??1bad_typeid@std@@UAE@XZ  04007129 f   LIBCMT:stdexcpt.obj
 0001:00006134       ??1exception@std@@UAE@XZ   04007134 f   LIBCMT:stdexcpt.obj
 0001:0000613f       ??4exception@std@@QAEAAV01@ABV01@@Z 0400713f f   LIBCMT:stdexcpt.obj
 0001:00006172       ??_E__non_rtti_object@std@@UAEPAXI@Z 04007172 f i LIBCMT:stdexcpt.obj
 0001:00006172       ??_G__non_rtti_object@std@@UAEPAXI@Z 04007172 f i LIBCMT:stdexcpt.obj
 0001:00006197       ??_Gbad_cast@std@@UAEPAXI@Z 04007197 f i LIBCMT:stdexcpt.obj
 0001:00006197       ??_Ebad_cast@std@@UAEPAXI@Z 04007197 f i LIBCMT:stdexcpt.obj
 0001:000061bc       ??_Ebad_typeid@std@@UAEPAXI@Z 040071bc f i LIBCMT:stdexcpt.obj
 0001:000061bc       ??_Gbad_typeid@std@@UAEPAXI@Z 040071bc f i LIBCMT:stdexcpt.obj
 0001:000061e1       ??_Gexception@std@@UAEPAXI@Z 040071e1 f i LIBCMT:stdexcpt.obj
 0001:000061e1       ??_Eexception@std@@UAEPAXI@Z 040071e1 f i LIBCMT:stdexcpt.obj
 0001:00006206       ?_Copy_str@exception@std@@AAEXPBD@Z 04007206 f   LIBCMT:stdexcpt.obj
 0001:00006244       ?_Tidy@exception@std@@AAEXXZ 04007244 f   LIBCMT:stdexcpt.obj
 0001:00006260       ?what@exception@std@@UBEPBDXZ 04007260 f   LIBCMT:stdexcpt.obj
 0001:0000626d       @__security_check_cookie@4 0400726d f   LIBCMT:secchk.obj
 0001:0000627c       __EH_epilog3               0400727c f   LIBCMT:ehprolg3.obj
 0001:00006290       __EH_epilog3_GS            04007290 f   LIBCMT:ehprolg3.obj
 0001:0000629f       __EH_epilog3_catch_GS      0400729f f   LIBCMT:ehprolg3.obj
 0001:000062ae       __EH_prolog3               040072ae f   LIBCMT:ehprolg3.obj
 0001:000062e1       __EH_prolog3_GS            040072e1 f   LIBCMT:ehprolg3.obj
 0001:00006317       __EH_prolog3_catch         04007317 f   LIBCMT:ehprolg3.obj
 0001:0000634d       __EH_prolog3_catch_GS      0400734d f   LIBCMT:ehprolg3.obj
 0001:00006386       __set_abort_behavior       04007386 f   LIBCMT:abort.obj
 0001:000063a5       _abort                     040073a5 f   LIBCMT:abort.obj
 0001:000063e8       ___getlocaleinfo           040073e8 f   LIBCMT:inithelp.obj
 0001:000065c1       __initp_misc_purevirt      040075c1 f   LIBCMT:inithelp.obj
 0001:000065ce       __invoke_watson_if_error   040075ce f i LIBCMT:inithelp.obj
 0001:000065ee       __heap_alloc               040075ee f i LIBCMT:malloc.obj
 0001:0000662b       _malloc                    0400762b f   LIBCMT:malloc.obj
 0001:000066bd       ?_query_new_handler@@YAP6AHI@ZXZ 040076bd f   LIBCMT:handler.obj
 0001:000066ca       ?_set_new_handler@@YAP6AHI@ZH@Z 040076ca f   LIBCMT:handler.obj
 0001:000066d3       ?_set_new_handler@@YAP6AHI@ZP6AHI@Z@Z 040076d3 f   LIBCMT:handler.obj
 0001:00006708       __callnewh                 04007708 f   LIBCMT:handler.obj
 0001:0000672e       __initp_heap_handler       0400772e f   LIBCMT:handler.obj
 0001:0000673b       _free                      0400773b f   LIBCMT:free.obj
 0001:00006773       ___copy_path_to_wide_string 04007773 f   LIBCMT:crt0dat.obj
 0001:00006825       ___copy_to_char            04007825 f   LIBCMT:crt0dat.obj
 0001:000068da       ___crtCorExitProcess       040078da f   LIBCMT:crt0dat.obj
 0001:0000690e       ___crtExitProcess          0400790e f   LIBCMT:crt0dat.obj
 0001:00006924       ___freeCrtMemory           04007924 f   LIBCMT:crt0dat.obj
 0001:00006a31       __amsg_exit                04007a31 f   LIBCMT:crt0dat.obj
 0001:00006a4d       __c_exit                   04007a4d f   LIBCMT:crt0dat.obj
 0001:00006a5c       __cexit                    04007a5c f   LIBCMT:crt0dat.obj
 0001:00006a6b       __cinit                    04007a6b f   LIBCMT:crt0dat.obj
 0001:00006aef       __exit                     04007aef f   LIBCMT:crt0dat.obj
 0001:00006b03       __exit_app                 04007b03 f   LIBCMT:crt0dat.obj
 0001:00006b11       __get_pgmptr               04007b11 f   LIBCMT:crt0dat.obj
 0001:00006b40       __get_wpgmptr              04007b40 f   LIBCMT:crt0dat.obj
 0001:00006b6f       __init_pointers            04007b6f f   LIBCMT:crt0dat.obj
 0001:00006bdd       __initterm_e               04007bdd f   LIBCMT:crt0dat.obj
 0001:00006bff       __lockexit                 04007bff f   LIBCMT:crt0dat.obj
 0001:00006c08       __unlockexit               04007c08 f   LIBCMT:crt0dat.obj
 0001:00006d40       _exit                      04007d40 f   LIBCMT:crt0dat.obj
 0001:00006d54       __msize                    04007d54 f   LIBCMT:msize.obj
 0001:00006d85       __calloc_crt               04007d85 f   LIBCMT:crtheap.obj
 0001:00006dcd       __malloc_crt               04007dcd f   LIBCMT:crtheap.obj
 0001:00006e14       __realloc_crt              04007e14 f   LIBCMT:crtheap.obj
 0001:00006e5e       __recalloc_crt             04007e5e f   LIBCMT:crtheap.obj
 0001:00006eac       __set_malloc_crt_max_wait  04007eac f   LIBCMT:crtheap.obj
 0001:00006ebf       _wait_a_bit                04007ebf f i LIBCMT:crtheap.obj
 0001:00006ef0       __SEH_prolog4              04007ef0 f   LIBCMT:sehprolg4.obj
 0001:00006f35       __SEH_epilog4              04007f35 f   LIBCMT:sehprolg4.obj
 0001:00006f90       __except_handler4          04007f90 f   LIBCMT:chandler4.obj
 0001:00007124       ___isa_available_init      04008124 f   LIBCMT:cpu_disp.obj
 0001:0000729d       ?_invalid_parameter@@YAXPBG00II@Z 0400829d f   LIBCMT:invarg.obj
 0001:000072a2       ?_invoke_watson@@YAXPBG00II@Z 040082a2 f   LIBCMT:invarg.obj
 0001:000072ba       __call_reportfault         040082ba f   LIBCMT:invarg.obj
 0001:000073df       __get_invalid_parameter_handler 040083df f   LIBCMT:invarg.obj
 0001:000073ec       __initp_misc_invarg        040083ec f   LIBCMT:invarg.obj
 0001:000073f9       __invalid_parameter        040083f9 f   LIBCMT:invarg.obj
 0001:00007424       __invalid_parameter_noinfo 04008424 f   LIBCMT:invarg.obj
 0001:00007434       __invalid_parameter_noinfo_noreturn 04008434 f   LIBCMT:invarg.obj
 0001:0000744f       __invoke_watson            0400844f f   LIBCMT:invarg.obj
 0001:0000747a       __set_invalid_parameter_handler 0400847a f   LIBCMT:invarg.obj
 0001:0000749f       ??0_LocaleUpdate@@QAE@PAUlocaleinfo_struct@@@Z 0400849f f i LIBCMT:input.obj
 0001:00007527       ??1_LocaleUpdate@@QAE@XZ   04008527 f i LIBCMT:input.obj
 0001:00007535       ?GetLocaleT@_LocaleUpdate@@QAEPAUlocaleinfo_struct@@XZ 04008535 f i LIBCMT:input.obj
 0001:00007538       __INTRN_LOCALE_CONV        04008538 f i LIBCMT:input.obj
 0001:000075ea       __input_l                  040085ea f   LIBCMT:input.obj
 0001:0000881a       __input_s_l                0400981a f   LIBCMT:inputs.obj
 0001:00009b08       ___doserrno                0400ab08 f   LIBCMT:dosmap.obj
 0001:00009b1b       __dosmaperr                0400ab1b f   LIBCMT:dosmap.obj
 0001:00009b3c       __errno                    0400ab3c f   LIBCMT:dosmap.obj
 0001:00009b4f       __get_doserrno             0400ab4f f   LIBCMT:dosmap.obj
 0001:00009b72       __get_errno                0400ab72 f   LIBCMT:dosmap.obj
 0001:00009b95       __get_errno_from_oserr     0400ab95 f   LIBCMT:dosmap.obj
 0001:00009bd6       __set_doserrno             0400abd6 f   LIBCMT:dosmap.obj
 0001:00009bf5       __set_errno                0400abf5 f   LIBCMT:dosmap.obj
 0001:00009c14       __flsbuf                   0400ac14 f   LIBCMT:_flsbuf.obj
 0001:00009d63       __vscprintf                0400ad63 f   LIBCMT:vsprintf.obj
 0001:00009d7d       __vscprintf_helper         0400ad7d f   LIBCMT:vsprintf.obj
 0001:00009dd9       __vscprintf_l              0400add9 f   LIBCMT:vsprintf.obj
 0001:00009df4       __vscprintf_p              0400adf4 f   LIBCMT:vsprintf.obj
 0001:00009e0e       __vscprintf_p_l            0400ae0e f   LIBCMT:vsprintf.obj
 0001:00009e29       __vsprintf_l               0400ae29 f   LIBCMT:vsprintf.obj
 0001:00009ead       _vsprintf                  0400aead f   LIBCMT:vsprintf.obj
 0001:00009ec5       __vsnprintf_c              0400aec5 f   LIBCMT:vsnprnc.obj
 0001:00009eec       __vsnprintf_c_l            0400aeec f   LIBCMT:vsnprnc.obj
 0001:00009f14       __vsnprintf_helper         0400af14 f   LIBCMT:vsnprnc.obj
 0001:00009fde       __vsnprintf_s              0400afde f   LIBCMT:vsnprnc.obj
 0001:00009ffc       __vsnprintf_s_l            0400affc f   LIBCMT:vsnprnc.obj
 0001:0000a0fc       __vsprintf_p               0400b0fc f   LIBCMT:vsnprnc.obj
 0001:0000a123       __vsprintf_p_l             0400b123 f   LIBCMT:vsnprnc.obj
 0001:0000a14b       __vsprintf_s_l             0400b14b f   LIBCMT:vsnprnc.obj
 0001:0000a1c0       _vsprintf_s                0400b1c0 f   LIBCMT:vsnprnc.obj
 0001:0000a1db       __output_l                 0400b1db f   LIBCMT:output.obj
 0001:0000ad5b       _get_int64_arg             0400bd5b f i LIBCMT:output.obj
 0001:0000ad6e       _get_int_arg               0400bd6e f i LIBCMT:output.obj
 0001:0000ad7e       _get_short_arg             0400bd7e f i LIBCMT:output.obj
 0001:0000b0eb       __strtof_l                 0400c0eb f   LIBCMT:strtoq.obj
 0001:0000b10b       __strtoi64                 0400c10b f   LIBCMT:strtoq.obj
 0001:0000b135       __strtoi64_l               0400c135 f   LIBCMT:strtoq.obj
 0001:0000b150       __strtoimax_l              0400c150 f   LIBCMT:strtoq.obj
 0001:0000b159       __strtold_l                0400c159 f   LIBCMT:strtoq.obj
 0001:0000b162       __strtoll_l                0400c162 f   LIBCMT:strtoq.obj
 0001:0000b16b       __strtoui64                0400c16b f   LIBCMT:strtoq.obj
 0001:0000b195       __strtoui64_l              0400c195 f   LIBCMT:strtoq.obj
 0001:0000b1b0       __strtoull_l               0400c1b0 f   LIBCMT:strtoq.obj
 0001:0000b1b9       __strtoumax_l              0400c1b9 f   LIBCMT:strtoq.obj
 0001:0000b1c2       _strtof                    0400c1c2 f   LIBCMT:strtoq.obj
 0001:0000b1e1       _strtoimax                 0400c1e1 f   LIBCMT:strtoq.obj
 0001:0000b1ea       _strtold                   0400c1ea f   LIBCMT:strtoq.obj
 0001:0000b1f3       _strtoll                   0400c1f3 f   LIBCMT:strtoq.obj
 0001:0000b1fc       _strtoull                  0400c1fc f   LIBCMT:strtoq.obj
 0001:0000b205       _strtoumax                 0400c205 f   LIBCMT:strtoq.obj
 0001:0000b434       __strtol_l                 0400c434 f   LIBCMT:strtol.obj
 0001:0000b44f       __strtoul_l                0400c44f f   LIBCMT:strtol.obj
 0001:0000b46a       _strtol                    0400c46a f   LIBCMT:strtol.obj
 0001:0000b494       _strtoul                   0400c494 f   LIBCMT:strtol.obj
 0001:0000b4c0       __CIsqrt                   0400c4c0 f   LIBCMT:sqrt.obj
 0001:0000b4d4       _sqrt                      0400c4d4     LIBCMT:sqrt.obj
 0001:0000b57a       __add_exp                  0400c57a f   LIBCMT:util.obj
 0001:0000b5a9       __decomp                   0400c5a9 f   LIBCMT:util.obj
 0001:0000b67b       __get_exp                  0400c67b f   LIBCMT:util.obj
 0001:0000b694       __set_bexp                 0400c694 f   LIBCMT:util.obj
 0001:0000b6bd       __set_exp                  0400c6bd f   LIBCMT:util.obj
 0001:0000b6ec       __sptype                   0400c6ec f   LIBCMT:util.obj
 0001:0000b747       __errcode                  0400c747 f   LIBCMT:fpexcept.obj
 0001:0000b779       __except1                  0400c779 f   LIBCMT:fpexcept.obj
 0001:0000b841       __except2                  0400c841 f   LIBCMT:fpexcept.obj
 0001:0000b941       __handle_exc               0400c941 f   LIBCMT:fpexcept.obj
 0001:0000bb1f       __handle_qnan1             0400cb1f f   LIBCMT:fpexcept.obj
 0001:0000bb6f       __handle_qnan2             0400cb6f f   LIBCMT:fpexcept.obj
 0001:0000bbcf       __raise_exc                0400cbcf f   LIBCMT:fpexcept.obj
 0001:0000bbf0       __raise_exc_ex             0400cbf0 f   LIBCMT:fpexcept.obj
 0001:0000bed5       __raise_excf               0400ced5 f   LIBCMT:fpexcept.obj
 0001:0000bef6       __set_errno_from_matherr   0400cef6 f   LIBCMT:fpexcept.obj
 0001:0000bf23       __umatherr                 0400cf23 f   LIBCMT:fpexcept.obj
 0001:0000bfc3       ___clrfp_sse2              0400cfc3 f   LIBCMT:fpctrl.obj
 0001:0000bfe4       ___ctrlfp_sse2             0400cfe4 f   LIBCMT:fpctrl.obj
 0001:0000c01d       ___fclrf_sse2              0400d01d f   LIBCMT:fpctrl.obj
 0001:0000c03a       ___get_fpsr_sse2           0400d03a f   LIBCMT:fpctrl.obj
 0001:0000c056       ___set_fpsr_sse2           0400d056 f   LIBCMT:fpctrl.obj
 0001:0000c0cc       ___set_statfp_sse2         0400d0cc f   LIBCMT:fpctrl.obj
 0001:0000c0e5       ___statfp_sse2             0400d0e5 f   LIBCMT:fpctrl.obj
 0001:0000c0fa       __clrfp                    0400d0fa f   LIBCMT:fpctrl.obj
 0001:0000c10b       __ctrlfp                   0400d10b f   LIBCMT:fpctrl.obj
 0001:0000c136       __set_statfp               0400d136 f   LIBCMT:fpctrl.obj
 0001:0000c18e       __statfp                   0400d18e f   LIBCMT:fpctrl.obj
 0001:0000c19e       ___get_flsindex            0400d19e f   LIBCMT:tidtable.obj
 0001:0000c1a4       ___threadhandle            0400d1a4 f   LIBCMT:tidtable.obj
 0001:0000c1aa       ___threadid                0400d1aa f   LIBCMT:tidtable.obj
 0001:0000c1b0       __freefls@4                0400d1b0 f   LIBCMT:tidtable.obj
 0001:0000c2e5       __freeptd                  0400d2e5 f   LIBCMT:tidtable.obj
 0001:0000c31b       __getptd                   0400d31b f   LIBCMT:tidtable.obj
 0001:0000c333       __getptd_noexit            0400d333 f   LIBCMT:tidtable.obj
 0001:0000c3a2       __initptd                  0400d3a2 f   LIBCMT:tidtable.obj
 0001:0000c455       __mtinit                   0400d455 f   LIBCMT:tidtable.obj
 0001:0000c4cb       __mtterm                   0400d4cb f   LIBCMT:tidtable.obj
 0001:0000c4f0       __CallSettingFrame@12      0400d4f0 f   LIBCMT:lowhelpr.obj
 0001:0000c517       __NLG_Return               0400d517     LIBCMT:lowhelpr.obj
 0001:0000c53c       ?_inconsistency@@YAXXZ     0400d53c f   LIBCMT:hooks.obj
 0001:0000c574       ?terminate@@YAXXZ          0400d574 f   LIBCMT:hooks.obj
 0001:0000c5a8       ?unexpected@@YAXXZ         0400d5a8 f   LIBCMT:hooks.obj
 0001:0000c5bb       __initp_eh_hooks           0400d5bb f   LIBCMT:hooks.obj
 0001:0000c5cc       ___DestructExceptionObject 0400d5cc f   LIBCMT:frame.obj
 0001:0000c657       ??0bad_exception@std@@QAE@ABV01@@Z 0400d657 f i LIBCMT:frame.obj
 0001:0000c672       ??0bad_exception@std@@QAE@PBD@Z 0400d672 f i LIBCMT:frame.obj
 0001:0000c68e       ??1bad_exception@std@@UAE@XZ 0400d68e f i LIBCMT:frame.obj
 0001:0000c699       ??_Ebad_exception@std@@UAEPAXI@Z 0400d699 f i LIBCMT:frame.obj
 0001:0000c699       ??_Gbad_exception@std@@UAEPAXI@Z 0400d699 f i LIBCMT:frame.obj
 0001:0000cf06       ?__uncaught_exception@@YA_NXZ 0400df06 f   LIBCMT:frame.obj
 0001:0000cf17       ?_is_exception_typeof@@YAHABVtype_info@@PAU_EXCEPTION_POINTERS@@@Z 0400df17 f   LIBCMT:frame.obj
 0001:0000cf9e       __SetWinRTOutOfMemoryExceptionCallback 0400df9e f   LIBCMT:frame.obj
 0001:0000cfab       ___AdjustPointer           0400dfab f   LIBCMT:frame.obj
 0001:0000cfd0       ___BuildCatchObject        0400dfd0 f   LIBCMT:frame.obj
 0001:0000d05e       ___BuildCatchObjectHelper  0400e05e f   LIBCMT:frame.obj
 0001:0000d220       ___CxxDetectRethrow        0400e220 f   LIBCMT:frame.obj
 0001:0000d26f       ___CxxExceptionFilter      0400e26f f   LIBCMT:frame.obj
 0001:0000d3c9       ___CxxQueryExceptionSize   0400e3c9 f   LIBCMT:frame.obj
 0001:0000d3cd       ___CxxRegisterExceptionObject 0400e3cd f   LIBCMT:frame.obj
 0001:0000d484       ___CxxUnregisterExceptionObject 0400e484 f   LIBCMT:frame.obj
 0001:0000d5c1       ___FrameUnwindFilter       0400e5c1 f   LIBCMT:frame.obj
 0001:0000d60f       ___FrameUnwindToState      0400e60f f   LIBCMT:frame.obj
 0001:0000d6e8       ___GetPlatformExceptionInfo 0400e6e8 f   LIBCMT:frame.obj
 0001:0000d73d       ___InternalCxxFrameHandler 0400e73d f   LIBCMT:frame.obj
 0001:0000d81e       ___TypeMatch               0400e81e f   LIBCMT:frame.obj
 0001:0000d885       __VEC_memset               0400e885 f   LIBCMT:p4_memset.obj
 0001:0000d950       _strcmp                    0400e950 f   LIBCMT:strcmp.obj
 0001:0000d9dc       ?_Name_base@type_info@@CAPBDPBV1@PAU__type_info_node@@@Z 0400e9dc f   LIBCMT:typname.obj
 0001:0000dacd       ?_Name_base_internal@type_info@@CAPBDPBV1@PAU__type_info_node@@@Z 0400eacd f   LIBCMT:typname.obj
 0001:0000dbd7       ?_Type_info_dtor@type_info@@CAXPAV1@@Z 0400ebd7 f   LIBCMT:typname.obj
 0001:0000dc48       ?_Type_info_dtor_internal@type_info@@CAXPAV1@@Z 0400ec48 f   LIBCMT:typname.obj
 0001:0000dcb9       ___clean_type_info_names_internal 0400ecb9 f   LIBCMT:typname.obj
 0001:0000dd0c       ___unDNameHelper           0400ed0c f   LIBCMT:typname.obj
 0001:0000dd3a       ?strrchr@@YAPADPADH@Z      0400ed3a f i LIBCMT:cvt.obj
 0001:0000dd43       __cfltcvt                  0400ed43 f   LIBCMT:cvt.obj
 0001:0000dd64       __cfltcvt_l                0400ed64 f   LIBCMT:cvt.obj
 0001:0000ddea       __cftoa                    0400edea f   LIBCMT:cvt.obj
 0001:0000de08       __cftoa_l                  0400ee08 f   LIBCMT:cvt.obj
 0001:0000e164       __cftoe                    0400f164 f   LIBCMT:cvt.obj
 0001:0000e2d3       __cftoe_l                  0400f2d3 f   LIBCMT:cvt.obj
 0001:0000e3a1       __cftof                    0400f3a1 f   LIBCMT:cvt.obj
 0001:0000e4a8       __cftof_l                  0400f4a8 f   LIBCMT:cvt.obj
 0001:0000e569       __cftog                    0400f569 f   LIBCMT:cvt.obj
 0001:0000e587       __cftog_l                  0400f587 f   LIBCMT:cvt.obj
 0001:0000e686       __cropzeros                0400f686 f   LIBCMT:cvt.obj
 0001:0000e697       __cropzeros_l              0400f697 f   LIBCMT:cvt.obj
 0001:0000e717       __fassign                  0400f717 f   LIBCMT:cvt.obj
 0001:0000e72f       __fassign_l                0400f72f f   LIBCMT:cvt.obj
 0001:0000e771       __forcdecpt                0400f771 f   LIBCMT:cvt.obj
 0001:0000e782       __forcdecpt_l              0400f782 f   LIBCMT:cvt.obj
 0001:0000e7f6       __positive                 0400f7f6 f   LIBCMT:cvt.obj
 0001:0000e838       __setdefaultprecision      0400f838 f   LIBCMT:fp8.obj
 0001:0000e85f       __initp_misc_cfltcvt_tab   0400f85f f   LIBCMT:cmiscdat.obj
 0001:0000e87e       __XcptFilter               0400f87e f   LIBCMT:winxfltr.obj
 0001:0000e9d9       ___CppXcptFilter           0400f9d9 f   LIBCMT:winxfltr.obj
 0001:0000ea2b       __get_heap_handle          0400fa2b f   LIBCMT:heapinit.obj
 0001:0000ea31       __heap_init                0400fa31 f   LIBCMT:heapinit.obj
 0001:0000ea46       __heap_term                0400fa46 f   LIBCMT:heapinit.obj
 0001:0000ea4e       __ioinit                   0400fa4e f   LIBCMT:ioinit.obj
 0001:0000ed02       __ioterm                   0400fd02 f   LIBCMT:ioinit.obj
 0001:0000ed54       __set_pgmptr               0400fd54 f i LIBCMT:stdargv.obj
 0001:0000ed61       __setargv                  0400fd61 f   LIBCMT:stdargv.obj
 0001:0000ef90       __setenvp                  0400ff90 f   LIBCMT:stdenvp.obj
 0001:0000f071       ___security_init_cookie    04010071 f   LIBCMT:gs_support.obj
 0001:0000f10d       ___crtGetEnvironmentStringsA 0401010d f   LIBCMT:a_env.obj
 0001:0000f1c7       ___crtCloseThreadpoolTimer 040101c7 f   LIBCMT:winapisupp.obj
 0001:0000f1de       ___crtCloseThreadpoolWait  040101de f   LIBCMT:winapisupp.obj
 0001:0000f1f5       ___crtCreateEventExW       040101f5 f   LIBCMT:winapisupp.obj
 0001:0000f230       ___crtCreateSemaphoreExW   04010230 f   LIBCMT:winapisupp.obj
 0001:0000f26a       ___crtCreateSymbolicLinkW  0401026a f   LIBCMT:winapisupp.obj
 0001:0000f293       ___crtCreateThreadpoolTimer 04010293 f   LIBCMT:winapisupp.obj
 0001:0000f2b4       ___crtCreateThreadpoolWait 040102b4 f   LIBCMT:winapisupp.obj
 0001:0000f2d5       ___crtFlsAlloc             040102d5 f   LIBCMT:winapisupp.obj
 0001:0000f2f3       ___crtFlsFree              040102f3 f   LIBCMT:winapisupp.obj
 0001:0000f312       ___crtFlsGetValue          04010312 f   LIBCMT:winapisupp.obj
 0001:0000f331       ___crtFlsSetValue          04010331 f   LIBCMT:winapisupp.obj
 0001:0000f353       ___crtFlushProcessWriteBuffers 04010353 f   LIBCMT:winapisupp.obj
 0001:0000f363       ___crtFreeLibraryWhenCallbackReturns 04010363 f   LIBCMT:winapisupp.obj
 0001:0000f37d       ___crtGetCurrentProcessorNumber 0401037d f   LIBCMT:winapisupp.obj
 0001:0000f38f       ___crtGetFileInformationByHandleEx 0401038f f   LIBCMT:winapisupp.obj
 0001:0000f3bb       ___crtGetLogicalProcessorInformation 040103bb f   LIBCMT:winapisupp.obj
 0001:0000f3e1       ___crtGetShowWindowMode    040103e1 f   LIBCMT:winapisupp.obj
 0001:0000f404       ___crtGetTickCount64       04010404 f   LIBCMT:winapisupp.obj
 0001:0000f41c       ___crtInitializeCriticalSectionEx 0401041c f   LIBCMT:winapisupp.obj
 0001:0000f44a       ___crtIsPackagedApp        0401044a f   LIBCMT:winapisupp.obj
 0001:0000f48a       ___crtLoadWinApiPointers   0401048a f   LIBCMT:winapisupp.obj
 0001:0000f715       ___crtSetFileInformationByHandle 04010715 f   LIBCMT:winapisupp.obj
 0001:0000f741       ___crtSetThreadStackGuarantee 04010741 f   LIBCMT:winapisupp.obj
 0001:0000f75c       ___crtSetThreadpoolTimer   0401075c f   LIBCMT:winapisupp.obj
 0001:0000f77c       ___crtSetThreadpoolWait    0401077c f   LIBCMT:winapisupp.obj
 0001:0000f799       ___crtSetUnhandledExceptionFilter 04010799 f   LIBCMT:winapisupp.obj
 0001:0000f7a7       ___crtSleep                040107a7 f   LIBCMT:winapisupp.obj
 0001:0000f7b5       ___crtTerminateProcess     040107b5 f   LIBCMT:winapisupp.obj
 0001:0000f7ca       ___crtUnhandledException   040107ca f   LIBCMT:winapisupp.obj
 0001:0000f7e0       ___crtWaitForThreadpoolTimerCallbacks 040107e0 f   LIBCMT:winapisupp.obj
 0001:0000f7fa       __RTC_Initialize           040107fa f   LIBCMT:initsect.obj
 0001:0000f81a       __RTC_Terminate            0401081a f   LIBCMT:initsect.obj
 0001:0000f83a       _strcpy_s                  0401083a f   LIBCMT:strcpy_s.obj
 0001:0000f88f       ___raise_securityfailure   0401088f f   LIBCMT:gs_report.obj
 0001:0000f8cc       ___report_gsfailure        040108cc f   LIBCMT:gs_report.obj
 0001:0000f9c7       ___report_rangecheckfailure 040109c7 f   LIBCMT:gs_report.obj
 0001:0000f9d3       ___report_securityfailure  040109d3 f   LIBCMT:gs_report.obj
 0001:0000faa3       ___report_securityfailureEx 04010aa3 f   LIBCMT:gs_report.obj
 0001:0000fbb9       ___fpecode                 04010bb9 f   LIBCMT:winsig.obj
 0001:0000fbc2       ___get_sigabrt             04010bc2 f   LIBCMT:winsig.obj
 0001:0000fbcf       ___pxcptinfoptrs           04010bcf f   LIBCMT:winsig.obj
 0001:0000fbd8       __initp_misc_winsig        04010bd8 f   LIBCMT:winsig.obj
 0001:0000fc99       _raise                     04010c99 f   LIBCMT:winsig.obj
 0001:0000fe8e       _signal                    04010e8e f   LIBCMT:winsig.obj
 0001:000100e5       _strncpy_s                 040110e5 f   LIBCMT:strncpy_s.obj
 0001:0001026d       __MallocaIsSizeInRange     0401126d f i LIBCMT:a_loc.obj
 0001:0001027e       __MarkAllocaS              0401127e f i LIBCMT:a_loc.obj
 0001:00010292       ___crtGetLocaleInfoA       04011292 f   LIBCMT:a_loc.obj
 0001:000102cc       __freea                    040112cc f i LIBCMT:a_loc.obj
 0001:000102ea       _GetTableIndexFromLcid     040112ea f   LIBCMT:winapinls.obj
 0001:0001031f       _GetTableIndexFromLocaleName 0401131f f   LIBCMT:winapinls.obj
 0001:0001036d       ___crtCompareStringEx      0401136d f   LIBCMT:winapinls.obj
 0001:000103b9       ___crtDownlevelLCIDToLocaleName 040113b9 f   LIBCMT:winapinls.obj
 0001:00010435       ___crtDownlevelLocaleNameToLCID 04011435 f   LIBCMT:winapinls.obj
 0001:00010473       ___crtEnumSystemLocalesEx  04011473 f   LIBCMT:winapinls.obj
 0001:000104b0       ___crtGetDateFormatEx      040114b0 f   LIBCMT:winapinls.obj
 0001:000104f9       ___crtGetLocaleInfoEx      040114f9 f   LIBCMT:winapinls.obj
 0001:00010528       ___crtGetTimeFormatEx      04011528 f   LIBCMT:winapinls.obj
 0001:0001055d       ___crtGetUserDefaultLocaleName 0401155d f   LIBCMT:winapinls.obj
 0001:00010588       ___crtIsValidLocaleName    04011588 f   LIBCMT:winapinls.obj
 0001:000105b3       ___crtLCMapStringEx        040115b3 f   LIBCMT:winapinls.obj
 0001:000105ff       ___wcsnicmp_ascii          040115ff f   LIBCMT:winapinls.obj
 0001:0001066d       __FF_MSGBANNER             0401166d f   LIBCMT:crt0msg.obj
 0001:000106a6       __GET_RTERRMSG             040116a6 f   LIBCMT:crt0msg.obj
 0001:000106ca       __NMSG_WRITE               040116ca f   LIBCMT:crt0msg.obj
 0001:00010887       __lock                     04011887 f   LIBCMT:mlock.obj
 0001:000108bb       __lockerr_exit             040118bb f   LIBCMT:mlock.obj
 0001:000108db       __mtdeletelocks            040118db f   LIBCMT:mlock.obj
 0001:0001092f       __mtinitlocknum            0401192f f   LIBCMT:mlock.obj
 0001:000109d8       __mtinitlocks              040119d8 f   LIBCMT:mlock.obj
 0001:00010a11       __unlock                   04011a11 f   LIBCMT:mlock.obj
 0001:00010a30       __FindPESection            04011a30 f   LIBCMT:pesect.obj
 0001:00010a80       __IsNonwritableInCurrentImage 04011a80 f   LIBCMT:pesect.obj
 0001:00010b40       __ValidateImageBase        04011b40 f   LIBCMT:pesect.obj
 0001:00010b71       __initp_misc_rand_s        04011b71 f   LIBCMT:rand_s.obj
 0001:00010b7e       _rand_s                    04011b7e f   LIBCMT:rand_s.obj
 0001:00010c84       ___initmbctable            04011c84 f   LIBCMT:mbctype.obj
 0001:00010f3b       ___updatetmbcinfo          04011f3b f   LIBCMT:mbctype.obj
 0001:00010fe1       __getmbcp                  04011fe1 f   LIBCMT:mbctype.obj
 0001:00011012       __setmbcp                  04012012 f   LIBCMT:mbctype.obj
 0001:000111ba       __setmbcp_nolock           040121ba f   LIBCMT:mbctype.obj
 0001:000113a5       __ftbuf                    040123a5 f   LIBCMT:_sftbuf.obj
 0001:000113d6       __stbuf                    040123d6 f   LIBCMT:_sftbuf.obj
 0001:0001147c       _realloc                   0401247c f   LIBCMT:realloc.obj
 0001:00011527       __recalloc                 04012527 f   LIBCMT:recalloc.obj
 0001:00011590       __calloc_impl              04012590 f   LIBCMT:calloc_impl.obj
 0001:00011610       __local_unwind4            04012610 f   LIBCMT:exsup4.obj
 0001:000116e6       __seh_longjmp_unwind4@4    040126e6 f   LIBCMT:exsup4.obj
 0001:00011702       @_EH4_CallFilterFunc@8     04012702 f   LIBCMT:exsup4.obj
 0001:00011719       @_EH4_TransferToHandler@8  04012719 f   LIBCMT:exsup4.obj
 0001:00011732       @_EH4_GlobalUnwind2@8      04012732 f   LIBCMT:exsup4.obj
 0001:0001174b       @_EH4_LocalUnwind@16       0401274b f   LIBCMT:exsup4.obj
 0001:00011762       __crt_debugger_hook        04012762 f   LIBCMT:dbghook.obj
 0001:0001176a       __filbuf                   0401276a f   LIBCMT:_filbuf.obj
 0001:0001188b       __fileno                   0401288b f   LIBCMT:fileno.obj
 0001:000118af       __ungetc_nolock            040128af f   LIBCMT:ungetc.obj
 0001:0001198f       _ungetc                    0401298f f   LIBCMT:ungetc.obj
 0001:000119ff       ___addlocaleref            040129ff f   LIBCMT:localref.obj
 0001:00011a94       ___freetlocinfo            04012a94 f   LIBCMT:localref.obj
 0001:00011bee       ___removelocaleref         04012bee f   LIBCMT:localref.obj
 0001:00011c8e       ___updatetlocinfo          04012c8e f   LIBCMT:localref.obj
 0001:00011d0e       __updatetlocinfoEx_nolock  04012d0e f   LIBCMT:localref.obj
 0001:00011d59       ___isascii                 04012d59 f i LIBCMT:_ctype.obj
 0001:00011d69       ___iscsym                  04012d69 f i LIBCMT:_ctype.obj
 0001:00011d89       ___iscsymf                 04012d89 f i LIBCMT:_ctype.obj
 0001:00011da6       ___toascii                 04012da6 f i LIBCMT:_ctype.obj
 0001:00011db1       __isalnum_l                04012db1 f i LIBCMT:_ctype.obj
 0001:00011e09       __isalpha_l                04012e09 f i LIBCMT:_ctype.obj
 0001:00011e61       __isblank_l                04012e61 f i LIBCMT:_ctype.obj
 0001:00011ebb       __iscntrl_l                04012ebb f i LIBCMT:_ctype.obj
 0001:00011f0d       __iscsym_l                 04012f0d f i LIBCMT:_ctype.obj
 0001:00011f2e       __iscsymf_l                04012f2e f i LIBCMT:_ctype.obj
 0001:00011f4f       __isdigit_l                04012f4f f i LIBCMT:_ctype.obj
 0001:00011fa1       __isgraph_l                04012fa1 f i LIBCMT:_ctype.obj
 0001:00011ff9       __islower_l                04012ff9 f i LIBCMT:_ctype.obj
 0001:0001204b       __isprint_l                0401304b f i LIBCMT:_ctype.obj
 0001:000120a3       __ispunct_l                040130a3 f i LIBCMT:_ctype.obj
 0001:000120f5       __isspace_l                040130f5 f i LIBCMT:_ctype.obj
 0001:00012147       __isupper_l                04013147 f i LIBCMT:_ctype.obj
 0001:00012199       __isxdigit_l               04013199 f i LIBCMT:_ctype.obj
 0001:000121f1       _isalnum                   040131f1 f i LIBCMT:_ctype.obj
 0001:0001221e       _isalpha                   0401321e f i LIBCMT:_ctype.obj
 0001:0001224b       _isblank                   0401324b f i LIBCMT:_ctype.obj
 0001:00012280       _iscntrl                   04013280 f i LIBCMT:_ctype.obj
 0001:000122ab       _isdigit                   040132ab f i LIBCMT:_ctype.obj
 0001:000122d6       _isgraph                   040132d6 f i LIBCMT:_ctype.obj
 0001:00012303       _islower                   04013303 f i LIBCMT:_ctype.obj
 0001:0001232e       _isprint                   0401332e f i LIBCMT:_ctype.obj
 0001:0001235b       _ispunct                   0401335b f i LIBCMT:_ctype.obj
 0001:00012386       _isspace                   04013386 f i LIBCMT:_ctype.obj
 0001:000123b1       _isupper                   040133b1 f i LIBCMT:_ctype.obj
 0001:000123dc       _isxdigit                  040133dc f i LIBCMT:_ctype.obj
 0001:00012409       ___iswcsym                 04013409 f i LIBCMT:_wctype.obj
 0001:0001242d       ___iswcsymf                0401342d f i LIBCMT:_wctype.obj
 0001:00012451       __isleadbyte_l             04013451 f i LIBCMT:_wctype.obj
 0001:0001248b       __iswalnum_l               0401348b f i LIBCMT:_wctype.obj
 0001:0001249f       __iswalpha_l               0401349f f i LIBCMT:_wctype.obj
 0001:000124b3       __iswblank_l               040134b3 f i LIBCMT:_wctype.obj
 0001:000124ce       __iswcntrl_l               040134ce f i LIBCMT:_wctype.obj
 0001:000124df       __iswcsym_l                040134df f i LIBCMT:_wctype.obj
 0001:00012503       __iswcsymf_l               04013503 f i LIBCMT:_wctype.obj
 0001:00012527       __iswdigit_l               04013527 f i LIBCMT:_wctype.obj
 0001:00012538       __iswgraph_l               04013538 f i LIBCMT:_wctype.obj
 0001:0001254c       __iswlower_l               0401354c f i LIBCMT:_wctype.obj
 0001:0001255d       __iswprint_l               0401355d f i LIBCMT:_wctype.obj
 0001:00012571       __iswpunct_l               04013571 f i LIBCMT:_wctype.obj
 0001:00012582       __iswspace_l               04013582 f i LIBCMT:_wctype.obj
 0001:00012593       __iswupper_l               04013593 f i LIBCMT:_wctype.obj
 0001:000125a4       __iswxdigit_l              040135a4 f i LIBCMT:_wctype.obj
 0001:000125b8       _isleadbyte                040135b8 f i LIBCMT:_wctype.obj
 0001:000125c9       _iswalnum                  040135c9 f i LIBCMT:_wctype.obj
 0001:000125dd       _iswalpha                  040135dd f i LIBCMT:_wctype.obj
 0001:000125f1       _iswascii                  040135f1 f i LIBCMT:_wctype.obj
 0001:00012603       _iswblank                  04013603 f i LIBCMT:_wctype.obj
 0001:0001261e       _iswcntrl                  0401361e f i LIBCMT:_wctype.obj
 0001:0001262f       _iswdigit                  0401362f f i LIBCMT:_wctype.obj
 0001:00012640       _iswgraph                  04013640 f i LIBCMT:_wctype.obj
 0001:00012654       _iswlower                  04013654 f i LIBCMT:_wctype.obj
 0001:00012665       _iswprint                  04013665 f i LIBCMT:_wctype.obj
 0001:00012679       _iswpunct                  04013679 f i LIBCMT:_wctype.obj
 0001:0001268a       _iswspace                  0401368a f i LIBCMT:_wctype.obj
 0001:0001269b       _iswupper                  0401369b f i LIBCMT:_wctype.obj
 0001:000126ac       _iswxdigit                 040136ac f i LIBCMT:_wctype.obj
 0001:000126c0       __mbtowc_l                 040136c0 f   LIBCMT:mbtowc.obj
 0001:000127b5       _mbtowc                    040137b5 f   LIBCMT:mbtowc.obj
 0001:000127d0       __allmul                   040137d0 f   LIBCMT:llmul.obj
 0001:00012804       ___initstdio               04013804 f   LIBCMT:_file.obj
 0001:00012877       ___endstdio                04013877 f   LIBCMT:_file.obj
 0001:0001289e       ___iob_func                0401389e f   LIBCMT:_file.obj
 0001:000128a4       __lock_file                040138a4 f   LIBCMT:_file.obj
 0001:000128e3       __lock_file2               040138e3 f   LIBCMT:_file.obj
 0001:00012913       __unlock_file              04013913 f   LIBCMT:_file.obj
 0001:0001294d       __unlock_file2             0401394d f   LIBCMT:_file.obj
 0001:0001297a       __isatty                   0401397a f   LIBCMT:isatty.obj
 0001:000129ce       __write                    040139ce f   LIBCMT:write.obj
 0001:00012abd       __write_nolock             04013abd f   LIBCMT:write.obj
 0001:00013322       __lseeki64                 04014322 f   LIBCMT:lseeki64.obj
 0001:0001341e       __lseeki64_nolock          0401441e f   LIBCMT:lseeki64.obj
 0001:00013491       __getbuf                   04014491 f   LIBCMT:_getbuf.obj
 0001:000134d7       __output_p_l               040144d7 f   LIBCMT:outputp.obj
 0001:0001480f       __validate_param_reuseA    0401580f f   LIBCMT:outputp.obj
 0001:00014945       _get_crtdouble_arg         04015945 f i LIBCMT:outputp.obj
 0001:00014a44       __output_s_l               04015a44 f   LIBCMT:outputs.obj
 0001:000156cc       __get_printf_count_output  040166cc f   LIBCMT:printf.obj
 0001:000156e1       __printf_l                 040166e1 f   LIBCMT:printf.obj
 0001:000156f8       __printf_p                 040166f8 f   LIBCMT:printf.obj
 0001:0001570e       __printf_p_l               0401670e f   LIBCMT:printf.obj
 0001:00015725       __printf_s_l               04016725 f   LIBCMT:printf.obj
 0001:0001573c       __set_printf_count_output  0401673c f   LIBCMT:printf.obj
 0001:00015764       _printf                    04016764 f   LIBCMT:printf.obj
 0001:00015813       _printf_s                  04016813 f   LIBCMT:printf.obj
 0001:00015829       __wctomb_l                 04016829 f   LIBCMT:wctomb.obj
 0001:00015878       __wctomb_s_l               04016878 f   LIBCMT:wctomb.obj
 0001:0001599c       _wctomb                    0401699c f   LIBCMT:wctomb.obj
 0001:000159cf       _wctomb_s                  040169cf f   LIBCMT:wctomb.obj
 0001:000159f0       __aulldvrm                 040169f0 f   LIBCMT:ulldvrm.obj
 0001:00015a85       __strtod_l                 04016a85 f   LIBCMT:strtod.obj
 0001:00015b9c       _strtod                    04016b9c f   LIBCMT:strtod.obj
 0001:00015bb1       __isctype                  04016bb1 f   LIBCMT:isctype.obj
 0001:00015be0       __isctype_l                04016be0 f   LIBCMT:isctype.obj
 0001:00015c91       ___crt_atoflt_l            04016c91 f   LIBCMT:atodbl.obj
 0001:00015d35       __atodbl                   04016d35 f   LIBCMT:atodbl.obj
 0001:00015d4a       __atodbl_l                 04016d4a f   LIBCMT:atodbl.obj
 0001:00015dd8       __atoflt                   04016dd8 f   LIBCMT:atodbl.obj
 0001:00015ded       __atoflt_l                 04016ded f   LIBCMT:atodbl.obj
 0001:00015e05       __atoldbl                  04016e05 f   LIBCMT:atodbl.obj
 0001:00015e1a       __atoldbl_l                04016e1a f   LIBCMT:atodbl.obj
 0001:00015ea9       ___init_dummy              04016ea9 f   LIBCMT:wsetloca.obj
 0001:00015eac       __locterm                  04016eac f   LIBCMT:wsetloca.obj
 0001:00015efe       ____setlc_active_func      04016efe f   LIBCMT:wsetloca.obj
 0001:00015f04       ____unguarded_readlc_active_add_func 04016f04 f   LIBCMT:wsetloca.obj
 0001:00015f0a       ___copy_locale_name        04016f0a f   LIBCMT:wsetloca.obj
 0001:00015f6e       ___create_locale           04016f6e f   LIBCMT:wsetloca.obj
 0001:00015f77       ___free_locale             04016f77 f   LIBCMT:wsetloca.obj
 0001:00015f7c       ___get_current_locale      04016f7c f   LIBCMT:wsetloca.obj
 0001:00015f81       ___lc_lctowcs              04016f81 f   LIBCMT:wsetloca.obj
 0001:00015fef       ___lc_wcstolc              04016fef f   LIBCMT:wsetloca.obj
 0001:0001611b       __configthreadlocale       0401711b f   LIBCMT:wsetloca.obj
 0001:000161a1       __create_locale            040171a1 f   LIBCMT:wsetloca.obj
 0001:00016203       __expandlocale             04017203 f   LIBCMT:wsetloca.obj
 0001:000164fa       __free_locale              040174fa f   LIBCMT:wsetloca.obj
 0001:000165b1       __get_current_locale       040175b1 f   LIBCMT:wsetloca.obj
 0001:00016660       __wcreate_locale           04017660 f   LIBCMT:wsetloca.obj
 0001:00016737       __wcscats                  04017737 f   LIBCMT:wsetloca.obj
 0001:00016776       __wsetlocale               04017776 f   LIBCMT:wsetloca.obj
 0001:000170c0       __trandisp1                040180c0 f   LIBCMT:87disp.obj
 0001:00017127       __trandisp2                04018127 f   LIBCMT:87disp.obj
 0001:000171b3       __rttospopde               040181b3     LIBCMT:87disp.obj
 0001:000171b8       __rttospop                 040181b8     LIBCMT:87disp.obj
 0001:000171ba       __rtnospop                 040181ba     LIBCMT:87disp.obj
 0001:000171bc       __rttosnpop                040181bc     LIBCMT:87disp.obj
 0001:000171bd       __rtnospopde               040181bd     LIBCMT:87disp.obj
 0001:000171c4       __rtzeropop                040181c4     LIBCMT:87disp.obj
 0001:000171c6       __rtzeronpop               040181c6     LIBCMT:87disp.obj
 0001:000171cb       __rtonepop                 040181cb     LIBCMT:87disp.obj
 0001:000171cd       __rtonenpop                040181cd     LIBCMT:87disp.obj
 0001:000171d2       __tosnan1                  040181d2     LIBCMT:87disp.obj
 0001:000171fd       __nosnan2                  040181fd     LIBCMT:87disp.obj
 0001:000171ff       __tosnan2                  040181ff     LIBCMT:87disp.obj
 0001:00017227       __nan2                     04018227     LIBCMT:87disp.obj
 0001:00017266       __rtindfpop                04018266     LIBCMT:87disp.obj
 0001:00017268       __rtindfnpop               04018268     LIBCMT:87disp.obj
 0001:00017279       __rttosnpopde              04018279     LIBCMT:87disp.obj
 0001:00017283       __rtchsifneg               04018283     LIBCMT:87disp.obj
 0001:00017290       __startTwoArgErrorHandling 04018290 f   LIBCMT:genexcep.obj
 0001:000172a7       __startOneArgErrorHandling 040182a7 f   LIBCMT:genexcep.obj
 0001:000172f0       __twoToTOS                 040182f0 f   LIBCMT:common.obj
 0001:00017305       __load_CW                  04018305 f   LIBCMT:common.obj
 0001:0001731c       __convertTOStoQNaN         0401831c f   LIBCMT:common.obj
 0001:00017335       __fload_withFB             04018335 f   LIBCMT:common.obj
 0001:00017378       __checkTOS_withFB          04018378 f   LIBCMT:common.obj
 0001:0001738e       __fast_exit                0401838e f   LIBCMT:common.obj
 0001:0001739b       __math_exit                0401839b f   LIBCMT:common.obj
 0001:000173c5       __check_overflow_exit      040183c5 f   LIBCMT:common.obj
 0001:000173d9       __check_range_exit         040183d9 f   LIBCMT:common.obj
 0001:0001747c       __matherr                  0401847c f   LIBCMT:matherr.obj
 0001:00017480       __global_unwind2           04018480 f   LIBCMT:exsup.obj
 0001:000174e5       __local_unwind2            040184e5 f   LIBCMT:exsup.obj
 0001:00017569       __abnormal_termination     04018569 f   LIBCMT:exsup.obj
 0001:0001758c       __NLG_Notify1              0401858c f   LIBCMT:exsup.obj
 0001:00017595       __NLG_Notify               04018595 f   LIBCMT:exsup.obj
 0001:000175ac       __NLG_Dispatch2            040185ac     LIBCMT:exsup.obj
 0001:000175ac       __NLG_Dispatch             040185ac     LIBCMT:exsup.obj
 0001:000175b4       __NLG_Call                 040185b4 f   LIBCMT:exsup.obj
 0001:000175b6       __NLG_Return2              040185b6     LIBCMT:exsup.obj
 0001:000175b7       ?_ValidateExecute@@YAHP6GHXZ@Z 040185b7 f   LIBCMT:validate.obj
 0001:000175c6       ?_ValidateRead@@YAHPBXI@Z  040185c6 f   LIBCMT:validate.obj
 0001:000175d5       ?_ValidateWrite@@YAHPAXI@Z 040185d5 f   LIBCMT:validate.obj
 0001:000175e4       ??0Block@_HeapManager@@QAE@XZ 040185e4 f i LIBCMT:undname.obj
 0001:000175ea       ??0DName@@QAE@AAPBDD@Z     040185ea f   LIBCMT:undname.obj
 0001:000176a3       ??0DName@@QAE@ABV0@@Z      040186a3 f i LIBCMT:undname.obj
 0001:000176b9       ??0DName@@QAE@D@Z          040186b9 f   LIBCMT:undname.obj
 0001:000176e5       ??0DName@@QAE@PAV0@@Z      040186e5 f   LIBCMT:undname.obj
 0001:00017732       ??0DName@@QAE@PBD@Z        04018732 f   LIBCMT:undname.obj
 0001:0001776c       ??0DName@@QAE@W4DNameStatus@@@Z 0401876c f   LIBCMT:undname.obj
 0001:000177af       ??0DName@@QAE@XZ           040187af f i LIBCMT:undname.obj
 0001:000177c0       ??0DName@@QAE@_J@Z         040187c0 f   LIBCMT:undname.obj
 0001:00017853       ??0DName@@QAE@_K@Z         04018853 f   LIBCMT:undname.obj
 0001:000178c0       ??0DNameNode@@IAE@XZ       040188c0 f   LIBCMT:undname.obj
 0001:000178c9       ??0DNameStatusNode@@AAE@W4DNameStatus@@@Z 040188c9 f   LIBCMT:undname.obj
 0001:000178ec       ??0Replicator@@QAE@XZ      040188ec f i LIBCMT:undname.obj
 0001:000178f2       ??0UnDecorator@@QAE@PADPBDHP6APADJ@ZK@Z 040188f2 f i LIBCMT:undname.obj
 0001:0001795b       ??0charNode@@QAE@D@Z       0401895b f   LIBCMT:undname.obj
 0001:00017970       ??0pDNameNode@@QAE@PAVDName@@@Z 04018970 f   LIBCMT:undname.obj
 0001:00017998       ??0pairNode@@QAE@PAVDNameNode@@0@Z 04018998 f   LIBCMT:undname.obj
 0001:000179b7       ??0pcharNode@@QAE@PBDH@Z   040189b7 f   LIBCMT:undname.obj
 0001:00017a0e       ??2@YAPAXIAAV_HeapManager@@H@Z 04018a0e f i LIBCMT:undname.obj
 0001:00017a23       ??4DName@@QAEAAV0@ABV0@@Z  04018a23 f   LIBCMT:undname.obj
 0001:00017a39       ??4DName@@QAEAAV0@D@Z      04018a39 f i LIBCMT:undname.obj
 0001:00017a65       ??4DName@@QAEAAV0@PAV0@@Z  04018a65 f   LIBCMT:undname.obj
 0001:00017aae       ??4DName@@QAEAAV0@PBD@Z    04018aae f   LIBCMT:undname.obj
 0001:00017ae0       ??4DName@@QAEAAV0@W4DNameStatus@@@Z 04018ae0 f   LIBCMT:undname.obj
 0001:00017b15       ??AReplicator@@QBE?AVDName@@H@Z 04018b15 f   LIBCMT:undname.obj
 0001:00017b51       ??BUnDecorator@@QAEPADXZ   04018b51 f i LIBCMT:undname.obj
 0001:00017cd0       ??H@YA?AVDName@@DABV0@@Z   04018cd0 f i LIBCMT:undname.obj
 0001:00017cf4       ??H@YA?AVDName@@PBDABV0@@Z 04018cf4 f i LIBCMT:undname.obj
 0001:00017d18       ??H@YA?AVDName@@W4DNameStatus@@ABV0@@Z 04018d18 f i LIBCMT:undname.obj
 0001:00017d3c       ??HDName@@QBE?AV0@ABV0@@Z  04018d3c f   LIBCMT:undname.obj
 0001:00017d5e       ??HDName@@QBE?AV0@D@Z      04018d5e f   LIBCMT:undname.obj
 0001:00017d80       ??HDName@@QBE?AV0@PAV0@@Z  04018d80 f   LIBCMT:undname.obj
 0001:00017da2       ??HDName@@QBE?AV0@PBD@Z    04018da2 f   LIBCMT:undname.obj
 0001:00017dc4       ??HDName@@QBE?AV0@W4DNameStatus@@@Z 04018dc4 f   LIBCMT:undname.obj
 0001:00017de6       ??YDName@@QAEAAV0@ABV0@@Z  04018de6 f   LIBCMT:undname.obj
 0001:00017e29       ??YDName@@QAEAAV0@D@Z      04018e29 f   LIBCMT:undname.obj
 0001:00017e79       ??YDName@@QAEAAV0@PAV0@@Z  04018e79 f   LIBCMT:undname.obj
 0001:00017ede       ??YDName@@QAEAAV0@PBD@Z    04018ede f   LIBCMT:undname.obj
 0001:00017f3f       ??YDName@@QAEAAV0@W4DNameStatus@@@Z 04018f3f f   LIBCMT:undname.obj
 0001:00017f7f       ??YReplicator@@QAEAAV0@ABVDName@@@Z 04018f7f f   LIBCMT:undname.obj
 0001:00017fc9       ??_5DName@@QAEAAV0@ABV0@@Z 04018fc9 f   LIBCMT:undname.obj
 0001:00017fe5       ?Constructor@_HeapManager@@QAEXP6APAXI@ZP6AXPAX@Z@Z 04018fe5 f i LIBCMT:undname.obj
 0001:00018002       ?Destructor@_HeapManager@@QAEXXZ 04019002 f i LIBCMT:undname.obj
 0001:00018028       ?UScore@UnDecorator@@SAPBDW4Tokens@@@Z 04019028 f   LIBCMT:undname.obj
 0001:00018045       ?append@DName@@AAEXPAVDNameNode@@@Z 04019045 f   LIBCMT:undname.obj
 0001:0001808b       ?composeDeclaration@UnDecorator@@CA?AVDName@@ABV2@@Z 0401908b f i LIBCMT:undname.obj
 0001:00018dc1       ?doAccessSpecifiers@UnDecorator@@SAHXZ 04019dc1 f i LIBCMT:undname.obj
 0001:00018dcf       ?doAllocationLanguage@UnDecorator@@SAHXZ 04019dcf f i LIBCMT:undname.obj
 0001:00018ddd       ?doAllocationModel@UnDecorator@@SAHXZ 04019ddd f i LIBCMT:undname.obj
 0001:00018deb       ?doEcsu@UnDecorator@@SAHXZ 04019deb f i LIBCMT:undname.obj
 0001:00018df9       ?doEllipsis@UnDecorator@@SAHXZ 04019df9 f i LIBCMT:undname.obj
 0001:00018e07       ?doFunctionReturns@UnDecorator@@SAHXZ 04019e07 f i LIBCMT:undname.obj
 0001:00018e15       ?doMSKeywords@UnDecorator@@SAHXZ 04019e15 f i LIBCMT:undname.obj
 0001:00018e22       ?doMemberTypes@UnDecorator@@SAHXZ 04019e22 f i LIBCMT:undname.obj
 0001:00018e30       ?doNameOnly@UnDecorator@@SAHXZ 04019e30 f i LIBCMT:undname.obj
 0001:00018e3b       ?doNoIdentCharCheck@UnDecorator@@SAHXZ 04019e3b f i LIBCMT:undname.obj
 0001:00018e46       ?doPchar@DName@@AAEXPBDH@Z 04019e46 f   LIBCMT:undname.obj
 0001:00018ece       ?doPtr64@UnDecorator@@SAHXZ 04019ece f i LIBCMT:undname.obj
 0001:00018edc       ?doRestrictionSpec@UnDecorator@@SAHXZ 04019edc f i LIBCMT:undname.obj
 0001:00018eea       ?doThisTypes@UnDecorator@@SAHXZ 04019eea f i LIBCMT:undname.obj
 0001:00018efc       ?doThrowTypes@UnDecorator@@SAHXZ 04019efc f i LIBCMT:undname.obj
 0001:00018f0a       ?doTypeOnly@UnDecorator@@SAHXZ 04019f0a f i LIBCMT:undname.obj
 0001:00018f15       ?doUnderScore@UnDecorator@@SAHXZ 04019f15 f i LIBCMT:undname.obj
 0001:00018f20       ?getArgumentList@UnDecorator@@CA?AVDName@@XZ 04019f20 f   LIBCMT:undname.obj
 0001:0001902c       ?getArgumentTypes@UnDecorator@@CA?AVDName@@XZ 0401a02c f   LIBCMT:undname.obj
 0001:0001910a       ?getArrayType@UnDecorator@@CA?AVDName@@ABV2@@Z 0401a10a f i LIBCMT:undname.obj
 0001:0001930c       ?getBasedType@UnDecorator@@CA?AVDName@@XZ 0401a30c f   LIBCMT:undname.obj
 0001:000193a3       ?getBasicDataType@UnDecorator@@CA?AVDName@@ABV2@@Z 0401a3a3 f   LIBCMT:undname.obj
 0001:0001977a       ?getCallIndex@UnDecorator@@CA?AVDName@@XZ 0401a77a f i LIBCMT:undname.obj
 0001:0001978e       ?getCallingConvention@UnDecorator@@CA?AVDName@@XZ 0401a78e f   LIBCMT:undname.obj
 0001:0001984d       ?getDataIndirectType@UnDecorator@@CA?AVDName@@ABV2@PBD0H@Z 0401a84d f   LIBCMT:undname.obj
 0001:00019dea       ?getDataIndirectType@UnDecorator@@CA?AVDName@@XZ 0401adea f i LIBCMT:undname.obj
 0001:00019e23       ?getDataType@UnDecorator@@CA?AVDName@@PAV2@@Z 0401ae23 f   LIBCMT:undname.obj
 0001:00019ef5       ?getDecoratedName@UnDecorator@@CA?AVDName@@XZ 0401aef5 f   LIBCMT:undname.obj
 0001:0001a141       ?getDimension@UnDecorator@@CA?AVDName@@_N@Z 0401b141 f   LIBCMT:undname.obj
 0001:0001a278       ?getDispatchTarget@UnDecorator@@CA?AVDName@@XZ 0401b278 f   LIBCMT:undname.obj
 0001:0001a2d3       ?getDisplacement@UnDecorator@@CA?AVDName@@XZ 0401b2d3 f i LIBCMT:undname.obj
 0001:0001a2e7       ?getECSUDataType@UnDecorator@@CA?AVDName@@XZ 0401b2e7 f   LIBCMT:undname.obj
 0001:0001a3fa       ?getECSUName@UnDecorator@@CA?AVDName@@XZ 0401b3fa f i LIBCMT:undname.obj
 0001:0001a40b       ?getEnumType@UnDecorator@@CA?AVDName@@XZ 0401b40b f i LIBCMT:undname.obj
 0001:0001a4ef       ?getExtendedDataIndirectType@UnDecorator@@CA?AVDName@@AAPBDAA_NH@Z 0401b4ef f   LIBCMT:undname.obj
 0001:0001a694       ?getExternalDataType@UnDecorator@@CA?AVDName@@ABV2@@Z 0401b694 f i LIBCMT:undname.obj
 0001:0001a70d       ?getFunctionIndirectType@UnDecorator@@CA?AVDName@@ABV2@@Z 0401b70d f   LIBCMT:undname.obj
 0001:0001ab03       ?getGuardNumber@UnDecorator@@CA?AVDName@@XZ 0401bb03 f i LIBCMT:undname.obj
 0001:0001ab17       ?getLastChar@DName@@QBEDXZ 0401bb17 f i LIBCMT:undname.obj
 0001:0001ab25       ?getLastChar@DNameStatusNode@@UBEDXZ 0401bb25 f i LIBCMT:undname.obj
 0001:0001ab31       ?getLastChar@charNode@@UBEDXZ 0401bb31 f i LIBCMT:undname.obj
 0001:0001ab35       ?getLastChar@pDNameNode@@UBEDXZ 0401bb35 f i LIBCMT:undname.obj
 0001:0001ab4a       ?getLastChar@pairNode@@UBEDXZ 0401bb4a f i LIBCMT:undname.obj
 0001:0001ab64       ?getLastChar@pcharNode@@UBEDXZ 0401bb64 f i LIBCMT:undname.obj
 0001:0001ab76       ?getLexicalFrame@UnDecorator@@CA?AVDName@@XZ 0401bb76 f i LIBCMT:undname.obj
 0001:0001abb3       ?getMemory@_HeapManager@@QAEPAXIH@Z 0401bbb3 f   LIBCMT:undname.obj
 0001:0001ac38       ?getNumberOfDimensions@UnDecorator@@CAHXZ 0401bc38 f   LIBCMT:undname.obj
 0001:0001ac99       ?getOperatorName@UnDecorator@@CA?AVDName@@_NPA_N@Z 0401bc99 f i LIBCMT:undname.obj
 0001:0001b273       ?getPointerType@UnDecorator@@CA?AVDName@@ABV2@0@Z 0401c273 f i LIBCMT:undname.obj
 0001:0001b291       ?getPointerTypeArray@UnDecorator@@CA?AVDName@@ABV2@0@Z 0401c291 f i LIBCMT:undname.obj
 0001:0001b2af       ?getPrimaryDataType@UnDecorator@@CA?AVDName@@ABV2@@Z 0401c2af f   LIBCMT:undname.obj
 0001:0001b467       ?getPtrRefDataType@UnDecorator@@CA?AVDName@@ABV2@H@Z 0401c467 f i LIBCMT:undname.obj
 0001:0001b551       ?getPtrRefType@UnDecorator@@CA?AVDName@@ABV2@0PBD@Z 0401c551 f   LIBCMT:undname.obj
 0001:0001b64d       ?getReferenceType@UnDecorator@@CA?AVDName@@ABV2@0PBD@Z 0401c64d f i LIBCMT:undname.obj
 0001:0001b669       ?getRestrictionSpec@UnDecorator@@CA?AVDName@@XZ 0401c669 f   LIBCMT:undname.obj
 0001:0001b757       ?getReturnType@UnDecorator@@CA?AVDName@@PAV2@@Z 0401c757 f   LIBCMT:undname.obj
 0001:0001b786       ?getScope@UnDecorator@@CA?AVDName@@XZ 0401c786 f   LIBCMT:undname.obj
 0001:0001bb5d       ?getScopedName@UnDecorator@@CA?AVDName@@XZ 0401cb5d f   LIBCMT:undname.obj
 0001:0001bc58       ?getSignedDimension@UnDecorator@@CA?AVDName@@XZ 0401cc58 f   LIBCMT:undname.obj
 0001:0001bcab       ?getStorageConvention@UnDecorator@@CA?AVDName@@XZ 0401ccab f i LIBCMT:undname.obj
 0001:0001bcbc       ?getString@DName@@QBEPADPAD0@Z 0401ccbc f i LIBCMT:undname.obj
 0001:0001bcd2       ?getString@DName@@QBEPADPADH@Z 0401ccd2 f i LIBCMT:undname.obj
 0001:0001bd30       ?getString@DNameStatusNode@@UBEPADPAD0@Z 0401cd30 f i LIBCMT:undname.obj
 0001:0001bd57       ?getString@charNode@@UBEPADPAD0@Z 0401cd57 f i LIBCMT:undname.obj
 0001:0001bd6c       ?getString@pDNameNode@@UBEPADPAD0@Z 0401cd6c f i LIBCMT:undname.obj
 0001:0001bd89       ?getString@pairNode@@UBEPADPAD0@Z 0401cd89 f i LIBCMT:undname.obj
 0001:0001bdb3       ?getString@pcharNode@@UBEPADPAD0@Z 0401cdb3 f i LIBCMT:undname.obj
 0001:0001bdce       ?getStringEncoding@UnDecorator@@CA?AVDName@@PADH@Z 0401cdce f   LIBCMT:undname.obj
 0001:0001be71       ?getStringHelper@@YAPADPAD00H@Z 0401ce71 f i LIBCMT:undname.obj
 0001:0001bea6       ?getSymbolName@UnDecorator@@CA?AVDName@@XZ 0401cea6 f i LIBCMT:undname.obj
 0001:0001beee       ?getTemplateArgumentList@UnDecorator@@CA?AVDName@@XZ 0401ceee f   LIBCMT:undname.obj
 0001:0001c167       ?getTemplateConstant@UnDecorator@@CA?AVDName@@XZ 0401d167 f   LIBCMT:undname.obj
 0001:0001c467       ?getTemplateName@UnDecorator@@CA?AVDName@@_N@Z 0401d467 f   LIBCMT:undname.obj
 0001:0001c5c1       ?getThisType@UnDecorator@@CA?AVDName@@XZ 0401d5c1 f i LIBCMT:undname.obj
 0001:0001c5fb       ?getThrowTypes@UnDecorator@@CA?AVDName@@XZ 0401d5fb f   LIBCMT:undname.obj
 0001:0001c685       ?getTypeEncoding@UnDecorator@@CAHXZ 0401d685 f i LIBCMT:undname.obj
 0001:0001cb75       ?getVCallThunkType@UnDecorator@@CA?AVDName@@XZ 0401db75 f i LIBCMT:undname.obj
 0001:0001cbb0       ?getVbTableType@UnDecorator@@CA?AVDName@@ABV2@@Z 0401dbb0 f i LIBCMT:undname.obj
 0001:0001cbc5       ?getVdispMapType@UnDecorator@@CA?AVDName@@ABV2@@Z 0401dbc5 f i LIBCMT:undname.obj
 0001:0001cc1b       ?getVfTableType@UnDecorator@@CA?AVDName@@ABV2@@Z 0401dc1b f i LIBCMT:undname.obj
 0001:0001cd80       ?getZName@UnDecorator@@CA?AVDName@@_N0@Z 0401dd80 f   LIBCMT:undname.obj
 0001:0001cfaa       ?haveTemplateParameters@UnDecorator@@SAHXZ 0401dfaa f i LIBCMT:undname.obj
 0001:0001cfb5       ?isArray@DName@@QBEHXZ     0401dfb5 f i LIBCMT:undname.obj
 0001:0001cfbf       ?isComArray@DName@@QBEHXZ  0401dfbf f i LIBCMT:undname.obj
 0001:0001cfc9       ?isEmpty@DName@@QBEHXZ     0401dfc9 f i LIBCMT:undname.obj
 0001:0001cfd1       ?isFull@Replicator@@QBEHXZ 0401dfd1 f i LIBCMT:undname.obj
 0001:0001cfda       ?isNoTE@DName@@QBEHXZ      0401dfda f i LIBCMT:undname.obj
 0001:0001cfe4       ?isPinPtr@DName@@QBEHXZ    0401dfe4 f i LIBCMT:undname.obj
 0001:0001cfee       ?isPtrRef@DName@@QBEHXZ    0401dfee f i LIBCMT:undname.obj
 0001:0001cff8       ?isUDC@DName@@QBEHXZ       0401dff8 f i LIBCMT:undname.obj
 0001:0001d009       ?isUDTThunk@DName@@QBEHXZ  0401e009 f i LIBCMT:undname.obj
 0001:0001d01a       ?isVCallThunk@DName@@QBEHXZ 0401e01a f i LIBCMT:undname.obj
 0001:0001d024       ?isValid@DName@@QBEHXZ     0401e024 f i LIBCMT:undname.obj
 0001:0001d02e       ?length@DName@@QBEHXZ      0401e02e f i LIBCMT:undname.obj
 0001:0001d03b       ?length@DNameStatusNode@@UBEHXZ 0401e03b f i LIBCMT:undname.obj
 0001:0001d03f       ?length@charNode@@UBEHXZ   0401e03f f i LIBCMT:undname.obj
 0001:0001d043       ?length@pDNameNode@@UBEHXZ 0401e043 f i LIBCMT:undname.obj
 0001:0001d057       ?length@pairNode@@UBEHXZ   0401e057 f i LIBCMT:undname.obj
 0001:0001d080       ?length@pcharNode@@UBEHXZ  0401e080 f i LIBCMT:undname.obj
 0001:0001d084       ?make@DNameStatusNode@@SAPAV1@W4DNameStatus@@@Z 0401e084 f i LIBCMT:undname.obj
 0001:0001d10a       ?setIsArray@DName@@QAEXXZ  0401e10a f i LIBCMT:undname.obj
 0001:0001d112       ?setIsComArray@DName@@QAEXXZ 0401e112 f i LIBCMT:undname.obj
 0001:0001d11a       ?setIsNoTE@DName@@QAEXXZ   0401e11a f i LIBCMT:undname.obj
 0001:0001d122       ?setIsPinPtr@DName@@QAEXXZ 0401e122 f i LIBCMT:undname.obj
 0001:0001d12a       ?setIsUDC@DName@@QAEXXZ    0401e12a f i LIBCMT:undname.obj
 0001:0001d137       ?setIsVCallThunk@DName@@QAEXXZ 0401e137 f i LIBCMT:undname.obj
 0001:0001d13f       ?setPtrRef@DName@@QAEAAV1@XZ 0401e13f f i LIBCMT:undname.obj
 0001:0001d149       ?status@DName@@QBE?AW4DNameStatus@@XZ 0401e149 f i LIBCMT:undname.obj
 0001:0001d1b1       ___unDName                 0401e1b1 f   LIBCMT:undname.obj
 0001:0001d254       ___unDNameEx               0401e254 f   LIBCMT:undname.obj
 0001:0001d2f5       __tolower                  0401e2f5 f   LIBCMT:tolower.obj
 0001:0001d300       __tolower_l                0401e300 f   LIBCMT:tolower.obj
 0001:0001d443       _tolower                   0401e443 f   LIBCMT:tolower.obj
 0001:0001d470       _strrchr                   0401e470 f   LIBCMT:strrchr.obj
 0001:0001d5a7       __fptostr                  0401e5a7 f   LIBCMT:_fptostr.obj
 0001:0001d657       ___dtold                   0401e657 f   LIBCMT:cfout.obj
 0001:0001d71f       __fltout2                  0401e71f f   LIBCMT:cfout.obj
 0001:0001d7b0       __alldvrm                  0401e7b0 f   LIBCMT:lldvrm.obj
 0001:0001d890       __aullshr                  0401e890 f   LIBCMT:ullshr.obj
 0001:0001d8af       __get_output_format        0401e8af f   LIBCMT:outputformat.obj
 0001:0001d8b5       __set_output_format        0401e8b5 f   LIBCMT:outputformat.obj
 0001:0001d8e7       __controlfp_s              0401e8e7 f   LIBCMT:contrlfp.obj
 0001:0001d944       __fptrap                   0401e944 f   LIBCMT:crt0fp.obj
 0001:0001d9a7       __ismbbalnum               0401e9a7 f   LIBCMT:ismbbyte.obj
 0001:0001d9c0       __ismbbalnum_l             0401e9c0 f   LIBCMT:ismbbyte.obj
 0001:0001d9da       __ismbbalpha               0401e9da f   LIBCMT:ismbbyte.obj
 0001:0001d9f3       __ismbbalpha_l             0401e9f3 f   LIBCMT:ismbbyte.obj
 0001:0001da0d       __ismbbblank               0401ea0d f   LIBCMT:ismbbyte.obj
 0001:0001da2e       __ismbbblank_l             0401ea2e f   LIBCMT:ismbbyte.obj
 0001:0001da50       __ismbbgraph               0401ea50 f   LIBCMT:ismbbyte.obj
 0001:0001da69       __ismbbgraph_l             0401ea69 f   LIBCMT:ismbbyte.obj
 0001:0001da83       __ismbbkalnum              0401ea83 f   LIBCMT:ismbbyte.obj
 0001:0001da99       __ismbbkalnum_l            0401ea99 f   LIBCMT:ismbbyte.obj
 0001:0001dab0       __ismbbkana                0401eab0 f   LIBCMT:ismbbyte.obj
 0001:0001dac1       __ismbbkana_l              0401eac1 f   LIBCMT:ismbbyte.obj
 0001:0001db0d       __ismbbkprint              0401eb0d f   LIBCMT:ismbbyte.obj
 0001:0001db23       __ismbbkprint_l            0401eb23 f   LIBCMT:ismbbyte.obj
 0001:0001db3a       __ismbbkpunct              0401eb3a f   LIBCMT:ismbbyte.obj
 0001:0001db50       __ismbbkpunct_l            0401eb50 f   LIBCMT:ismbbyte.obj
 0001:0001db67       __ismbblead                0401eb67 f   LIBCMT:ismbbyte.obj
 0001:0001db7d       __ismbblead_l              0401eb7d f   LIBCMT:ismbbyte.obj
 0001:0001db94       __ismbbprint               0401eb94 f   LIBCMT:ismbbyte.obj
 0001:0001dbad       __ismbbprint_l             0401ebad f   LIBCMT:ismbbyte.obj
 0001:0001dbc7       __ismbbpunct               0401ebc7 f   LIBCMT:ismbbyte.obj
 0001:0001dbdd       __ismbbpunct_l             0401ebdd f   LIBCMT:ismbbyte.obj
 0001:0001dbf4       __ismbbtrail               0401ebf4 f   LIBCMT:ismbbyte.obj
 0001:0001dc0a       __ismbbtrail_l             0401ec0a f   LIBCMT:ismbbyte.obj
 0001:0001dc30       __alloca_probe_16          0401ec30 f   LIBCMT:alloca16.obj
 0001:0001dc46       __alloca_probe_8           0401ec46     LIBCMT:alloca16.obj
 0001:0001dc5c       _wcscpy_s                  0401ec5c f   LIBCMT:wcscpy_s.obj
 0001:0001dcb8       _wcsnlen                   0401ecb8 f   LIBCMT:wcslen_s.obj
 0001:0001dcd7       _wcscat_s                  0401ecd7 f   LIBCMT:wcscat_s.obj
 0001:0001dd43       _wcslen                    0401ed43 f   LIBCMT:wcslen.obj
 0001:0001dd5c       _wcsncpy_s                 0401ed5c f   LIBCMT:wcsncpy_s.obj
 0001:0001de1a       ___set_app_type            0401ee1a f   LIBCMT:errmode.obj
 0001:0001de27       __set_error_mode           0401ee27 f   LIBCMT:errmode.obj
 0001:0001de67       ___crtMessageBoxW          0401ee67 f   LIBCMT:crtmboxw.obj
 0001:0001e04d       ___crtMessageBoxWaitThreadW@4 0401f04d f   LIBCMT:crtmboxw.obj
 0001:0001e28f       ___crtLCMapStringA         0401f28f f   LIBCMT:a_map.obj
 0001:0001e3cd       ___crtGetStringTypeA       0401f3cd f   LIBCMT:a_str.obj
 0001:0001e40d       __fflush_nolock            0401f40d f   LIBCMT:fflush.obj
 0001:0001e453       __flush                    0401f453 f   LIBCMT:fflush.obj
 0001:0001e4b7       __flushall                 0401f4b7 f   LIBCMT:fflush.obj
 0001:0001e4c0       _fflush                    0401f4c0 f   LIBCMT:fflush.obj
 0001:0001e5fd       __read                     0401f5fd f   LIBCMT:read.obj
 0001:0001e711       __read_nolock              0401f711 f   LIBCMT:read.obj
 0001:0001eea2       ___free_lconv_mon          0401fea2 f   LIBCMT:initmon.obj
 0001:0001ef9e       ___init_monetary           0401ff9e f   LIBCMT:initmon.obj
 0001:0001f377       ___free_lconv_num          04020377 f   LIBCMT:initnum.obj
 0001:0001f3de       ___init_numeric            040203de f   LIBCMT:initnum.obj
 0001:0001f61c       ___free_lc_time            0402061c f   LIBCMT:inittime.obj
 0001:0001f99c       ___init_time               0402099c f   LIBCMT:inittime.obj
 0001:0002020b       _localeconv                0402120b f   LIBCMT:lconv.obj
 0001:00020231       __iswctype_l               04021231 f   LIBCMT:iswctype.obj
 0001:00020243       _is_wctype                 04021243 f   LIBCMT:iswctype.obj
 0001:0002024c       _iswctype                  0402124c f   LIBCMT:iswctype.obj
 0001:000202a2       ___pctype_func             040212a2 f   LIBCMT:ctype.obj
 0001:000202cb       ___pwctype_func            040212cb f   LIBCMT:ctype.obj
 0001:000202d1       __fcloseall                040212d1 f   LIBCMT:closeall.obj
 0001:0002036e       ___lock_fhandle            0402136e f   LIBCMT:osfinfo.obj
 0001:000203fc       __alloc_osfhnd             040213fc f   LIBCMT:osfinfo.obj
 0001:000205a5       __free_osfhnd              040215a5 f   LIBCMT:osfinfo.obj
 0001:0002062b       __get_osfhandle            0402162b f   LIBCMT:osfinfo.obj
 0001:00020692       __open_osfhandle           04021692 f   LIBCMT:osfinfo.obj
 0001:000207a8       __set_osfhnd               040217a8 f   LIBCMT:osfinfo.obj
 0001:0002082a       __unlock_fhandle           0402182a f   LIBCMT:osfinfo.obj
 0001:00020850       __putwch                   04021850 f   LIBCMT:putwch.obj
 0001:0002089c       __putwch_nolock            0402189c f   LIBCMT:putwch.obj
 0001:000208e0       __chkstk                   040218e0 f   LIBCMT:chkstk.obj
 0001:000208e0       __alloca_probe             040218e0 f   LIBCMT:chkstk.obj
 0001:0002090b       __vprintf_l                0402190b f   LIBCMT:vprintf.obj
 0001:00020926       __vprintf_p                04021926 f   LIBCMT:vprintf.obj
 0001:00020940       __vprintf_p_l              04021940 f   LIBCMT:vprintf.obj
 0001:0002095b       __vprintf_s_l              0402195b f   LIBCMT:vprintf.obj
 0001:00020976       _vprintf                   04021976 f   LIBCMT:vprintf.obj
 0001:00020990       _vprintf_helper            04021990 f   LIBCMT:vprintf.obj
 0001:00020a1d       _vprintf_s                 04021a1d f   LIBCMT:vprintf.obj
 0001:00020a37       ____lc_codepage_func       04021a37 f   LIBCMT:initctyp.obj
 0001:00020a5d       ____lc_collate_cp_func     04021a5d f   LIBCMT:initctyp.obj
 0001:00020a83       ____lc_locale_name_func    04021a83 f   LIBCMT:initctyp.obj
 0001:00020aab       ____mb_cur_max_func        04021aab f   LIBCMT:initctyp.obj
 0001:00020ad1       ____mb_cur_max_l_func      04021ad1 f   LIBCMT:initctyp.obj
 0001:00020ae8       ___init_ctype              04021ae8 f   LIBCMT:initctyp.obj
 0001:00020e80       __fltin2                   04021e80 f   LIBCMT:cfin.obj
 0001:00020f30       __CopyMan                  04021f30 f i LIBCMT:intrncvt.obj
 0001:00020f4d       __FillZeroMan              04021f4d f i LIBCMT:intrncvt.obj
 0001:00020f5c       __IncMan                   04021f5c f i LIBCMT:intrncvt.obj
 0001:00020fbe       __IsZeroMan                04021fbe f i LIBCMT:intrncvt.obj
 0001:00020fdb       __RoundMan                 04021fdb f i LIBCMT:intrncvt.obj
 0001:000210dc       __ShrMan                   040220dc f i LIBCMT:intrncvt.obj
 0001:0002116a       __ZeroTail                 0402216a f i LIBCMT:intrncvt.obj
 0001:000211b2       ___addl                    040221b2 f i LIBCMT:intrncvt.obj
 0001:000211d6       __ld12cvt                  040221d6 f i LIBCMT:intrncvt.obj
 0001:00021741       __ld12tod                  04022741 f   LIBCMT:intrncvt.obj
 0001:00021cb3       __ld12tof                  04022cb3 f   LIBCMT:intrncvt.obj
 0001:00022225       __ld12told                 04023225 f   LIBCMT:intrncvt.obj
 0001:000222f4       ___STRINGTOLD_L            040232f4 f   LIBCMT:strgtold.obj
 0001:0002234f       ___ld12mul                 0402334f f i LIBCMT:strgtold.obj
 0001:0002261b       ___multtenpow12            0402361b f i LIBCMT:strgtold.obj
 0001:0002296e       ___shl_12                  0402396e f i LIBCMT:strgtold.obj
 0001:0002299f       ___shr_12                  0402399f f i LIBCMT:strgtold.obj
 0001:000229cf       ___strgtold12_l            040239cf f   LIBCMT:strgtold.obj
 0001:00023177       ___init_collate            04024177 f   LIBCMT:initcoll.obj
 0001:00023297       _memcmp                    04024297 f   LIBCMT:memcmp.obj
 0001:000261ab       _wcscmp                    040271ab f   LIBCMT:wcscmp.obj
 0001:000261e9       _wcscspn                   040271e9 f   LIBCMT:wcscspn.obj
 0001:00026234       _wcsncmp                   04027234 f   LIBCMT:wcsncmp.obj
 0001:0002626a       _wcspbrk                   0402726a f   LIBCMT:wcspbrk.obj
 0001:0002686e       ___get_qualified_locale    0402786e f   LIBCMT:getqloc.obj
 0001:000270de       ___get_qualified_locale_downlevel 040280de f   LIBCMT:getqloc_downlevel.obj
 0001:000272fa       __87except                 040282fa f   LIBCMT:87except.obj
 0001:00027403       _$I10_OUTPUT               04028403 f   LIBCMT:x10fout.obj
 0001:00027dd7       ___add_12                  04028dd7 f i LIBCMT:x10fout.obj
 0001:00027f83       ___control87_2             04028f83 f   LIBCMT:ieee87.obj
 0001:000285f7       __clearfp                  040295f7 f   LIBCMT:ieee87.obj
 0001:000286d7       __control87                040296d7 f i LIBCMT:ieee87.obj
 0001:000289d9       __controlfp                040299d9 f   LIBCMT:ieee87.obj
 0001:00028ce4       __fpreset                  04029ce4 f   LIBCMT:ieee87.obj
 0001:00028db1       __set_controlfp            04029db1 f   LIBCMT:ieee87.obj
 0001:00028e24       __statusfp                 04029e24 f   LIBCMT:ieee87.obj
 0001:00028ebe       __statusfp2                04029ebe f   LIBCMT:ieee87.obj
 0001:00028f1d       __commit                   04029f1d f   LIBCMT:commit.obj
 0001:00029006       __fclose_nolock            0402a006 f   LIBCMT:fclose.obj
 0001:00029072       _fclose                    0402a072 f   LIBCMT:fclose.obj
 0001:000290e9       ___termconout              0402a0e9 f   LIBCMT:initcon.obj
 0001:00029100       ___initconout              0402a100 f   LIBCMT:initcon.obj
 0001:0002911f       ___mtold12                 0402a11f f   LIBCMT:mantold.obj
 0001:0002941b       __i64tow_s                 0402a41b f   LIBCMT:xtows.obj
 0001:0002944c       __itow_s                   0402a44c f   LIBCMT:xtows.obj
 0001:00029475       __ltow_s                   0402a475 f   LIBCMT:xtows.obj
 0001:0002949f       __ui64tow_s                0402a49f f   LIBCMT:xtows.obj
 0001:000294ba       __ultow_s                  0402a4ba f   LIBCMT:xtows.obj
 0001:000295c5       __wtoi                     0402a5c5 f   LIBCMT:wtox.obj
 0001:000295ce       __wtoi64                   0402a5ce f   LIBCMT:wtox.obj
 0001:000295e2       __wtoi64_l                 0402a5e2 f   LIBCMT:wtox.obj
 0001:000295f9       __wtoi_l                   0402a5f9 f   LIBCMT:wtox.obj
 0001:00029602       __wtol                     0402a602 f   LIBCMT:wtox.obj
 0001:00029616       __wtol_l                   0402a616 f   LIBCMT:wtox.obj
 0001:0002962d       __wtoll                    0402a62d f   LIBCMT:wtox.obj
 0001:00029641       __wtoll_l                  0402a641 f   LIBCMT:wtox.obj
 0001:00029658       _wcschr                    0402a658 f   LIBCMT:wcschr.obj
 0001:00029706       __wcsicmp                  0402a706 f   LIBCMT:wcsicmp.obj
 0001:00029799       __wcsicmp_l                0402a799 f   LIBCMT:wcsicmp.obj
 0001:00029874       __wcsnicmp                 0402a874 f   LIBCMT:wcsnicmp.obj
 0001:0002992a       __wcsnicmp_l               0402a92a f   LIBCMT:wcsnicmp.obj
 0001:00029a23       __close                    0402aa23 f   LIBCMT:close.obj
 0001:00029afe       __close_nolock             0402aafe f   LIBCMT:close.obj
 0001:00029b98       __freebuf                  0402ab98 f   LIBCMT:_freebuf.obj
 0001:00029da9       __wcstol_l                 0402ada9 f   LIBCMT:wcstol.obj
 0001:00029dc1       __wcstoul_l                0402adc1 f   LIBCMT:wcstol.obj
 0001:00029dd9       _wcstol                    0402add9 f   LIBCMT:wcstol.obj
 0001:00029df1       _wcstoul                   0402adf1 f   LIBCMT:wcstol.obj
 0001:0002a0d9       __wcstof_l                 0402b0d9 f   LIBCMT:wcstoq.obj
 0001:0002a18c       __wcstoi64                 0402b18c f   LIBCMT:wcstoq.obj
 0001:0002a1b6       __wcstoi64_l               0402b1b6 f   LIBCMT:wcstoq.obj
 0001:0002a1d1       __wcstoimax_l              0402b1d1 f   LIBCMT:wcstoq.obj
 0001:0002a1da       __wcstold_l                0402b1da f   LIBCMT:wcstoq.obj
 0001:0002a1e3       __wcstoll_l                0402b1e3 f   LIBCMT:wcstoq.obj
 0001:0002a1ec       __wcstoui64                0402b1ec f   LIBCMT:wcstoq.obj
 0001:0002a216       __wcstoui64_l              0402b216 f   LIBCMT:wcstoq.obj
 0001:0002a231       __wcstoull_l               0402b231 f   LIBCMT:wcstoq.obj
 0001:0002a23a       __wcstoumax_l              0402b23a f   LIBCMT:wcstoq.obj
 0001:0002a243       _wcstof                    0402b243 f   LIBCMT:wcstoq.obj
 0001:0002a258       _wcstoimax                 0402b258 f   LIBCMT:wcstoq.obj
 0001:0002a261       _wcstold                   0402b261 f   LIBCMT:wcstoq.obj
 0001:0002a26a       _wcstoll                   0402b26a f   LIBCMT:wcstoq.obj
 0001:0002a273       _wcstoull                  0402b273 f   LIBCMT:wcstoq.obj
 0001:0002a27c       _wcstoumax                 0402b27c f   LIBCMT:wcstoq.obj
 0001:0002a285       __towlower_l               0402b285 f   LIBCMT:towlower.obj
 0001:0002a336       _towlower                  0402b336 f   LIBCMT:towlower.obj
 0001:0002a347       __wchartodigit             0402b347 f   LIBCMT:wchtodig.obj
 0001:0002a4e6       __wcstod_l                 0402b4e6 f   LIBCMT:wcstod.obj
 0001:0002a5e1       _wcstod                    0402b5e1 f   LIBCMT:wcstod.obj
 0001:0002a5f6       ___crtLCMapStringW         0402b5f6 f   LIBCMT:w_map.obj
 0001:0002a625       __wfltin2                  0402b625 f   LIBCMT:wcfin.obj
 0001:0002a6ce       ___WSTRINGTOLD_L           0402b6ce f   LIBCMT:wstrgtold.obj
 0001:0002a729       ___wstrgtold12_l           0402b729 f   LIBCMT:wstrgtold.obj
 0001:0002af7a       _EncodePointer@4           0402bf7a f   kernel32:KERNEL32.dll
 0001:0002af80       _DecodePointer@4           0402bf80 f   kernel32:KERNEL32.dll
 0001:0002af86       _RaiseException@16         0402bf86 f   kernel32:KERNEL32.dll
 0001:0002af8c       _RtlUnwind@16              0402bf8c f   kernel32:KERNEL32.dll
 0001:0002af92       _GetCommandLineA@0         0402bf92 f   kernel32:KERNEL32.dll
 0001:0002af98       _GetCurrentThreadId@0      0402bf98 f   kernel32:KERNEL32.dll
 0001:0002af9e       _IsProcessorFeaturePresent@4 0402bf9e f   kernel32:KERNEL32.dll
 0001:0002afa4       _GetLastError@0            0402bfa4 f   kernel32:KERNEL32.dll
 0001:0002afaa       _HeapAlloc@12              0402bfaa f   kernel32:KERNEL32.dll
 0001:0002afb0       _HeapFree@12               0402bfb0 f   kernel32:KERNEL32.dll
 0001:0002afb6       _ExitProcess@4             0402bfb6 f   kernel32:KERNEL32.dll
 0001:0002afbc       _GetModuleHandleExW@12     0402bfbc f   kernel32:KERNEL32.dll
 0001:0002afc2       _GetProcAddress@8          0402bfc2 f   kernel32:KERNEL32.dll
 0001:0002afc8       _AreFileApisANSI@0         0402bfc8 f   kernel32:KERNEL32.dll
 0001:0002afce       _MultiByteToWideChar@24    0402bfce f   kernel32:KERNEL32.dll
 0001:0002afd4       _WideCharToMultiByte@32    0402bfd4 f   kernel32:KERNEL32.dll
 0001:0002afda       _HeapSize@12               0402bfda f   kernel32:KERNEL32.dll
 0001:0002afe0       _IsDebuggerPresent@0       0402bfe0 f   kernel32:KERNEL32.dll
 0001:0002afe6       _SetLastError@4            0402bfe6 f   kernel32:KERNEL32.dll
 0001:0002afec       _GetCurrentThread@0        0402bfec f   kernel32:KERNEL32.dll
 0001:0002aff2       _GetProcessHeap@0          0402bff2 f   kernel32:KERNEL32.dll
 0001:0002aff8       _GetStdHandle@4            0402bff8 f   kernel32:KERNEL32.dll
 0001:0002affe       _GetFileType@4             0402bffe f   kernel32:KERNEL32.dll
 0001:0002b004       _DeleteCriticalSection@4   0402c004 f   kernel32:KERNEL32.dll
 0001:0002b00a       _GetStartupInfoW@4         0402c00a f   kernel32:KERNEL32.dll
 0001:0002b010       _GetModuleFileNameA@12     0402c010 f   kernel32:KERNEL32.dll
 0001:0002b016       _QueryPerformanceCounter@4 0402c016 f   kernel32:KERNEL32.dll
 0001:0002b01c       _GetCurrentProcessId@0     0402c01c f   kernel32:KERNEL32.dll
 0001:0002b022       _GetSystemTimeAsFileTime@4 0402c022 f   kernel32:KERNEL32.dll
 0001:0002b028       _GetEnvironmentStringsW@0  0402c028 f   kernel32:KERNEL32.dll
 0001:0002b02e       _FreeEnvironmentStringsW@4 0402c02e f   kernel32:KERNEL32.dll
 0001:0002b034       _UnhandledExceptionFilter@4 0402c034 f   kernel32:KERNEL32.dll
 0001:0002b03a       _SetUnhandledExceptionFilter@4 0402c03a f   kernel32:KERNEL32.dll
 0001:0002b040       _InitializeCriticalSectionAndSpinCount@8 0402c040 f   kernel32:KERNEL32.dll
 0001:0002b046       _CreateEventW@16           0402c046 f   kernel32:KERNEL32.dll
 0001:0002b04c       _Sleep@4                   0402c04c f   kernel32:KERNEL32.dll
 0001:0002b052       _GetCurrentProcess@0       0402c052 f   kernel32:KERNEL32.dll
 0001:0002b058       _TerminateProcess@8        0402c058 f   kernel32:KERNEL32.dll
 0001:0002b05e       _TlsAlloc@0                0402c05e f   kernel32:KERNEL32.dll
 0001:0002b064       _TlsGetValue@4             0402c064 f   kernel32:KERNEL32.dll
 0001:0002b06a       _TlsSetValue@8             0402c06a f   kernel32:KERNEL32.dll
 0001:0002b070       _TlsFree@4                 0402c070 f   kernel32:KERNEL32.dll
 0001:0002b076       _GetTickCount@0            0402c076 f   kernel32:KERNEL32.dll
 0001:0002b07c       _GetModuleHandleW@4        0402c07c f   kernel32:KERNEL32.dll
 0001:0002b082       _CreateSemaphoreW@16       0402c082 f   kernel32:KERNEL32.dll
 0001:0002b088       _SetConsoleCtrlHandler@8   0402c088 f   kernel32:KERNEL32.dll
 0001:0002b08e       _GetDateFormatW@24         0402c08e f   kernel32:KERNEL32.dll
 0001:0002b094       _GetTimeFormatW@24         0402c094 f   kernel32:KERNEL32.dll
 0001:0002b09a       _CompareStringW@24         0402c09a f   kernel32:KERNEL32.dll
 0001:0002b0a0       _LCMapStringW@24           0402c0a0 f   kernel32:KERNEL32.dll
 0001:0002b0a6       _GetLocaleInfoW@16         0402c0a6 f   kernel32:KERNEL32.dll
 0001:0002b0ac       _IsValidLocale@8           0402c0ac f   kernel32:KERNEL32.dll
 0001:0002b0b2       _GetUserDefaultLCID@0      0402c0b2 f   kernel32:KERNEL32.dll
 0001:0002b0b8       _EnumSystemLocalesW@8      0402c0b8 f   kernel32:KERNEL32.dll
 0001:0002b0be       _WriteFile@20              0402c0be f   kernel32:KERNEL32.dll
 0001:0002b0c4       _GetModuleFileNameW@12     0402c0c4 f   kernel32:KERNEL32.dll
 0001:0002b0ca       _EnterCriticalSection@4    0402c0ca f   kernel32:KERNEL32.dll
 0001:0002b0d0       _LeaveCriticalSection@4    0402c0d0 f   kernel32:KERNEL32.dll
 0001:0002b0d6       _FatalAppExitA@8           0402c0d6 f   kernel32:KERNEL32.dll
 0001:0002b0dc       _FreeLibrary@4             0402c0dc f   kernel32:KERNEL32.dll
 0001:0002b0e2       _LoadLibraryExW@12         0402c0e2 f   kernel32:KERNEL32.dll
 0001:0002b0e8       _IsValidCodePage@4         0402c0e8 f   kernel32:KERNEL32.dll
 0001:0002b0ee       _GetACP@0                  0402c0ee f   kernel32:KERNEL32.dll
 0001:0002b0f4       _GetOEMCP@0                0402c0f4 f   kernel32:KERNEL32.dll
 0001:0002b0fa       _GetCPInfo@8               0402c0fa f   kernel32:KERNEL32.dll
 0001:0002b100       _HeapReAlloc@16            0402c100 f   kernel32:KERNEL32.dll
 0001:0002b106       _GetConsoleCP@0            0402c106 f   kernel32:KERNEL32.dll
 0001:0002b10c       _GetConsoleMode@8          0402c10c f   kernel32:KERNEL32.dll
 0001:0002b112       _SetFilePointerEx@20       0402c112 f   kernel32:KERNEL32.dll
 0001:0002b118       _OutputDebugStringW@4      0402c118 f   kernel32:KERNEL32.dll
 0001:0002b11e       _GetStringTypeW@16         0402c11e f   kernel32:KERNEL32.dll
 0001:0002b124       _ReadFile@20               0402c124 f   kernel32:KERNEL32.dll
 0001:0002b12a       _ReadConsoleW@20           0402c12a f   kernel32:KERNEL32.dll
 0001:0002b130       _SetStdHandle@8            0402c130 f   kernel32:KERNEL32.dll
 0001:0002b136       _WriteConsoleW@20          0402c136 f   kernel32:KERNEL32.dll
 0001:0002b13c       _FlushFileBuffers@4        0402c13c f   kernel32:KERNEL32.dll
 0001:0002b142       _CreateFileW@28            0402c142 f   kernel32:KERNEL32.dll
 0001:0002b148       _CloseHandle@4             0402c148 f   kernel32:KERNEL32.dll
 0001:0002b14e       _strnicmp                  0402c14e f   LIBCMT:strnicmp.obj
 0001:0002b14e       __strnicmp                 0402c14e f   LIBCMT:strnicmp.obj
 0001:0002b1b9       __strnicmp_l               0402c1b9 f   LIBCMT:strnicmp.obj
 0001:0002b2d8       __i64toa                   0402c2d8 f   LIBCMT:xtoa.obj
 0001:0002b308       __itoa                     0402c308 f   LIBCMT:xtoa.obj
 0001:0002b308       _itoa                      0402c308 f   LIBCMT:xtoa.obj
 0001:0002b333       __ltoa                     0402c333 f   LIBCMT:xtoa.obj
 0001:0002b35d       __ui64toa                  0402c35d f   LIBCMT:xtoa.obj
 0001:0002b378       __ultoa                    0402c378 f   LIBCMT:xtoa.obj
 0001:0002b3e0       ___ascii_strnicmp          0402c3e0 f   LIBCMT:_strnicm.obj
 0002:00000000       __imp__GetPrivateProfileIntA@16 0402d000     kernel32:KERNEL32.dll
 0002:00000004       __imp__GetPrivateProfileStringA@24 0402d004     kernel32:KERNEL32.dll
 0002:00000008       __imp__WritePrivateProfileStringA@16 0402d008     kernel32:KERNEL32.dll
 0002:0000000c       __imp__CreateFileW@28      0402d00c     kernel32:KERNEL32.dll
 0002:00000010       __imp__FlushFileBuffers@4  0402d010     kernel32:KERNEL32.dll
 0002:00000014       __imp__WriteConsoleW@20    0402d014     kernel32:KERNEL32.dll
 0002:00000018       __imp__SetStdHandle@8      0402d018     kernel32:KERNEL32.dll
 0002:0000001c       __imp__ReadConsoleW@20     0402d01c     kernel32:KERNEL32.dll
 0002:00000020       __imp__ReadFile@20         0402d020     kernel32:KERNEL32.dll
 0002:00000024       __imp__GetStringTypeW@16   0402d024     kernel32:KERNEL32.dll
 0002:00000028       __imp__OutputDebugStringW@4 0402d028     kernel32:KERNEL32.dll
 0002:0000002c       __imp__SetFilePointerEx@20 0402d02c     kernel32:KERNEL32.dll
 0002:00000030       __imp__GetConsoleMode@8    0402d030     kernel32:KERNEL32.dll
 0002:00000034       __imp__GetConsoleCP@0      0402d034     kernel32:KERNEL32.dll
 0002:00000038       __imp__HeapReAlloc@16      0402d038     kernel32:KERNEL32.dll
 0002:0000003c       __imp__GetCPInfo@8         0402d03c     kernel32:KERNEL32.dll
 0002:00000040       __imp__GetOEMCP@0          0402d040     kernel32:KERNEL32.dll
 0002:00000044       __imp__GetACP@0            0402d044     kernel32:KERNEL32.dll
 0002:00000048       __imp__IsValidCodePage@4   0402d048     kernel32:KERNEL32.dll
 0002:0000004c       __imp__LoadLibraryExW@12   0402d04c     kernel32:KERNEL32.dll
 0002:00000050       __imp__FreeLibrary@4       0402d050     kernel32:KERNEL32.dll
 0002:00000054       __imp__FatalAppExitA@8     0402d054     kernel32:KERNEL32.dll
 0002:00000058       __imp__LeaveCriticalSection@4 0402d058     kernel32:KERNEL32.dll
 0002:0000005c       __imp__EnterCriticalSection@4 0402d05c     kernel32:KERNEL32.dll
 0002:00000060       __imp__GetModuleFileNameW@12 0402d060     kernel32:KERNEL32.dll
 0002:00000064       __imp__WriteFile@20        0402d064     kernel32:KERNEL32.dll
 0002:00000068       __imp__EnumSystemLocalesW@8 0402d068     kernel32:KERNEL32.dll
 0002:0000006c       __imp__GetUserDefaultLCID@0 0402d06c     kernel32:KERNEL32.dll
 0002:00000070       __imp__IsValidLocale@8     0402d070     kernel32:KERNEL32.dll
 0002:00000074       __imp__GetLocaleInfoW@16   0402d074     kernel32:KERNEL32.dll
 0002:00000078       __imp__LCMapStringW@24     0402d078     kernel32:KERNEL32.dll
 0002:0000007c       __imp__CompareStringW@24   0402d07c     kernel32:KERNEL32.dll
 0002:00000080       __imp__GetTimeFormatW@24   0402d080     kernel32:KERNEL32.dll
 0002:00000084       __imp__GetDateFormatW@24   0402d084     kernel32:KERNEL32.dll
 0002:00000088       __imp__SetConsoleCtrlHandler@8 0402d088     kernel32:KERNEL32.dll
 0002:0000008c       __imp__CreateSemaphoreW@16 0402d08c     kernel32:KERNEL32.dll
 0002:00000090       __imp__GetModuleHandleW@4  0402d090     kernel32:KERNEL32.dll
 0002:00000094       __imp__GetTickCount@0      0402d094     kernel32:KERNEL32.dll
 0002:00000098       __imp__TlsFree@4           0402d098     kernel32:KERNEL32.dll
 0002:0000009c       __imp__TlsSetValue@8       0402d09c     kernel32:KERNEL32.dll
 0002:000000a0       __imp__TlsGetValue@4       0402d0a0     kernel32:KERNEL32.dll
 0002:000000a4       __imp__TlsAlloc@0          0402d0a4     kernel32:KERNEL32.dll
 0002:000000a8       __imp__TerminateProcess@8  0402d0a8     kernel32:KERNEL32.dll
 0002:000000ac       __imp__GetCurrentProcess@0 0402d0ac     kernel32:KERNEL32.dll
 0002:000000b0       __imp__Sleep@4             0402d0b0     kernel32:KERNEL32.dll
 0002:000000b4       __imp__CreateEventW@16     0402d0b4     kernel32:KERNEL32.dll
 0002:000000b8       __imp__InitializeCriticalSectionAndSpinCount@8 0402d0b8     kernel32:KERNEL32.dll
 0002:000000bc       __imp__SetUnhandledExceptionFilter@4 0402d0bc     kernel32:KERNEL32.dll
 0002:000000c0       __imp__UnhandledExceptionFilter@4 0402d0c0     kernel32:KERNEL32.dll
 0002:000000c4       __imp__FreeEnvironmentStringsW@4 0402d0c4     kernel32:KERNEL32.dll
 0002:000000c8       __imp__GetEnvironmentStringsW@0 0402d0c8     kernel32:KERNEL32.dll
 0002:000000cc       __imp__GetSystemTimeAsFileTime@4 0402d0cc     kernel32:KERNEL32.dll
 0002:000000d0       __imp__GetCurrentProcessId@0 0402d0d0     kernel32:KERNEL32.dll
 0002:000000d4       __imp__QueryPerformanceCounter@4 0402d0d4     kernel32:KERNEL32.dll
 0002:000000d8       __imp__GetModuleFileNameA@12 0402d0d8     kernel32:KERNEL32.dll
 0002:000000dc       __imp__GetStartupInfoW@4   0402d0dc     kernel32:KERNEL32.dll
 0002:000000e0       __imp__DeleteCriticalSection@4 0402d0e0     kernel32:KERNEL32.dll
 0002:000000e4       __imp__GetFileType@4       0402d0e4     kernel32:KERNEL32.dll
 0002:000000e8       __imp__GetStdHandle@4      0402d0e8     kernel32:KERNEL32.dll
 0002:000000ec       __imp__EncodePointer@4     0402d0ec     kernel32:KERNEL32.dll
 0002:000000f0       __imp__DecodePointer@4     0402d0f0     kernel32:KERNEL32.dll
 0002:000000f4       __imp__RaiseException@16   0402d0f4     kernel32:KERNEL32.dll
 0002:000000f8       __imp__RtlUnwind@16        0402d0f8     kernel32:KERNEL32.dll
 0002:000000fc       __imp__GetCommandLineA@0   0402d0fc     kernel32:KERNEL32.dll
 0002:00000100       __imp__GetCurrentThreadId@0 0402d100     kernel32:KERNEL32.dll
 0002:00000104       __imp__IsProcessorFeaturePresent@4 0402d104     kernel32:KERNEL32.dll
 0002:00000108       __imp__GetLastError@0      0402d108     kernel32:KERNEL32.dll
 0002:0000010c       __imp__HeapAlloc@12        0402d10c     kernel32:KERNEL32.dll
 0002:00000110       __imp__HeapFree@12         0402d110     kernel32:KERNEL32.dll
 0002:00000114       __imp__ExitProcess@4       0402d114     kernel32:KERNEL32.dll
 0002:00000118       __imp__GetModuleHandleExW@12 0402d118     kernel32:KERNEL32.dll
 0002:0000011c       __imp__GetProcAddress@8    0402d11c     kernel32:KERNEL32.dll
 0002:00000120       __imp__AreFileApisANSI@0   0402d120     kernel32:KERNEL32.dll
 0002:00000124       __imp__MultiByteToWideChar@24 0402d124     kernel32:KERNEL32.dll
 0002:00000128       __imp__WideCharToMultiByte@32 0402d128     kernel32:KERNEL32.dll
 0002:0000012c       __imp__HeapSize@12         0402d12c     kernel32:KERNEL32.dll
 0002:00000130       __imp__IsDebuggerPresent@0 0402d130     kernel32:KERNEL32.dll
 0002:00000134       __imp__SetLastError@4      0402d134     kernel32:KERNEL32.dll
 0002:00000138       __imp__GetCurrentThread@0  0402d138     kernel32:KERNEL32.dll
 0002:0000013c       __imp__GetProcessHeap@0    0402d13c     kernel32:KERNEL32.dll
 0002:00000140       __imp__CloseHandle@4       0402d140     kernel32:KERNEL32.dll
 0002:00000144       \177KERNEL32_NULL_THUNK_DATA 0402d144     kernel32:KERNEL32.dll
 0002:00000148       __imp__ppChatManager       0402d148     MQ2Main:MQ2Main.dll
 0002:0000014c       __imp__ppWndMgr            0402d14c     MQ2Main:MQ2Main.dll
 0002:00000150       __imp__ppCharData          0402d150     MQ2Main:MQ2Main.dll
 0002:00000154       __imp__EQADDR_SERVERNAME   0402d154     MQ2Main:MQ2Main.dll
 0002:00000158       __imp__gpFilters           0402d158     MQ2Main:MQ2Main.dll
 0002:0000015c       __imp__gszINIPath          0402d15c     MQ2Main:MQ2Main.dll
 0002:00000160       __imp__gGameState          0402d160     MQ2Main:MQ2Main.dll
 0002:00000164       __imp__InHoverState        0402d164     MQ2Main:MQ2Main.dll
 0002:00000168       __imp__ParseKeyCombo       0402d168     MQ2Main:MQ2Main.dll
 0002:0000016c       __imp__ConvertItemTags     0402d16c     MQ2Main:MQ2Main.dll
 0002:00000170       __imp__MQToSTML            0402d170     MQ2Main:MQ2Main.dll
 0002:00000174       __imp__GetCXStr            0402d174     MQ2Main:MQ2Main.dll
 0002:00000178       __imp__SetCXStr            0402d178     MQ2Main:MQ2Main.dll
 0002:0000017c       __imp__HideDoCommand       0402d17c     MQ2Main:MQ2Main.dll
 0002:00000180       __imp__DebugSpewAlways     0402d180     MQ2Main:MQ2Main.dll
 0002:00000184       __imp__DebugSpew           0402d184     MQ2Main:MQ2Main.dll
 0002:00000188       __imp__RemoveMQ2KeyBind    0402d188     MQ2Main:MQ2Main.dll
 0002:0000018c       __imp__AddMQ2KeyBind       0402d18c     MQ2Main:MQ2Main.dll
 0002:00000190       __imp__SetMQ2KeyBind       0402d190     MQ2Main:MQ2Main.dll
 0002:00000194       __imp__Echo                0402d194     MQ2Main:MQ2Main.dll
 0002:00000198       __imp__RemoveCommand       0402d198     MQ2Main:MQ2Main.dll
 0002:0000019c       __imp__AddCommand          0402d19c     MQ2Main:MQ2Main.dll
 0002:000001a0       __imp__WriteChatColor      0402d1a0     MQ2Main:MQ2Main.dll
 0002:000001a4       __imp__WriteChatf          0402d1a4     MQ2Main:MQ2Main.dll
 0002:000001a8       __imp__AddMQ2Benchmark     0402d1a8     MQ2Main:MQ2Main.dll
 0002:000001ac       __imp__RemoveMQ2Benchmark  0402d1ac     MQ2Main:MQ2Main.dll
 0002:000001b0       __imp__EnterMQ2Benchmark   0402d1b0     MQ2Main:MQ2Main.dll
 0002:000001b4       __imp__ExitMQ2Benchmark    0402d1b4     MQ2Main:MQ2Main.dll
 0002:000001b8       __imp_?CenterPoint@CXRect@EQClasses@@QBE?AVCXPoint@2@XZ 0402d1b8     MQ2Main:MQ2Main.dll
 0002:000001bc       __imp_?StripFirstSTMLLines@CStmlWnd@EQClasses@@QAEXH@Z 0402d1bc     MQ2Main:MQ2Main.dll
 0002:000001c0       __imp_?SetSTMLText@CStmlWnd@EQClasses@@QAEXVCXStr@2@_NPAVSLinkInfo@2@@Z 0402d1c0     MQ2Main:MQ2Main.dll
 0002:000001c4       __imp_?ForceParseNow@CStmlWnd@EQClasses@@QAEXXZ 0402d1c4     MQ2Main:MQ2Main.dll
 0002:000001c8       __imp_?GetSTMLText@CStmlWnd@EQClasses@@QBE?AVCXStr@2@XZ 0402d1c8     MQ2Main:MQ2Main.dll
 0002:000001cc       __imp_?AppendSTML@CStmlWnd@EQClasses@@QAE?AVCXSize@2@VCXStr@2@@Z 0402d1cc     MQ2Main:MQ2Main.dll
 0002:000001d0       __imp_?SetMaxChars@CEditBaseWnd@EQClasses@@QAEXH@Z 0402d1d0     MQ2Main:MQ2Main.dll
 0002:000001d4       __imp_?WndNotification@CChatWindow@EQClasses@@QAEHPAVCXWnd@2@IPAX@Z 0402d1d4     MQ2Main:MQ2Main.dll
 0002:000001d8       __imp_?Clear@CChatWindow@EQClasses@@QAEXXZ 0402d1d8     MQ2Main:MQ2Main.dll
 0002:000001dc       __imp_?GetRGBAFromIndex@CChatManager@EQClasses@@QAEKH@Z 0402d1dc     MQ2Main:MQ2Main.dll
 0002:000001e0       __imp_?WndNotification@CSidlScreenWnd@EQClasses@@QAEHPAVCXWnd@2@IPAX@Z 0402d1e0     MQ2Main:MQ2Main.dll
 0002:000001e4       __imp_??1CSidlScreenWnd@EQClasses@@QAE@XZ 0402d1e4     MQ2Main:MQ2Main.dll
 0002:000001e8       __imp_?CreateChildrenFromSidl@CSidlScreenWnd@EQClasses@@QAEXXZ 0402d1e8     MQ2Main:MQ2Main.dll
 0002:000001ec       __imp_??0CSidlScreenWnd@EQClasses@@QAE@PAVCXWnd@1@PAVCXStr@1@HHPAD@Z 0402d1ec     MQ2Main:MQ2Main.dll
 0002:000001f0       __imp_?GetChildItem@CSidlScreenWnd@EQClasses@@QAEPAVCXWnd@2@PAD@Z 0402d1f0     MQ2Main:MQ2Main.dll
 0002:000001f4       __imp_?SetFont@CXWnd@EQClasses@@QAEHPAX@Z 0402d1f4     MQ2Main:MQ2Main.dll
 0002:000001f8       __imp_?SetWindowTextA@CXWnd@EQClasses@@QAEXAAVCXStr@2@@Z 0402d1f8     MQ2Main:MQ2Main.dll
 0002:000001fc       __imp_?SetVScrollPos@CXWnd@EQClasses@@QAEHH@Z 0402d1fc     MQ2Main:MQ2Main.dll
 0002:00000200       __imp_?OnMinimizeBox@CXWnd@EQClasses@@QAEHXZ 0402d200     MQ2Main:MQ2Main.dll
 0002:00000204       __imp_?HandleLButtonDown@CXWnd@EQClasses@@QAEHPAVCXPoint@2@I@Z 0402d204     MQ2Main:MQ2Main.dll
 0002:00000208       __imp_?ClrFocus@CXWnd@EQClasses@@QAEXXZ 0402d208     MQ2Main:MQ2Main.dll
 0002:0000020c       __imp_?Show@CXWnd@EQClasses@@QAEH_N00@Z 0402d20c     MQ2Main:MQ2Main.dll
 0002:00000210       __imp_?DoAllDrawing@CXWnd@EQClasses@@QBEHXZ 0402d210     MQ2Main:MQ2Main.dll
 0002:00000214       __imp_?GetScreenRect@CXWnd@EQClasses@@QBE?AVCXRect@2@XZ 0402d214     MQ2Main:MQ2Main.dll
 0002:00000218       __imp_??0CXStr@EQClasses@@QAE@ABV01@@Z 0402d218     MQ2Main:MQ2Main.dll
 0002:0000021c       __imp_??0CXStr@EQClasses@@QAE@PBD@Z 0402d21c     MQ2Main:MQ2Main.dll
 0002:00000220       __imp_??1CXStr@EQClasses@@QAE@XZ 0402d220     MQ2Main:MQ2Main.dll
 0002:00000224       \177MQ2Main_NULL_THUNK_DATA 0402d224     MQ2Main:MQ2Main.dll
 0002:00000228       ___xc_a                    0402d228     LIBCMT:crt0init.obj
 0002:00000238       ___xc_z                    0402d238     LIBCMT:crt0init.obj
 0002:0000023c       ___xi_a                    0402d23c     LIBCMT:crt0init.obj
 0002:00000250       ___xi_z                    0402d250     LIBCMT:crt0init.obj
 0002:00000254       ___xp_a                    0402d254     LIBCMT:crt0init.obj
 0002:00000264       ___xp_z                    0402d264     LIBCMT:crt0init.obj
 0002:00000268       ___xt_a                    0402d268     LIBCMT:crt0init.obj
 0002:0000026c       ___xt_z                    0402d26c     LIBCMT:crt0init.obj
 0002:000002a8       ??_C@_00CNPNBAHC@?$AA@     0402d2a8     MQ2ChatWnd.obj
 0002:000002ac       ??_C@_07DFKLKNJN@Warrior?$AA@ 0402d2ac     MQ2ChatWnd.obj
 0002:000002b4       ??_C@_03HMEPACKF@war?$AA@  0402d2b4     MQ2ChatWnd.obj
 0002:000002b8       ??_C@_06PBHENIKF@Cleric?$AA@ 0402d2b8     MQ2ChatWnd.obj
 0002:000002c0       ??_C@_03KLOMFBDO@clr?$AA@  0402d2c0     MQ2ChatWnd.obj
 0002:000002c4       ??_C@_07DBGCNDAP@Paladin?$AA@ 0402d2c4     MQ2ChatWnd.obj
 0002:000002cc       ??_C@_03DFNJAFMD@pal?$AA@  0402d2cc     MQ2ChatWnd.obj
 0002:000002d0       ??_C@_06MGJHBAMJ@Ranger?$AA@ 0402d2d0     MQ2ChatWnd.obj
 0002:000002d8       ??_C@_03HHHIFDLO@rng?$AA@  0402d2d8     MQ2ChatWnd.obj
 0002:000002dc       ??_C@_0N@ICIHEJOD@Shadowknight?$AA@ 0402d2dc     MQ2ChatWnd.obj
 0002:000002ec       ??_C@_03OAGEBLKK@shd?$AA@  0402d2ec     MQ2ChatWnd.obj
 0002:000002f0       ??_C@_05EDJAKLCL@Druid?$AA@ 0402d2f0     MQ2ChatWnd.obj
 0002:000002f8       ??_C@_03GPMCHBDK@dru?$AA@  0402d2f8     MQ2ChatWnd.obj
 0002:000002fc       ??_C@_04DOLLCHAJ@Monk?$AA@ 0402d2fc     MQ2ChatWnd.obj
 0002:00000304       ??_C@_03NDLHFLHL@mnk?$AA@  0402d304     MQ2ChatWnd.obj
 0002:00000308       ??_C@_04MOJAIBDA@Bard?$AA@ 0402d308     MQ2ChatWnd.obj
 0002:00000310       ??_C@_03BJHAANPG@brd?$AA@  0402d310     MQ2ChatWnd.obj
 0002:00000314       ??_C@_05PIFIONNP@Rogue?$AA@ 0402d314     MQ2ChatWnd.obj
 0002:0000031c       ??_C@_03HGLKDJIJ@rog?$AA@  0402d31c     MQ2ChatWnd.obj
 0002:00000320       ??_C@_06ELHMMIIB@Shaman?$AA@ 0402d320     MQ2ChatWnd.obj
 0002:00000328       ??_C@_03DBKGKAOD@shm?$AA@  0402d328     MQ2ChatWnd.obj
 0002:0000032c       ??_C@_0M@OEPIPDJH@Necromancer?$AA@ 0402d32c     MQ2ChatWnd.obj
 0002:00000338       ??_C@_03FIOJBHM@nec?$AA@   0402d338     MQ2ChatWnd.obj
 0002:0000033c       ??_C@_06MNAGNDLP@Wizard?$AA@ 0402d33c     MQ2ChatWnd.obj
 0002:00000344       ??_C@_03LKIFNJBF@wiz?$AA@  0402d344     MQ2ChatWnd.obj
 0002:00000348       ??_C@_04EPDGEGDL@Mage?$AA@ 0402d348     MQ2ChatWnd.obj
 0002:00000350       ??_C@_03HEFOFDEK@mag?$AA@  0402d350     MQ2ChatWnd.obj
 0002:00000354       ??_C@_09EEJIJECG@Enchanter?$AA@ 0402d354     MQ2ChatWnd.obj
 0002:00000360       ??_C@_03NONKPJJM@enc?$AA@  0402d360     MQ2ChatWnd.obj
 0002:00000364       ??_C@_09KINPMODP@Beastlord?$AA@ 0402d364     MQ2ChatWnd.obj
 0002:00000370       ??_C@_03FCHAHFJA@bst?$AA@  0402d370     MQ2ChatWnd.obj
 0002:00000374       ??_C@_09MHCCJHFP@Berserker?$AA@ 0402d374     MQ2ChatWnd.obj
 0002:00000380       ??_C@_03BMIBANNE@ber?$AA@  0402d380     MQ2ChatWnd.obj
 0002:00000388       ??_7error_category@std@@6B@ 0402d388     MQ2ChatWnd.obj
 0002:000003a4       ??_7_Generic_error_category@std@@6B@ 0402d3a4     MQ2ChatWnd.obj
 0002:000003bc       ??_C@_07DCLBNMLN@generic?$AA@ 0402d3bc     MQ2ChatWnd.obj
 0002:000003c4       ??_C@_0O@BFJCFAAK@unknown?5error?$AA@ 0402d3c4     MQ2ChatWnd.obj
 0002:000003d8       ??_7_Iostream_error_category@std@@6B@ 0402d3d8     MQ2ChatWnd.obj
 0002:000003f0       ??_C@_08LLGCOLLL@iostream?$AA@ 0402d3f0     MQ2ChatWnd.obj
 0002:000003fc       ??_C@_0BG@PADBLCHM@iostream?5stream?5error?$AA@ 0402d3fc     MQ2ChatWnd.obj
 0002:00000418       ??_7_System_error_category@std@@6B@ 0402d418     MQ2ChatWnd.obj
 0002:00000430       ??_C@_06FHFOAHML@system?$AA@ 0402d430     MQ2ChatWnd.obj
 0002:00000438       ??_C@_02NJNOFBBI@?$CFx?$AA@ 0402d438     MQ2ChatWnd.obj
 0002:0000043c       ??_C@_08DEOOAPOB@Duration?$AA@ 0402d43c     MQ2ChatWnd.obj
 0002:00000448       ??_C@_05ENDOMFAI@Delay?$AA@ 0402d448     MQ2ChatWnd.obj
 0002:00000450       ??_C@_06GFKCFIPE@Locked?$AA@ 0402d450     MQ2ChatWnd.obj
 0002:00000458       ??_C@_0L@BKAGDNDH@MQ2ChatWnd?$AA@ 0402d458     MQ2ChatWnd.obj
 0002:00000464       ??_C@_0BB@OIFMLBEG@?$CFs?5Module?5Loaded?$AA@ 0402d464     MQ2ChatWnd.obj
 0002:00000478       ??_C@_09KADMDAPI@?$CFs?2?$CFs?4ini?$AA@ 0402d478     MQ2ChatWnd.obj
 0002:00000484       ??_C@_0BD@GHJBOHNK@?$CFs?5Module?5Unloaded?$AA@ 0402d484     MQ2ChatWnd.obj
 0002:00000498       ??_C@_0N@IALFCCGE@CMQChatWnd?$CI?$CJ?$AA@ 0402d498     MQ2ChatWnd.obj
 0002:000004a8       ??_C@_0M@HIABHLGI@CWChatInput?$AA@ 0402d4a8     MQ2ChatWnd.obj
 0002:000004b4       ??_C@_0N@MBBPKPEE@CWChatOutput?$AA@ 0402d4b4     MQ2ChatWnd.obj
 0002:000004c4       ??_C@_0CB@NEPPOCNP@InputBox?5message?5?$CFXh?0?5value?3?5?$CFXh@ 0402d4c4     MQ2ChatWnd.obj
 0002:000004e8       ??_C@_02LIELOMNJ@on?$AA@   0402d4e8     MQ2ChatWnd.obj
 0002:000004ec       ??_C@_03MCADLMAF@off?$AA@  0402d4ec     MQ2ChatWnd.obj
 0002:000004f0       ??_C@_0L@MDNFCKOF@AutoScroll?$AA@ 0402d4f0     MQ2ChatWnd.obj
 0002:000004fc       ??_C@_08EEOHOBEO@Settings?$AA@ 0402d4fc     MQ2ChatWnd.obj
 0002:00000508       ??_C@_0N@NOCNNGEK@NoCharSelect?$AA@ 0402d508     MQ2ChatWnd.obj
 0002:00000518       ??_C@_0L@BKNHPBLH@SaveByChar?$AA@ 0402d518     MQ2ChatWnd.obj
 0002:00000524       ??_C@_05NNFHCGPF@?$CFs?4?$CFs?$AA@ 0402d524     MQ2ChatWnd.obj
 0002:0000052c       ??_C@_07MCAEODGB@Default?$AA@ 0402d52c     MQ2ChatWnd.obj
 0002:00000534       ??_C@_07GCLHBAPE@ChatTop?$AA@ 0402d534     MQ2ChatWnd.obj
 0002:0000053c       ??_C@_0L@CLABEOBI@ChatBottom?$AA@ 0402d53c     MQ2ChatWnd.obj
 0002:00000548       ??_C@_08NGGHNOAC@ChatLeft?$AA@ 0402d548     MQ2ChatWnd.obj
 0002:00000554       ??_C@_09PECHAJJL@ChatRight?$AA@ 0402d554     MQ2ChatWnd.obj
 0002:00000560       ??_C@_05MNCEKKHK@Fades?$AA@ 0402d560     MQ2ChatWnd.obj
 0002:00000568       ??_C@_05IHOGHNDL@Alpha?$AA@ 0402d568     MQ2ChatWnd.obj
 0002:00000570       ??_C@_0M@GBJPOAMO@FadeToAlpha?$AA@ 0402d570     MQ2ChatWnd.obj
 0002:0000057c       ??_C@_06DEIFAPKK@BGType?$AA@ 0402d57c     MQ2ChatWnd.obj
 0002:00000584       ??_C@_0L@DNFAHPHL@BGTint?4red?$AA@ 0402d584     MQ2ChatWnd.obj
 0002:00000590       ??_C@_0N@IAHEABPN@BGTint?4green?$AA@ 0402d590     MQ2ChatWnd.obj
 0002:000005a0       ??_C@_0M@NPGMHGGG@BGTint?4blue?$AA@ 0402d5a0     MQ2ChatWnd.obj
 0002:000005ac       ??_C@_08IOPOCEFC@FontSize?$AA@ 0402d5ac     MQ2ChatWnd.obj
 0002:000005b8       ??_C@_02NLFMFEGL@MQ?$AA@   0402d5b8     MQ2ChatWnd.obj
 0002:000005bc       ??_C@_0M@LHNCFPMH@WindowTitle?$AA@ 0402d5bc     MQ2ChatWnd.obj
 0002:000005c8       ??_C@_0BP@HKHBOEBP@MQ2ChatWnd?3?3CreateChatWindow?$CI?$CJ?$AA@ 0402d5c8     MQ2ChatWnd.obj
 0002:000005e8       ??_C@_0L@CNKDMAL@ChatWindow?$AA@ 0402d5e8     MQ2ChatWnd.obj
 0002:000005f4       ??_C@_0L@MMKOBFHI@Style?50x?$CFX?$AA@ 0402d5f4     MQ2ChatWnd.obj
 0002:00000600       ??_C@_0BE@DKDMEIFK@Usage?3?5?1mqfont?50?910?$AA@ 0402d600     MQ2ChatWnd.obj
 0002:00000614       ??_C@_01KMDKNFGN@?1?$AA@   0402d614     MQ2ChatWnd.obj
 0002:00000618       ??_C@_0BJ@NKCOFNDO@MQ2ChatWnd?3?3OnReloadUI?$CI?$CJ?$AA@ 0402d618     MQ2ChatWnd.obj
 0002:00000634       ??_C@_0BI@DOBBGO@MQ2ChatWnd?3?3OnCleanUI?$CI?$CJ?$AA@ 0402d634     MQ2ChatWnd.obj
 0002:0000064c       ??_C@_0BL@DMKIFOMO@MQ2ChatWnd?3?3SetGameState?$CI?$CJ?$AA@ 0402d64c     MQ2ChatWnd.obj
 0002:00000668       ??_C@_09MEHFCCPN@MQ2CSCHAT?$AA@ 0402d668     MQ2ChatWnd.obj
 0002:00000674       ??_C@_04NKJDMFKO@?$DMbr?$DO?$AA@ 0402d674     MQ2ChatWnd.obj
 0002:0000067c       ??_C@_0BI@CKLPKPHD@Initializing?5MQ2ChatWnd?$AA@ 0402d67c     MQ2ChatWnd.obj
 0002:00000694       ??_C@_06JFPCBCCE@?1style?$AA@ 0402d694     MQ2ChatWnd.obj
 0002:0000069c       ??_C@_07OMLJJMEN@?1mqfont?$AA@ 0402d69c     MQ2ChatWnd.obj
 0002:000006a4       ??_C@_06FOIKCFFH@?1mqmin?$AA@ 0402d6a4     MQ2ChatWnd.obj
 0002:000006ac       ??_C@_08MPAJJCDM@?1mqclear?$AA@ 0402d6ac     MQ2ChatWnd.obj
 0002:000006b8       ??_C@_07KCJJOOD@MQ2CHAT?$AA@ 0402d6b8     MQ2ChatWnd.obj
 0002:000006c0       ??_C@_0BE@JCEEDFIO@StripFirstStmlLines?$AA@ 0402d6c0     MQ2ChatWnd.obj
 0002:000006d4       ??_C@_0BJ@MMBAEMBJ@Shutting?5down?5MQ2ChatWnd?$AA@ 0402d6d4     MQ2ChatWnd.obj
 0002:000006f0       ??_C@_0BM@NMJKDPPO@invalid?5vector?$DMT?$DO?5subscript?$AA@ 0402d6f0     MQ2ChatWnd.obj
 0002:0000070c       ??_C@_0BA@JFNIOLAK@string?5too?5long?$AA@ 0402d70c     MQ2ChatWnd.obj
 0002:0000071c       ??_C@_0BI@CFPLBAOH@invalid?5string?5position?$AA@ 0402d71c     MQ2ChatWnd.obj
 0002:00000734       ??_C@_0BD@OLBABOEK@vector?$DMT?$DO?5too?5long?$AA@ 0402d734     MQ2ChatWnd.obj
 0002:00000747       ?has_quiet_NaN@_Num_float_base@std@@2_NB 0402d747     libcpmt:xthrow.obj
 0002:00000748       ?has_signaling_NaN@_Num_float_base@std@@2_NB 0402d748     libcpmt:xthrow.obj
 0002:00000749       ?is_bounded@_Num_float_base@std@@2_NB 0402d749     libcpmt:xthrow.obj
 0002:0000074c       ??_C@_1M@KLMEPMCM@?$AAa?$AAl?$AAn?$AAu?$AAm?$AA?$AA@ 0402d74c     libcpmt:xthrow.obj
 0002:00000758       ??_C@_1M@DHGLHBMI@?$AAa?$AAl?$AAp?$AAh?$AAa?$AA?$AA@ 0402d758     libcpmt:xthrow.obj
 0002:00000764       ?is_exact@_Num_float_base@std@@2_NB 0402d764     libcpmt:xthrow.obj
 0002:00000768       ??_C@_1M@EJAAJBPE@?$AAb?$AAl?$AAa?$AAn?$AAk?$AA?$AA@ 0402d768     libcpmt:xthrow.obj
 0002:00000774       ??_C@_1M@LMIMILA@?$AAc?$AAn?$AAt?$AAr?$AAl?$AA?$AA@ 0402d774     libcpmt:xthrow.obj
 0002:00000780       ??_C@_13GKPPEALH@?$AAd?$AA?$AA@ 0402d780     libcpmt:xthrow.obj
 0002:00000784       ?is_iec559@_Num_float_base@std@@2_NB 0402d784     libcpmt:xthrow.obj
 0002:00000788       ??_C@_1M@JDAEIBKG@?$AAd?$AAi?$AAg?$AAi?$AAt?$AA?$AA@ 0402d788     libcpmt:xthrow.obj
 0002:00000794       ??_C@_1M@MDKNJLLK@?$AAg?$AAr?$AAa?$AAp?$AAh?$AA?$AA@ 0402d794     libcpmt:xthrow.obj
 0002:000007a0       ??_C@_1M@LGAECJJD@?$AAl?$AAo?$AAw?$AAe?$AAr?$AA?$AA@ 0402d7a0     libcpmt:xthrow.obj
 0002:000007ac       ?is_integer@_Num_float_base@std@@2_NB 0402d7ac     libcpmt:xthrow.obj
 0002:000007b0       ??_C@_1M@ELNLAPLA@?$AAp?$AAr?$AAi?$AAn?$AAt?$AA?$AA@ 0402d7b0     libcpmt:xthrow.obj
 0002:000007bc       ??_C@_1M@BPFMAOAO@?$AAp?$AAu?$AAn?$AAc?$AAt?$AA?$AA@ 0402d7bc     libcpmt:xthrow.obj
 0002:000007c8       ??_C@_1M@LPGODFOM@?$AAs?$AAp?$AAa?$AAc?$AAe?$AA?$AA@ 0402d7c8     libcpmt:xthrow.obj
 0002:000007d4       ?is_modulo@_Num_float_base@std@@2_NB 0402d7d4     libcpmt:xthrow.obj
 0002:000007d8       ??_C@_13KHDBCPJB@?$AAs?$AA?$AA@ 0402d7d8     libcpmt:xthrow.obj
 0002:000007dc       ??_C@_1M@PLNFCNIC@?$AAu?$AAp?$AAp?$AAe?$AAr?$AA?$AA@ 0402d7dc     libcpmt:xthrow.obj
 0002:000007e8       ??_C@_13CIFDLIMG@?$AAw?$AA?$AA@ 0402d7e8     libcpmt:xthrow.obj
 0002:000007ec       ?is_signed@_Num_float_base@std@@2_NB 0402d7ec     libcpmt:xthrow.obj
 0002:000007f0       ??_C@_1O@OAFMJDHN@?$AAx?$AAd?$AAi?$AAg?$AAi?$AAt?$AA?$AA@ 0402d7f0     libcpmt:xthrow.obj
 0002:000007fe       ?is_specialized@_Num_float_base@std@@2_NB 0402d7fe     libcpmt:xthrow.obj
 0002:000007ff       ?tinyness_before@_Num_float_base@std@@2_NB 0402d7ff     libcpmt:xthrow.obj
 0002:00000800       ?traps@_Num_float_base@std@@2_NB 0402d800     libcpmt:xthrow.obj
 0002:00000804       ?round_style@_Num_float_base@std@@2W4float_round_style@2@B 0402d804     libcpmt:xthrow.obj
 0002:00000808       ?radix@_Num_float_base@std@@2HB 0402d808     libcpmt:xthrow.obj
 0002:0000080c       ?is_signed@?$numeric_limits@D@std@@2_NB 0402d80c     libcpmt:xthrow.obj
 0002:00000810       ?digits@?$numeric_limits@D@std@@2HB 0402d810     libcpmt:xthrow.obj
 0002:00000814       ?digits10@?$numeric_limits@D@std@@2HB 0402d814     libcpmt:xthrow.obj
 0002:00000818       ?is_signed@?$numeric_limits@_W@std@@2_NB 0402d818     libcpmt:xthrow.obj
 0002:0000081c       ?digits@?$numeric_limits@_W@std@@2HB 0402d81c     libcpmt:xthrow.obj
 0002:00000820       ?digits10@?$numeric_limits@_W@std@@2HB 0402d820     libcpmt:xthrow.obj
 0002:00000824       ?is_modulo@?$numeric_limits@_N@std@@2_NB 0402d824     libcpmt:xthrow.obj
 0002:00000825       ?is_signed@?$numeric_limits@_N@std@@2_NB 0402d825     libcpmt:xthrow.obj
 0002:00000828       ?digits@?$numeric_limits@_N@std@@2HB 0402d828     libcpmt:xthrow.obj
 0002:0000082c       ?digits10@?$numeric_limits@_N@std@@2HB 0402d82c     libcpmt:xthrow.obj
 0002:00000830       ?_VBITS@?$vector@_NV?$allocator@_N@std@@@std@@2HB 0402d830     libcpmt:xthrow.obj
 0002:00000834       ?is_signed@?$numeric_limits@C@std@@2_NB 0402d834     libcpmt:xthrow.obj
 0002:00000838       ?digits@?$numeric_limits@C@std@@2HB 0402d838     libcpmt:xthrow.obj
 0002:0000083c       ?digits10@?$numeric_limits@C@std@@2HB 0402d83c     libcpmt:xthrow.obj
 0002:00000840       ?is_signed@?$numeric_limits@E@std@@2_NB 0402d840     libcpmt:xthrow.obj
 0002:00000844       ?digits@?$numeric_limits@E@std@@2HB 0402d844     libcpmt:xthrow.obj
 0002:00000848       ?digits10@?$numeric_limits@E@std@@2HB 0402d848     libcpmt:xthrow.obj
 0002:0000084c       ?skipws@?$_Iosb@H@std@@2W4_Fmtflags@12@B 0402d84c     libcpmt:xthrow.obj
 0002:00000850       ?unitbuf@?$_Iosb@H@std@@2W4_Fmtflags@12@B 0402d850     libcpmt:xthrow.obj
 0002:00000854       ?uppercase@?$_Iosb@H@std@@2W4_Fmtflags@12@B 0402d854     libcpmt:xthrow.obj
 0002:00000858       ?showbase@?$_Iosb@H@std@@2W4_Fmtflags@12@B 0402d858     libcpmt:xthrow.obj
 0002:0000085c       ?showpoint@?$_Iosb@H@std@@2W4_Fmtflags@12@B 0402d85c     libcpmt:xthrow.obj
 0002:00000860       ?showpos@?$_Iosb@H@std@@2W4_Fmtflags@12@B 0402d860     libcpmt:xthrow.obj
 0002:00000864       ?left@?$_Iosb@H@std@@2W4_Fmtflags@12@B 0402d864     libcpmt:xthrow.obj
 0002:00000868       ?right@?$_Iosb@H@std@@2W4_Fmtflags@12@B 0402d868     libcpmt:xthrow.obj
 0002:0000086c       ?internal@?$_Iosb@H@std@@2W4_Fmtflags@12@B 0402d86c     libcpmt:xthrow.obj
 0002:00000870       ?is_signed@?$numeric_limits@F@std@@2_NB 0402d870     libcpmt:xthrow.obj
 0002:00000874       ?dec@?$_Iosb@H@std@@2W4_Fmtflags@12@B 0402d874     libcpmt:xthrow.obj
 0002:00000878       ?digits@?$numeric_limits@F@std@@2HB 0402d878     libcpmt:xthrow.obj
 0002:0000087c       ?oct@?$_Iosb@H@std@@2W4_Fmtflags@12@B 0402d87c     libcpmt:xthrow.obj
 0002:00000880       ?digits10@?$numeric_limits@F@std@@2HB 0402d880     libcpmt:xthrow.obj
 0002:00000884       ?hex@?$_Iosb@H@std@@2W4_Fmtflags@12@B 0402d884     libcpmt:xthrow.obj
 0002:00000888       ?scientific@?$_Iosb@H@std@@2W4_Fmtflags@12@B 0402d888     libcpmt:xthrow.obj
 0002:0000088c       ?fixed@?$_Iosb@H@std@@2W4_Fmtflags@12@B 0402d88c     libcpmt:xthrow.obj
 0002:00000890       ?hexfloat@?$_Iosb@H@std@@2W4_Fmtflags@12@B 0402d890     libcpmt:xthrow.obj
 0002:00000894       ?boolalpha@?$_Iosb@H@std@@2W4_Fmtflags@12@B 0402d894     libcpmt:xthrow.obj
 0002:00000898       ?_Stdio@?$_Iosb@H@std@@2W4_Fmtflags@12@B 0402d898     libcpmt:xthrow.obj
 0002:0000089c       ?adjustfield@?$_Iosb@H@std@@2W4_Fmtflags@12@B 0402d89c     libcpmt:xthrow.obj
 0002:000008a0       ?basefield@?$_Iosb@H@std@@2W4_Fmtflags@12@B 0402d8a0     libcpmt:xthrow.obj
 0002:000008a4       ?floatfield@?$_Iosb@H@std@@2W4_Fmtflags@12@B 0402d8a4     libcpmt:xthrow.obj
 0002:000008a8       ?goodbit@?$_Iosb@H@std@@2W4_Iostate@12@B 0402d8a8     libcpmt:xthrow.obj
 0002:000008ac       ?is_signed@?$numeric_limits@G@std@@2_NB 0402d8ac     libcpmt:xthrow.obj
 0002:000008b0       ?eofbit@?$_Iosb@H@std@@2W4_Iostate@12@B 0402d8b0     libcpmt:xthrow.obj
 0002:000008b4       ?digits@?$numeric_limits@G@std@@2HB 0402d8b4     libcpmt:xthrow.obj
 0002:000008b8       ?failbit@?$_Iosb@H@std@@2W4_Iostate@12@B 0402d8b8     libcpmt:xthrow.obj
 0002:000008bc       ?digits10@?$numeric_limits@G@std@@2HB 0402d8bc     libcpmt:xthrow.obj
 0002:000008c0       ?badbit@?$_Iosb@H@std@@2W4_Iostate@12@B 0402d8c0     libcpmt:xthrow.obj
 0002:000008c4       ?_Hardfail@?$_Iosb@H@std@@2W4_Iostate@12@B 0402d8c4     libcpmt:xthrow.obj
 0002:000008c8       ?in@?$_Iosb@H@std@@2W4_Openmode@12@B 0402d8c8     libcpmt:xthrow.obj
 0002:000008cc       ?out@?$_Iosb@H@std@@2W4_Openmode@12@B 0402d8cc     libcpmt:xthrow.obj
 0002:000008d0       ?ate@?$_Iosb@H@std@@2W4_Openmode@12@B 0402d8d0     libcpmt:xthrow.obj
 0002:000008d4       ?app@?$_Iosb@H@std@@2W4_Openmode@12@B 0402d8d4     libcpmt:xthrow.obj
 0002:000008d8       ?trunc@?$_Iosb@H@std@@2W4_Openmode@12@B 0402d8d8     libcpmt:xthrow.obj
 0002:000008dc       ?_Nocreate@?$_Iosb@H@std@@2W4_Openmode@12@B 0402d8dc     libcpmt:xthrow.obj
 0002:000008e0       ?_Noreplace@?$_Iosb@H@std@@2W4_Openmode@12@B 0402d8e0     libcpmt:xthrow.obj
 0002:000008e4       ?binary@?$_Iosb@H@std@@2W4_Openmode@12@B 0402d8e4     libcpmt:xthrow.obj
 0002:000008e8       ?is_signed@?$numeric_limits@H@std@@2_NB 0402d8e8     libcpmt:xthrow.obj
 0002:000008ec       ?beg@?$_Iosb@H@std@@2W4_Seekdir@12@B 0402d8ec     libcpmt:xthrow.obj
 0002:000008f0       ?digits@?$numeric_limits@H@std@@2HB 0402d8f0     libcpmt:xthrow.obj
 0002:000008f4       ?cur@?$_Iosb@H@std@@2W4_Seekdir@12@B 0402d8f4     libcpmt:xthrow.obj
 0002:000008f8       ?digits10@?$numeric_limits@H@std@@2HB 0402d8f8     libcpmt:xthrow.obj
 0002:000008fc       ?end@?$_Iosb@H@std@@2W4_Seekdir@12@B 0402d8fc     libcpmt:xthrow.obj
 0002:00000900       ?is_signed@?$numeric_limits@I@std@@2_NB 0402d900     libcpmt:xthrow.obj
 0002:00000904       ?digits@?$numeric_limits@I@std@@2HB 0402d904     libcpmt:xthrow.obj
 0002:00000908       ?digits10@?$numeric_limits@I@std@@2HB 0402d908     libcpmt:xthrow.obj
 0002:0000090c       ?value@?$integral_constant@H$0A@@std@@2HB 0402d90c     libcpmt:xthrow.obj
 0002:00000910       ?is_signed@?$numeric_limits@J@std@@2_NB 0402d910     libcpmt:xthrow.obj
 0002:00000914       ?digits@?$numeric_limits@J@std@@2HB 0402d914     libcpmt:xthrow.obj
 0002:00000918       ?digits10@?$numeric_limits@J@std@@2HB 0402d918     libcpmt:xthrow.obj
 0002:0000091c       ?is_signed@?$numeric_limits@K@std@@2_NB 0402d91c     libcpmt:xthrow.obj
 0002:00000920       ?digits@?$numeric_limits@K@std@@2HB 0402d920     libcpmt:xthrow.obj
 0002:00000924       ?digits10@?$numeric_limits@K@std@@2HB 0402d924     libcpmt:xthrow.obj
 0002:00000928       ?is_signed@?$numeric_limits@_J@std@@2_NB 0402d928     libcpmt:xthrow.obj
 0002:0000092c       ?digits@?$numeric_limits@_J@std@@2HB 0402d92c     libcpmt:xthrow.obj
 0002:00000930       ?digits10@?$numeric_limits@_J@std@@2HB 0402d930     libcpmt:xthrow.obj
 0002:00000934       ?is_signed@?$numeric_limits@_K@std@@2_NB 0402d934     libcpmt:xthrow.obj
 0002:00000938       ?digits@?$numeric_limits@_K@std@@2HB 0402d938     libcpmt:xthrow.obj
 0002:0000093c       ?digits10@?$numeric_limits@_K@std@@2HB 0402d93c     libcpmt:xthrow.obj
 0002:00000940       ?collate@?$_Locbase@H@std@@2HB 0402d940     libcpmt:xthrow.obj
 0002:00000944       ?ctype@?$_Locbase@H@std@@2HB 0402d944     libcpmt:xthrow.obj
 0002:00000948       ?monetary@?$_Locbase@H@std@@2HB 0402d948     libcpmt:xthrow.obj
 0002:0000094c       ?numeric@?$_Locbase@H@std@@2HB 0402d94c     libcpmt:xthrow.obj
 0002:00000950       ?time@?$_Locbase@H@std@@2HB 0402d950     libcpmt:xthrow.obj
 0002:00000954       ?messages@?$_Locbase@H@std@@2HB 0402d954     libcpmt:xthrow.obj
 0002:00000958       ?all@?$_Locbase@H@std@@2HB 0402d958     libcpmt:xthrow.obj
 0002:0000095c       ?none@?$_Locbase@H@std@@2HB 0402d95c     libcpmt:xthrow.obj
 0002:00000960       ?digits@?$numeric_limits@M@std@@2HB 0402d960     libcpmt:xthrow.obj
 0002:00000964       ?digits10@?$numeric_limits@M@std@@2HB 0402d964     libcpmt:xthrow.obj
 0002:00000968       ?max_digits10@?$numeric_limits@M@std@@2HB 0402d968     libcpmt:xthrow.obj
 0002:0000096c       ?max_exponent@?$numeric_limits@M@std@@2HB 0402d96c     libcpmt:xthrow.obj
 0002:00000970       ?max_exponent10@?$numeric_limits@M@std@@2HB 0402d970     libcpmt:xthrow.obj
 0002:00000974       ?min_exponent@?$numeric_limits@M@std@@2HB 0402d974     libcpmt:xthrow.obj
 0002:00000978       ?min_exponent10@?$numeric_limits@M@std@@2HB 0402d978     libcpmt:xthrow.obj
 0002:0000097c       ?digits@?$numeric_limits@N@std@@2HB 0402d97c     libcpmt:xthrow.obj
 0002:00000980       ?digits10@?$numeric_limits@N@std@@2HB 0402d980     libcpmt:xthrow.obj
 0002:00000984       ?max_digits10@?$numeric_limits@N@std@@2HB 0402d984     libcpmt:xthrow.obj
 0002:00000988       ?max_exponent@?$numeric_limits@N@std@@2HB 0402d988     libcpmt:xthrow.obj
 0002:0000098c       ?max_exponent10@?$numeric_limits@N@std@@2HB 0402d98c     libcpmt:xthrow.obj
 0002:00000990       ?min_exponent@?$numeric_limits@N@std@@2HB 0402d990     libcpmt:xthrow.obj
 0002:00000994       ?min_exponent10@?$numeric_limits@N@std@@2HB 0402d994     libcpmt:xthrow.obj
 0002:00000998       ?digits@?$numeric_limits@O@std@@2HB 0402d998     libcpmt:xthrow.obj
 0002:0000099c       ?digits10@?$numeric_limits@O@std@@2HB 0402d99c     libcpmt:xthrow.obj
 0002:000009a0       ?max_digits10@?$numeric_limits@O@std@@2HB 0402d9a0     libcpmt:xthrow.obj
 0002:000009a4       ?max_exponent@?$numeric_limits@O@std@@2HB 0402d9a4     libcpmt:xthrow.obj
 0002:000009a8       ?max_exponent10@?$numeric_limits@O@std@@2HB 0402d9a8     libcpmt:xthrow.obj
 0002:000009ac       ?min_exponent@?$numeric_limits@O@std@@2HB 0402d9ac     libcpmt:xthrow.obj
 0002:000009b0       ?min_exponent10@?$numeric_limits@O@std@@2HB 0402d9b0     libcpmt:xthrow.obj
 0002:000009b4       ?table_size@?$ctype@D@std@@2IB 0402d9b4     libcpmt:xthrow.obj
 0002:000009b8       ?value@?$integral_constant@I$07@std@@2IB 0402d9b8     libcpmt:xthrow.obj
 0002:000009bc       ?value@?$integral_constant@I$03@std@@2IB 0402d9bc     libcpmt:xthrow.obj
 0002:000009c0       ?value@?$integral_constant@_N$0A@@std@@2_NB 0402d9c0     libcpmt:xthrow.obj
 0002:000009c1       ?value@?$integral_constant@_N$00@std@@2_NB 0402d9c1     libcpmt:xthrow.obj
 0002:000009c4       ?value@?$integral_constant@I$01@std@@2IB 0402d9c4     libcpmt:xthrow.obj
 0002:000009c8       ?value@?$integral_constant@I$00@std@@2IB 0402d9c8     libcpmt:xthrow.obj
 0002:000009cc       ?value@?$_Maximum@$S@std@@2IB 0402d9cc     libcpmt:xthrow.obj
 0002:000009d0       ?_Names@?$_Regex_traits@D@std@@0QBU?$_Cl_names@D@2@B 0402d9d0     libcpmt:xthrow.obj
 0002:00000a90       ?has_denorm@_Num_base@std@@2W4float_denorm_style@2@B 0402da90     libcpmt:xthrow.obj
 0002:00000a94       ?has_denorm_loss@_Num_base@std@@2_NB 0402da94     libcpmt:xthrow.obj
 0002:00000a95       ?has_infinity@_Num_base@std@@2_NB 0402da95     libcpmt:xthrow.obj
 0002:00000a96       ?has_quiet_NaN@_Num_base@std@@2_NB 0402da96     libcpmt:xthrow.obj
 0002:00000a97       ?has_signaling_NaN@_Num_base@std@@2_NB 0402da97     libcpmt:xthrow.obj
 0002:00000a98       ?is_bounded@_Num_base@std@@2_NB 0402da98     libcpmt:xthrow.obj
 0002:00000a99       ?is_exact@_Num_base@std@@2_NB 0402da99     libcpmt:xthrow.obj
 0002:00000a9a       ?is_iec559@_Num_base@std@@2_NB 0402da9a     libcpmt:xthrow.obj
 0002:00000a9b       ?is_integer@_Num_base@std@@2_NB 0402da9b     libcpmt:xthrow.obj
 0002:00000a9c       ?is_modulo@_Num_base@std@@2_NB 0402da9c     libcpmt:xthrow.obj
 0002:00000a9d       ?is_signed@_Num_base@std@@2_NB 0402da9d     libcpmt:xthrow.obj
 0002:00000aa0       ??_C@_05IIMHCHIO@alnum?$AA@ 0402daa0     libcpmt:xthrow.obj
 0002:00000aa8       ??_C@_05IAEKHIAN@alpha?$AA@ 0402daa8     libcpmt:xthrow.obj
 0002:00000ab0       ??_C@_05BABJKOGB@blank?$AA@ 0402dab0     libcpmt:xthrow.obj
 0002:00000ab8       ?value@?$integral_constant@I$0A@@std@@2IB 0402dab8     libcpmt:xthrow.obj
 0002:00000abc       ?is_specialized@_Num_base@std@@2_NB 0402dabc     libcpmt:xthrow.obj
 0002:00000ac0       ??_C@_05JMDPEFNK@cntrl?$AA@ 0402dac0     libcpmt:xthrow.obj
 0002:00000ac8       ??_C@_01LPLHEDKD@d?$AA@    0402dac8     libcpmt:xthrow.obj
 0002:00000acc       ??_C@_05ODNOIFML@digit?$AA@ 0402dacc     libcpmt:xthrow.obj
 0002:00000ad2       ?tinyness_before@_Num_base@std@@2_NB 0402dad2     libcpmt:xthrow.obj
 0002:00000ad4       ??_C@_05KCJBMLII@graph?$AA@ 0402dad4     libcpmt:xthrow.obj
 0002:00000adc       ??_C@_05IPJEPLHL@lower?$AA@ 0402dadc     libcpmt:xthrow.obj
 0002:00000ae4       ??_C@_05IJDJACGD@print?$AA@ 0402dae4     libcpmt:xthrow.obj
 0002:00000aea       ?traps@_Num_base@std@@2_NB 0402daea     libcpmt:xthrow.obj
 0002:00000aec       ??_C@_05KOBGHFJJ@punct?$AA@ 0402daec     libcpmt:xthrow.obj
 0002:00000af4       ??_C@_05OLNILLAB@space?$AA@ 0402daf4     libcpmt:xthrow.obj
 0002:00000afc       ??_C@_01LKDEMHDF@s?$AA@    0402dafc     libcpmt:xthrow.obj
 0002:00000b00       ?round_style@_Num_base@std@@2W4float_round_style@2@B 0402db00     libcpmt:xthrow.obj
 0002:00000b04       ??_C@_05NECKJAMC@upper?$AA@ 0402db04     libcpmt:xthrow.obj
 0002:00000b0c       ??_C@_01NOFIACDB@w?$AA@    0402db0c     libcpmt:xthrow.obj
 0002:00000b10       ??_C@_06BAPHGFFK@xdigit?$AA@ 0402db10     libcpmt:xthrow.obj
 0002:00000b18       ?digits@_Num_base@std@@2HB 0402db18     libcpmt:xthrow.obj
 0002:00000b1c       ?digits10@_Num_base@std@@2HB 0402db1c     libcpmt:xthrow.obj
 0002:00000b20       ?max_digits10@_Num_base@std@@2HB 0402db20     libcpmt:xthrow.obj
 0002:00000b24       ?max_exponent@_Num_base@std@@2HB 0402db24     libcpmt:xthrow.obj
 0002:00000b28       ?max_exponent10@_Num_base@std@@2HB 0402db28     libcpmt:xthrow.obj
 0002:00000b2c       ?min_exponent@_Num_base@std@@2HB 0402db2c     libcpmt:xthrow.obj
 0002:00000b30       ?min_exponent10@_Num_base@std@@2HB 0402db30     libcpmt:xthrow.obj
 0002:00000b34       ?radix@_Num_base@std@@2HB  0402db34     libcpmt:xthrow.obj
 0002:00000b38       ?is_bounded@_Num_int_base@std@@2_NB 0402db38     libcpmt:xthrow.obj
 0002:00000b39       ?is_exact@_Num_int_base@std@@2_NB 0402db39     libcpmt:xthrow.obj
 0002:00000b3a       ?is_integer@_Num_int_base@std@@2_NB 0402db3a     libcpmt:xthrow.obj
 0002:00000b3b       ?is_modulo@_Num_int_base@std@@2_NB 0402db3b     libcpmt:xthrow.obj
 0002:00000b40       ?_Names@?$_Regex_traits@_W@std@@0QBU?$_Cl_names@_W@2@B 0402db40     libcpmt:xthrow.obj
 0002:00000c00       ?is_specialized@_Num_int_base@std@@2_NB 0402dc00     libcpmt:xthrow.obj
 0002:00000c04       ?radix@_Num_int_base@std@@2HB 0402dc04     libcpmt:xthrow.obj
 0002:00000c08       ?has_denorm@_Num_float_base@std@@2W4float_denorm_style@2@B 0402dc08     libcpmt:xthrow.obj
 0002:00000c0c       ?has_denorm_loss@_Num_float_base@std@@2_NB 0402dc0c     libcpmt:xthrow.obj
 0002:00000c0d       ?has_infinity@_Num_float_base@std@@2_NB 0402dc0d     libcpmt:xthrow.obj
 0002:00000c14       ??_7bad_alloc@std@@6B@     0402dc14     libcpmt:xthrow.obj
 0002:00000c1c       ??_C@_0P@GHFPNOJB@bad?5allocation?$AA@ 0402dc1c     libcpmt:xthrow.obj
 0002:00000c30       ??_7logic_error@std@@6B@   0402dc30     libcpmt:xthrow.obj
 0002:00000c3c       ??_7invalid_argument@std@@6B@ 0402dc3c     libcpmt:xthrow.obj
 0002:00000c48       ??_7length_error@std@@6B@  0402dc48     libcpmt:xthrow.obj
 0002:00000c54       ??_7out_of_range@std@@6B@  0402dc54     libcpmt:xthrow.obj
 0002:00000c60       ??_7runtime_error@std@@6B@ 0402dc60     libcpmt:xthrow.obj
 0002:00000c6c       ??_7overflow_error@std@@6B@ 0402dc6c     libcpmt:xthrow.obj
 0002:00000c78       ??_7bad_function_call@std@@6B@ 0402dc78     libcpmt:xthrow.obj
 0002:00000c80       ??_C@_0BC@DPJNKNAF@bad?5function?5call?$AA@ 0402dc80     libcpmt:xthrow.obj
 0002:00000c98       ??_7regex_error@std@@6B@   0402dc98     libcpmt:xthrow.obj
 0002:00000ca0       ??_C@_0FI@CMNGHIFF@regex_error?$CIerror_collate?$CJ?3?5The?5@ 0402dca0     libcpmt:xthrow.obj
 0002:00000cf8       ??_C@_0FE@LJMHKIOC@regex_error?$CIerror_ctype?$CJ?3?5The?5ex@ 0402dcf8     libcpmt:xthrow.obj
 0002:00000d50       ??_C@_0GI@HEGGMMDL@regex_error?$CIerror_escape?$CJ?3?5The?5e@ 0402dd50     libcpmt:xthrow.obj
 0002:00000db8       ??_C@_0FA@HFMLPGNN@regex_error?$CIerror_backref?$CJ?3?5The?5@ 0402ddb8     libcpmt:xthrow.obj
 0002:00000e08       ??_C@_0EH@LGEANNAL@regex_error?$CIerror_brack?$CJ?3?5The?5ex@ 0402de08     libcpmt:xthrow.obj
 0002:00000e50       ??_C@_0EH@CAGOJGLE@regex_error?$CIerror_paren?$CJ?3?5The?5ex@ 0402de50     libcpmt:xthrow.obj
 0002:00000e98       ??_C@_0EH@DICJJKLO@regex_error?$CIerror_brace?$CJ?3?5The?5ex@ 0402de98     libcpmt:xthrow.obj
 0002:00000ee0       ??_C@_0FM@BLDIHIBB@regex_error?$CIerror_badbrace?$CJ?3?5The@ 0402dee0     libcpmt:xthrow.obj
 0002:00000f40       ??_C@_0HA@ICNJLCMC@regex_error?$CIerror_range?$CJ?3?5The?5ex@ 0402df40     libcpmt:xthrow.obj
 0002:00000fb0       ??_C@_0GP@PICOBCHA@regex_error?$CIerror_space?$CJ?3?5There?5@ 0402dfb0     libcpmt:xthrow.obj
 0002:00001020       ??_C@_0FK@LCHHHEOA@regex_error?$CIerror_badrepeat?$CJ?3?5On@ 0402e020     libcpmt:xthrow.obj
 0002:00001080       ??_C@_0HL@NEKOFBJA@regex_error?$CIerror_complexity?$CJ?3?5T@ 0402e080     libcpmt:xthrow.obj
 0002:00001100       ??_C@_0JC@HCDLJLGO@regex_error?$CIerror_stack?$CJ?3?5There?5@ 0402e100     libcpmt:xthrow.obj
 0002:00001194       ??_C@_0BJ@CHBLKGNM@regex_error?$CIerror_parse?$CJ?$AA@ 0402e194     libcpmt:xthrow.obj
 0002:000011b0       ??_C@_0BK@DFJCACNI@regex_error?$CIerror_syntax?$CJ?$AA@ 0402e1b0     libcpmt:xthrow.obj
 0002:000011cc       ??_C@_0M@KGKAAGCA@regex_error?$AA@ 0402e1cc     libcpmt:xthrow.obj
 0002:000016a8       ??_C@_0BC@CIJDGCDI@permission?5denied?$AA@ 0402e6a8     libcpmt:syserror.obj
 0002:000016bc       ??_C@_0M@MIDIAGJP@file?5exists?$AA@ 0402e6bc     libcpmt:syserror.obj
 0002:000016c8       ??_C@_0P@FDINDDOK@no?5such?5device?$AA@ 0402e6c8     libcpmt:syserror.obj
 0002:000016d8       ??_C@_0BC@EJHOMAAK@filename?5too?5long?$AA@ 0402e6d8     libcpmt:syserror.obj
 0002:000016ec       ??_C@_0BI@NGCEHDD@device?5or?5resource?5busy?$AA@ 0402e6ec     libcpmt:syserror.obj
 0002:00001704       ??_C@_08GLNPIFBN@io?5error?$AA@ 0402e704     libcpmt:syserror.obj
 0002:00001710       ??_C@_0BE@JIDOCPHM@directory?5not?5empty?$AA@ 0402e710     libcpmt:syserror.obj
 0002:00001724       ??_C@_0BB@FCMFBGOM@invalid?5argument?$AA@ 0402e724     libcpmt:syserror.obj
 0002:00001738       ??_C@_0BD@IJDJKDEA@no?5space?5on?5device?$AA@ 0402e738     libcpmt:syserror.obj
 0002:0000174c       ??_C@_0BK@NDOCBPGE@no?5such?5file?5or?5directory?$AA@ 0402e74c     libcpmt:syserror.obj
 0002:00001768       ??_C@_0BH@KEFGLDAF@function?5not?5supported?$AA@ 0402e768     libcpmt:syserror.obj
 0002:00001780       ??_C@_0BC@NJECKMKE@no?5lock?5available?$AA@ 0402e780     libcpmt:syserror.obj
 0002:00001794       ??_C@_0BC@ENOOLCNF@not?5enough?5memory?$AA@ 0402e794     libcpmt:syserror.obj
 0002:000017a8       ??_C@_0BP@LKNGHENJ@resource?5unavailable?5try?5again?$AA@ 0402e7a8     libcpmt:syserror.obj
 0002:000017c8       ??_C@_0BC@PPHBOELF@cross?5device?5link?$AA@ 0402e7c8     libcpmt:syserror.obj
 0002:000017dc       ??_C@_0BD@MOLBPMEA@operation?5canceled?$AA@ 0402e7dc     libcpmt:syserror.obj
 0002:000017f0       ??_C@_0BE@GHAFMPAH@too?5many?5files?5open?$AA@ 0402e7f0     libcpmt:syserror.obj
 0002:00001804       ??_C@_0BC@FNODOBAE@permission_denied?$AA@ 0402e804     libcpmt:syserror.obj
 0002:00001818       ??_C@_0P@LNDJPBFK@address_in_use?$AA@ 0402e818     libcpmt:syserror.obj
 0002:00001828       ??_C@_0BG@IPMGOJF@address_not_available?$AA@ 0402e828     libcpmt:syserror.obj
 0002:00001840       ??_C@_0BN@LCBDHODA@address_family_not_supported?$AA@ 0402e840     libcpmt:syserror.obj
 0002:00001860       ??_C@_0BP@FOJJHMCC@connection_already_in_progress?$AA@ 0402e860     libcpmt:syserror.obj
 0002:00001880       ??_C@_0BE@DLHHIBGN@bad_file_descriptor?$AA@ 0402e880     libcpmt:syserror.obj
 0002:00001894       ??_C@_0BD@OJMJDIGI@connection_aborted?$AA@ 0402e894     libcpmt:syserror.obj
 0002:000018a8       ??_C@_0BD@NGKCIFEP@connection_refused?$AA@ 0402e8a8     libcpmt:syserror.obj
 0002:000018bc       ??_C@_0BB@JOANDNCK@connection_reset?$AA@ 0402e8bc     libcpmt:syserror.obj
 0002:000018d0       ??_C@_0BN@JLJNLKLK@destination_address_required?$AA@ 0402e8d0     libcpmt:syserror.obj
 0002:000018f0       ??_C@_0M@IJGMGFGP@bad_address?$AA@ 0402e8f0     libcpmt:syserror.obj
 0002:000018fc       ??_C@_0BB@KKNHPPIN@host_unreachable?$AA@ 0402e8fc     libcpmt:syserror.obj
 0002:00001910       ??_C@_0BG@DJGBJIIK@operation_in_progress?$AA@ 0402e910     libcpmt:syserror.obj
 0002:00001928       ??_C@_0M@EGEKIIMP@interrupted?$AA@ 0402e928     libcpmt:syserror.obj
 0002:00001934       ??_C@_0BB@FFIHMIPJ@invalid_argument?$AA@ 0402e934     libcpmt:syserror.obj
 0002:00001948       ??_C@_0BC@FIFLCHLO@already_connected?$AA@ 0402e948     libcpmt:syserror.obj
 0002:0000195c       ??_C@_0BE@GJJJJDDA@too_many_files_open?$AA@ 0402e95c     libcpmt:syserror.obj
 0002:00001970       ??_C@_0N@HPMLKHPL@message_size?$AA@ 0402e970     libcpmt:syserror.obj
 0002:00001980       ??_C@_0BC@LEEIKBAL@filename_too_long?$AA@ 0402e980     libcpmt:syserror.obj
 0002:00001994       ??_C@_0N@FCPALPJK@network_down?$AA@ 0402e994     libcpmt:syserror.obj
 0002:000019a4       ??_C@_0O@EHNDLHIG@network_reset?$AA@ 0402e9a4     libcpmt:syserror.obj
 0002:000019b4       ??_C@_0BE@JFNJIDNF@network_unreachable?$AA@ 0402e9b4     libcpmt:syserror.obj
 0002:000019c8       ??_C@_0BA@FDIJKJCL@no_buffer_space?$AA@ 0402e9c8     libcpmt:syserror.obj
 0002:000019d8       ??_C@_0BD@JHIHCGKP@no_protocol_option?$AA@ 0402e9d8     libcpmt:syserror.obj
 0002:000019ec       ??_C@_0O@GBCLHHD@not_connected?$AA@ 0402e9ec     libcpmt:syserror.obj
 0002:000019fc       ??_C@_0N@IMHKKLEM@not_a_socket?$AA@ 0402e9fc     libcpmt:syserror.obj
 0002:00001a0c       ??_C@_0BI@ICEIDKLJ@operation_not_supported?$AA@ 0402ea0c     libcpmt:syserror.obj
 0002:00001a24       ??_C@_0BH@KAPBAIJF@protocol_not_supported?$AA@ 0402ea24     libcpmt:syserror.obj
 0002:00001a3c       ??_C@_0BE@GAOJJFPC@wrong_protocol_type?$AA@ 0402ea3c     libcpmt:syserror.obj
 0002:00001a50       ??_C@_09NCHNLHPG@timed_out?$AA@ 0402ea50     libcpmt:syserror.obj
 0002:00001a5c       ??_C@_0BG@GDGHKFDH@operation_would_block?$AA@ 0402ea5c     libcpmt:syserror.obj
 0002:00001a74       ??_C@_0BN@LKKBCCDB@address?5family?5not?5supported?$AA@ 0402ea74     libcpmt:syserror.obj
 0002:00001a94       ??_C@_0P@LDMLAFHI@address?5in?5use?$AA@ 0402ea94     libcpmt:syserror.obj
 0002:00001aa4       ??_C@_0BG@DHPCNBJB@address?5not?5available?$AA@ 0402eaa4     libcpmt:syserror.obj
 0002:00001abc       ??_C@_0BC@DFIBIBIL@already?5connected?$AA@ 0402eabc     libcpmt:syserror.obj
 0002:00001ad0       ??_C@_0BH@CAKOHOMI@argument?5list?5too?5long?$AA@ 0402ead0     libcpmt:syserror.obj
 0002:00001ae8       ??_C@_0BH@CGIMPKIM@argument?5out?5of?5domain?$AA@ 0402eae8     libcpmt:syserror.obj
 0002:00001b00       ??_C@_0M@KGHGGJGL@bad?5address?$AA@ 0402eb00     libcpmt:syserror.obj
 0002:00001b0c       ??_C@_0BE@MPJPGCEO@bad?5file?5descriptor?$AA@ 0402eb0c     libcpmt:syserror.obj
 0002:00001b20       ??_C@_0M@PMMIEFCP@bad?5message?$AA@ 0402eb20     libcpmt:syserror.obj
 0002:00001b2c       ??_C@_0M@KPHOFDBE@broken?5pipe?$AA@ 0402eb2c     libcpmt:syserror.obj
 0002:00001b38       ??_C@_0BD@MGNDDEGM@connection?5aborted?$AA@ 0402eb38     libcpmt:syserror.obj
 0002:00001b4c       ??_C@_0BP@KAIHPOGN@connection?5already?5in?5progress?$AA@ 0402eb4c     libcpmt:syserror.obj
 0002:00001b6c       ??_C@_0BD@PJLIIJEL@connection?5refused?$AA@ 0402eb6c     libcpmt:syserror.obj
 0002:00001b80       ??_C@_0BB@IECNJNOI@connection?5reset?$AA@ 0402eb80     libcpmt:syserror.obj
 0002:00001b94       ??_C@_0BN@KDMIFEIP@destination?5address?5required?$AA@ 0402eb94     libcpmt:syserror.obj
 0002:00001bb4       ??_C@_0BI@BNCLIGPB@executable?5format?5error?$AA@ 0402ebb4     libcpmt:syserror.obj
 0002:00001bcc       ??_C@_0P@DNAJLBJK@file?5too?5large?$AA@ 0402ebcc     libcpmt:syserror.obj
 0002:00001bdc       ??_C@_0BB@DHFDFGDM@host?5unreachable?$AA@ 0402ebdc     libcpmt:syserror.obj
 0002:00001bf0       ??_C@_0BD@JPHBMONG@identifier?5removed?$AA@ 0402ebf0     libcpmt:syserror.obj
 0002:00001c04       ??_C@_0BG@CDNPAGJK@illegal?5byte?5sequence?$AA@ 0402ec04     libcpmt:syserror.obj
 0002:00001c1c       ??_C@_0CD@BNPLBMNA@inappropriate?5io?5control?5operati@ 0402ec1c     libcpmt:syserror.obj
 0002:00001c40       ??_C@_0N@OHAFKDEK@invalid?5seek?$AA@ 0402ec40     libcpmt:syserror.obj
 0002:00001c50       ??_C@_0P@FLLDBIDK@is?5a?5directory?$AA@ 0402ec50     libcpmt:syserror.obj
 0002:00001c60       ??_C@_0N@IFLPBIOP@message?5size?$AA@ 0402ec60     libcpmt:syserror.obj
 0002:00001c70       ??_C@_0N@KIIEAAIO@network?5down?$AA@ 0402ec70     libcpmt:syserror.obj
 0002:00001c80       ??_C@_0O@FNPDBHEE@network?5reset?$AA@ 0402ec80     libcpmt:syserror.obj
 0002:00001c90       ??_C@_0BE@IFNCKGE@network?5unreachable?$AA@ 0402ec90     libcpmt:syserror.obj
 0002:00001ca4       ??_C@_0BA@PFFCAOFK@no?5buffer?5space?$AA@ 0402eca4     libcpmt:syserror.obj
 0002:00001cb4       ??_C@_0BB@IEPBLJHK@no?5child?5process?$AA@ 0402ecb4     libcpmt:syserror.obj
 0002:00001cc8       ??_C@_07PLECNNKG@no?5link?$AA@ 0402ecc8     libcpmt:syserror.obj
 0002:00001cd0       ??_C@_0BF@PBGGPKKE@no?5message?5available?$AA@ 0402ecd0     libcpmt:syserror.obj
 0002:00001ce8       ??_C@_0L@EDOLMPAK@no?5message?$AA@ 0402ece8     libcpmt:syserror.obj
 0002:00001cf4       ??_C@_0BD@EAMBFIDF@no?5protocol?5option?$AA@ 0402ecf4     libcpmt:syserror.obj
 0002:00001d08       ??_C@_0BE@MKFDAFMP@no?5stream?5resources?$AA@ 0402ed08     libcpmt:syserror.obj
 0002:00001d1c       ??_C@_0BK@IMCPHCBI@no?5such?5device?5or?5address?$AA@ 0402ed1c     libcpmt:syserror.obj
 0002:00001d38       ??_C@_0BA@ENLPPKBN@no?5such?5process?$AA@ 0402ed38     libcpmt:syserror.obj
 0002:00001d48       ??_C@_0BA@DOCPFFJG@not?5a?5directory?$AA@ 0402ed48     libcpmt:syserror.obj
 0002:00001d58       ??_C@_0N@POEIPGGF@not?5a?5socket?$AA@ 0402ed58     libcpmt:syserror.obj
 0002:00001d68       ??_C@_0N@LGAPMMPI@not?5a?5stream?$AA@ 0402ed68     libcpmt:syserror.obj
 0002:00001d78       ??_C@_0O@GLMIBBEG@not?5connected?$AA@ 0402ed78     libcpmt:syserror.obj
 0002:00001d88       ??_C@_0O@NHEDABJP@not?5supported?$AA@ 0402ed88     libcpmt:syserror.obj
 0002:00001d98       ??_C@_0BG@KDKHOPCO@operation?5in?5progress?$AA@ 0402ed98     libcpmt:syserror.obj
 0002:00001db0       ??_C@_0BI@OHIEJAAB@operation?5not?5permitted?$AA@ 0402edb0     libcpmt:syserror.obj
 0002:00001dc8       ??_C@_0BI@LNEGIFLN@operation?5not?5supported?$AA@ 0402edc8     libcpmt:syserror.obj
 0002:00001de0       ??_C@_0BG@OEMDKMEE@operation?5would?5block?$AA@ 0402ede0     libcpmt:syserror.obj
 0002:00001df8       ??_C@_0L@BLPOFLNJ@owner?5dead?$AA@ 0402edf8     libcpmt:syserror.obj
 0002:00001e04       ??_C@_0P@FNPOCJBE@protocol?5error?$AA@ 0402ee04     libcpmt:syserror.obj
 0002:00001e14       ??_C@_0BH@JPPPLHJB@protocol?5not?5supported?$AA@ 0402ee14     libcpmt:syserror.obj
 0002:00001e2c       ??_C@_0BG@EICBIHDP@read?5only?5file?5system?$AA@ 0402ee2c     libcpmt:syserror.obj
 0002:00001e44       ??_C@_0BO@BJBOMOEJ@resource?5deadlock?5would?5occur?$AA@ 0402ee44     libcpmt:syserror.obj
 0002:00001e64       ??_C@_0BE@GOIPJJHG@result?5out?5of?5range?$AA@ 0402ee64     libcpmt:syserror.obj
 0002:00001e78       ??_C@_0BG@MPLKFPAE@state?5not?5recoverable?$AA@ 0402ee78     libcpmt:syserror.obj
 0002:00001e90       ??_C@_0P@DIIFGFCG@stream?5timeout?$AA@ 0402ee90     libcpmt:syserror.obj
 0002:00001ea0       ??_C@_0P@IPFDMIFL@text?5file?5busy?$AA@ 0402eea0     libcpmt:syserror.obj
 0002:00001eb0       ??_C@_09KJPPMAOI@timed?5out?$AA@ 0402eeb0     libcpmt:syserror.obj
 0002:00001ebc       ??_C@_0BO@HACHBEKI@too?5many?5files?5open?5in?5system?$AA@ 0402eebc     libcpmt:syserror.obj
 0002:00001edc       ??_C@_0P@HCOMKFCC@too?5many?5links?$AA@ 0402eedc     libcpmt:syserror.obj
 0002:00001eec       ??_C@_0BO@EFGOJEF@too?5many?5symbolic?5link?5levels?$AA@ 0402eeec     libcpmt:syserror.obj
 0002:00001f0c       ??_C@_0BA@KGKGOOJA@value?5too?5large?$AA@ 0402ef0c     libcpmt:syserror.obj
 0002:00001f1c       ??_C@_0BE@MIEJDDNH@wrong?5protocol?5type?$AA@ 0402ef1c     libcpmt:syserror.obj
 0002:00001f30       __real@0000000000000000    0402ef30     LIBCMT:hypot.obj
 0002:00001f58       ?ProcessDetach@NativeDll@<CrtImplementationDetails>@@0IB 0402ef58     LIBCMT:_trnsctrl_.obj
 0002:00001f5c       ?ProcessAttach@NativeDll@<CrtImplementationDetails>@@0IB 0402ef5c     LIBCMT:_trnsctrl_.obj
 0002:00001f60       ?ThreadAttach@NativeDll@<CrtImplementationDetails>@@0IB 0402ef60     LIBCMT:_trnsctrl_.obj
 0002:00001f64       ?ThreadDetach@NativeDll@<CrtImplementationDetails>@@0IB 0402ef64     LIBCMT:_trnsctrl_.obj
 0002:00001f68       ?ProcessVerifier@NativeDll@<CrtImplementationDetails>@@0IB 0402ef68     LIBCMT:_trnsctrl_.obj
 0002:00001f70       ??_7type_info@@6B@         0402ef70     LIBCMT:typinfo.obj
 0002:00001f74       __FPinit                   0402ef74     LIBCMT:fpinit.obj
 0002:00001f78       __pDefaultRawDllMain       0402ef78     LIBCMT:dllcrt0.obj
 0002:00001f78       __pRawDllMain              0402ef78     LIBCMT:dllcrt0.obj
 0002:00001f80       ??_7exception@std@@6B@     0402ef80     LIBCMT:stdexcpt.obj
 0002:00001f88       ??_C@_0BC@EOODALEL@Unknown?5exception?$AA@ 0402ef88     LIBCMT:stdexcpt.obj
 0002:00001fa0       ??_7bad_cast@std@@6B@      0402efa0     LIBCMT:stdexcpt.obj
 0002:00001fac       ??_7bad_typeid@std@@6B@    0402efac     LIBCMT:stdexcpt.obj
 0002:00001fb8       ??_7__non_rtti_object@std@@6B@ 0402efb8     LIBCMT:stdexcpt.obj
 0002:00001fc0       ??_C@_1BI@BGOHAHKC@?$AAm?$AAs?$AAc?$AAo?$AAr?$AAe?$AAe?$AA?4?$AAd?$AAl?$AAl?$AA?$AA@ 0402efc0     LIBCMT:crt0dat.obj
 0002:00001fd8       ??_C@_0P@MIGLKIOC@CorExitProcess?$AA@ 0402efd8     LIBCMT:crt0dat.obj
 0002:00001fe8       ??_C@_06OJHGLDPL@?$CInull?$CJ?$AA@ 0402efe8     LIBCMT:output.obj
 0002:00001ff0       ??_C@_1O@CEDCILHN@?$AA?$CI?$AAn?$AAu?$AAl?$AAl?$AA?$CJ?$AA?$AA@ 0402eff0     LIBCMT:output.obj
 0002:00002000       ___lookuptable             0402f000     LIBCMT:output.obj
 0002:0000205c       ??_C@_03KHJOGHMM@exp?$AA@  0402f05c     LIBCMT:fpexcept.obj
 0002:00002060       ??_C@_03JGHBODFD@pow?$AA@  0402f060     LIBCMT:fpexcept.obj
 0002:00002064       ??_C@_03MGHMBJCF@log?$AA@  0402f064     LIBCMT:fpexcept.obj
 0002:00002068       ??_C@_05HGHHAHAP@log10?$AA@ 0402f068     LIBCMT:fpexcept.obj
 0002:00002070       ??_C@_04COOMCNPB@sinh?$AA@ 0402f070     LIBCMT:fpexcept.obj
 0002:00002078       ??_C@_04HPJJNFIM@cosh?$AA@ 0402f078     LIBCMT:fpexcept.obj
 0002:00002080       ??_C@_04FJHINJAO@tanh?$AA@ 0402f080     LIBCMT:fpexcept.obj
 0002:00002088       ??_C@_04FIHNOPOL@asin?$AA@ 0402f088     LIBCMT:fpexcept.obj
 0002:00002090       ??_C@_04PDIFKINK@acos?$AA@ 0402f090     LIBCMT:fpexcept.obj
 0002:00002098       ??_C@_04MLLJIGOK@atan?$AA@ 0402f098     LIBCMT:fpexcept.obj
 0002:000020a0       ??_C@_05KNGEOGJB@atan2?$AA@ 0402f0a0     LIBCMT:fpexcept.obj
 0002:000020a8       ??_C@_04EIAKFFMI@sqrt?$AA@ 0402f0a8     LIBCMT:fpexcept.obj
 0002:000020b0       ??_C@_03BLEJJJBH@sin?$AA@  0402f0b0     LIBCMT:fpexcept.obj
 0002:000020b4       ??_C@_03LALBNOCG@cos?$AA@  0402f0b4     LIBCMT:fpexcept.obj
 0002:000020b8       ??_C@_03IIINPABG@tan?$AA@  0402f0b8     LIBCMT:fpexcept.obj
 0002:000020bc       ??_C@_04GFPJNGEK@ceil?$AA@ 0402f0bc     LIBCMT:fpexcept.obj
 0002:000020c4       ??_C@_05PBJFFIGL@floor?$AA@ 0402f0c4     LIBCMT:fpexcept.obj
 0002:000020cc       ??_C@_04ODHECPBC@fabs?$AA@ 0402f0cc     LIBCMT:fpexcept.obj
 0002:000020d4       ??_C@_04EHEDPDJG@modf?$AA@ 0402f0d4     LIBCMT:fpexcept.obj
 0002:000020dc       ??_C@_05CEJMAHNP@ldexp?$AA@ 0402f0dc     LIBCMT:fpexcept.obj
 0002:000020e4       ??_C@_05KBKMEMPO@_cabs?$AA@ 0402f0e4     LIBCMT:fpexcept.obj
 0002:000020ec       ??_C@_06MEIMCGCF@_hypot?$AA@ 0402f0ec     LIBCMT:fpexcept.obj
 0002:000020f4       ??_C@_04KEPJIHGP@fmod?$AA@ 0402f0f4     LIBCMT:fpexcept.obj
 0002:000020fc       ??_C@_05GKKHEGJL@frexp?$AA@ 0402f0fc     LIBCMT:fpexcept.obj
 0002:00002104       ??_C@_03MJLDFKDL@_y0?$AA@  0402f104     LIBCMT:fpexcept.obj
 0002:00002108       ??_C@_03NAKIGLHK@_y1?$AA@  0402f108     LIBCMT:fpexcept.obj
 0002:0000210c       ??_C@_03ONILCKOB@_yn?$AA@  0402f10c     LIBCMT:fpexcept.obj
 0002:00002110       ??_C@_05JGDBENOH@_logb?$AA@ 0402f110     LIBCMT:fpexcept.obj
 0002:00002118       ??_C@_0L@KDOEJCKC@_nextafter?$AA@ 0402f118     LIBCMT:fpexcept.obj
 0002:00002124       __pDestructExceptionObject 0402f124     LIBCMT:frame.obj
 0002:0000212c       ??_7bad_exception@std@@6B@ 0402f12c     LIBCMT:frame.obj
 0002:00002134       ??_C@_0O@DPKOEFFH@bad?5exception?$AA@ 0402f134     LIBCMT:frame.obj
 0002:00002144       ??_C@_05KLBDPFGC@e?$CL000?$AA@ 0402f144     LIBCMT:cvt.obj
 0002:00002150       __XcptActTab               0402f150     LIBCMT:winxfltr.obj
 0002:000021e0       __XcptActTabCount          0402f1e0     LIBCMT:winxfltr.obj
 0002:000021e4       __XcptActTabSize           0402f1e4     LIBCMT:winxfltr.obj
 0002:000021e8       __First_FPE_Indx           0402f1e8     LIBCMT:winxfltr.obj
 0002:000021ec       __Num_FPE                  0402f1ec     LIBCMT:winxfltr.obj
 0002:000021f0       ??_C@_1BK@MGMFAEKH@?$AAk?$AAe?$AAr?$AAn?$AAe?$AAl?$AA3?$AA2?$AA?4?$AAd?$AAl?$AAl?$AA?$AA@ 0402f1f0     LIBCMT:winapisupp.obj
 0002:0000220c       ??_C@_08KNHFBNJ@FlsAlloc?$AA@ 0402f20c     LIBCMT:winapisupp.obj
 0002:00002218       ??_C@_07PEJMOBNF@FlsFree?$AA@ 0402f218     LIBCMT:winapisupp.obj
 0002:00002220       ??_C@_0M@GDNOONDI@FlsGetValue?$AA@ 0402f220     LIBCMT:winapisupp.obj
 0002:0000222c       ??_C@_0M@JCPCPOEF@FlsSetValue?$AA@ 0402f22c     LIBCMT:winapisupp.obj
 0002:00002238       ??_C@_0BM@HCFOFFN@InitializeCriticalSectionEx?$AA@ 0402f238     LIBCMT:winapisupp.obj
 0002:00002254       ??_C@_0P@DLHPPCNH@CreateEventExW?$AA@ 0402f254     LIBCMT:winapisupp.obj
 0002:00002264       ??_C@_0BD@KIEEOEEH@CreateSemaphoreExW?$AA@ 0402f264     LIBCMT:winapisupp.obj
 0002:00002278       ??_C@_0BI@BKLFFAPO@SetThreadStackGuarantee?$AA@ 0402f278     LIBCMT:winapisupp.obj
 0002:00002290       ??_C@_0BG@OGFAJCKC@CreateThreadpoolTimer?$AA@ 0402f290     LIBCMT:winapisupp.obj
 0002:000022a8       ??_C@_0BD@LPLEMMDI@SetThreadpoolTimer?$AA@ 0402f2a8     LIBCMT:winapisupp.obj
 0002:000022bc       ??_C@_0CA@FMNJENH@WaitForThreadpoolTimerCallbacks?$AA@ 0402f2bc     LIBCMT:winapisupp.obj
 0002:000022dc       ??_C@_0BF@DCFCCNOC@CloseThreadpoolTimer?$AA@ 0402f2dc     LIBCMT:winapisupp.obj
 0002:000022f4       ??_C@_0BF@FLABGKKM@CreateThreadpoolWait?$AA@ 0402f2f4     LIBCMT:winapisupp.obj
 0002:0000230c       ??_C@_0BC@MGCOHNA@SetThreadpoolWait?$AA@ 0402f30c     LIBCMT:winapisupp.obj
 0002:00002320       ??_C@_0BE@OCIOMIMP@CloseThreadpoolWait?$AA@ 0402f320     LIBCMT:winapisupp.obj
 0002:00002334       ??_C@_0BJ@LKGHFHBO@FlushProcessWriteBuffers?$AA@ 0402f334     LIBCMT:winapisupp.obj
 0002:00002350       ??_C@_0BP@KALKKPMO@FreeLibraryWhenCallbackReturns?$AA@ 0402f350     LIBCMT:winapisupp.obj
 0002:00002370       ??_C@_0BK@DFNBACLA@GetCurrentProcessorNumber?$AA@ 0402f370     LIBCMT:winapisupp.obj
 0002:0000238c       ??_C@_0BP@KHGALBC@GetLogicalProcessorInformation?$AA@ 0402f38c     LIBCMT:winapisupp.obj
 0002:000023ac       ??_C@_0BE@FKKLLFLM@CreateSymbolicLinkW?$AA@ 0402f3ac     LIBCMT:winapisupp.obj
 0002:000023c0       ??_C@_0BJ@OHNKDLIJ@SetDefaultDllDirectories?$AA@ 0402f3c0     LIBCMT:winapisupp.obj
 0002:000023dc       ??_C@_0BE@LJANKFHF@EnumSystemLocalesEx?$AA@ 0402f3dc     LIBCMT:winapisupp.obj
 0002:000023f0       ??_C@_0BA@IHGNDAEB@CompareStringEx?$AA@ 0402f3f0     LIBCMT:winapisupp.obj
 0002:00002400       ??_C@_0BA@EPCJIIPD@GetDateFormatEx?$AA@ 0402f400     LIBCMT:winapisupp.obj
 0002:00002410       ??_C@_0BA@ONOKGCMP@GetLocaleInfoEx?$AA@ 0402f410     LIBCMT:winapisupp.obj
 0002:00002420       ??_C@_0BA@CIJJKCJJ@GetTimeFormatEx?$AA@ 0402f420     LIBCMT:winapisupp.obj
 0002:00002430       ??_C@_0BJ@PBCCBIPI@GetUserDefaultLocaleName?$AA@ 0402f430     LIBCMT:winapisupp.obj
 0002:0000244c       ??_C@_0BC@CELBKLLA@IsValidLocaleName?$AA@ 0402f44c     LIBCMT:winapisupp.obj
 0002:00002460       ??_C@_0O@KKBNKAPF@LCMapStringEx?$AA@ 0402f460     LIBCMT:winapisupp.obj
 0002:00002470       ??_C@_0BE@JOGNEJCI@GetCurrentPackageId?$AA@ 0402f470     LIBCMT:winapisupp.obj
 0002:00002484       ??_C@_0P@CDHHOHKP@GetTickCount64?$AA@ 0402f484     LIBCMT:winapisupp.obj
 0002:00002494       ??_C@_0BO@KPCLFDJJ@GetFileInformationByHandleExW?$AA@ 0402f494     LIBCMT:winapisupp.obj
 0002:000024b4       ??_C@_0BM@MHIDLABK@SetFileInformationByHandleW?$AA@ 0402f4b4     LIBCMT:winapisupp.obj
 0002:000024d8       _LcidToLocaleNameTable     0402f4d8     LIBCMT:winapinls.obj
 0002:00002bf8       _LocaleNameToIndexTable    0402fbf8     LIBCMT:winapinls.obj
 0002:00003318       ??_C@_15EMKDOKLE@?$AAa?$AAr?$AA?$AA@ 04030318     LIBCMT:winapinls.obj
 0002:00003320       ??_C@_15KNPADPLH@?$AAb?$AAg?$AA?$AA@ 04030320     LIBCMT:winapinls.obj
 0002:00003328       ??_C@_15EDMHLDMO@?$AAc?$AAa?$AA?$AA@ 04030328     LIBCMT:winapinls.obj
 0002:00003330       ??_C@_1O@BPEAJADD@?$AAz?$AAh?$AA?9?$AAC?$AAH?$AAS?$AA?$AA@ 04030330     LIBCMT:winapinls.obj
 0002:00003340       ??_C@_15LJNHCMNK@?$AAc?$AAs?$AA?$AA@ 04030340     LIBCMT:winapinls.obj
 0002:00003348       ??_C@_15FOMCIDHG@?$AAd?$AAa?$AA?$AA@ 04030348     LIBCMT:winapinls.obj
 0002:00003350       ??_C@_15NBKABECB@?$AAd?$AAe?$AA?$AA@ 04030350     LIBCMT:winapinls.obj
 0002:00003358       ??_C@_15GHPEIIAO@?$AAe?$AAl?$AA?$AA@ 04030358     LIBCMT:winapinls.obj
 0002:00003360       ??_C@_15MNPNEAIF@?$AAe?$AAn?$AA?$AA@ 04030360     LIBCMT:winapinls.obj
 0002:00003368       ??_C@_15GPIOMPMH@?$AAe?$AAs?$AA?$AA@ 04030368     LIBCMT:winapinls.obj
 0002:00003370       ??_C@_15NGLOAKJC@?$AAf?$AAi?$AA?$AA@ 04030370     LIBCMT:winapinls.obj
 0002:00003378       ??_C@_15FBKGNKAM@?$AAf?$AAr?$AA?$AA@ 04030378     LIBCMT:winapinls.obj
 0002:00003380       ??_C@_15KGGCNEFK@?$AAh?$AAe?$AA?$AA@ 04030380     LIBCMT:winapinls.obj
 0002:00003388       ??_C@_15PGHLIDMF@?$AAh?$AAu?$AA?$AA@ 04030388     LIBCMT:winapinls.obj
 0002:00003390       ??_C@_15BIEMAPLM@?$AAi?$AAs?$AA?$AA@ 04030390     LIBCMT:winapinls.obj
 0002:00003398       ??_C@_15IFJLDHAF@?$AAi?$AAt?$AA?$AA@ 04030398     LIBCMT:winapinls.obj
 0002:000033a0       ??_C@_15GEMIOCAG@?$AAj?$AAa?$AA?$AA@ 040303a0     LIBCMT:winapinls.obj
 0002:000033a8       ??_C@_15EPELEGJA@?$AAk?$AAo?$AA?$AA@ 040303a8     LIBCMT:winapinls.obj
 0002:000033b0       ??_C@_15NDDHIMN@?$AAn?$AAl?$AA?$AA@ 040303b0     LIBCMT:winapinls.obj
 0002:000033b8       ??_C@_15BPIGNHCD@?$AAn?$AAo?$AA?$AA@ 040303b8     LIBCMT:winapinls.obj
 0002:000033c0       ??_C@_15DEOPBLCG@?$AAp?$AAl?$AA?$AA@ 040303c0     LIBCMT:winapinls.obj
 0002:000033c8       ??_C@_15KBECGEFG@?$AAp?$AAt?$AA?$AA@ 040303c8     LIBCMT:winapinls.obj
 0002:000033d0       ??_C@_15GLJCBFMD@?$AAr?$AAo?$AA?$AA@ 040303d0     LIBCMT:winapinls.obj
 0002:000033d8       ??_C@_15FEDGKCDI@?$AAr?$AAu?$AA?$AA@ 040303d8     LIBCMT:winapinls.obj
 0002:000033e0       ??_C@_15GLKMLLHM@?$AAh?$AAr?$AA?$AA@ 040303e0     LIBCMT:winapinls.obj
 0002:000033e8       ??_C@_15CPKMFBDB@?$AAs?$AAk?$AA?$AA@ 040303e8     LIBCMT:winapinls.obj
 0002:000033f0       ??_C@_15BAAIOGMK@?$AAs?$AAq?$AA?$AA@ 040303f0     LIBCMT:winapinls.obj
 0002:000033f8       ??_C@_15INNPNOHD@?$AAs?$AAv?$AA?$AA@ 040303f8     LIBCMT:winapinls.obj
 0002:00003400       ??_C@_15CABMMOGH@?$AAt?$AAh?$AA?$AA@ 04030400     LIBCMT:winapinls.obj
 0002:00003408       ??_C@_15BPLIHJJM@?$AAt?$AAr?$AA?$AA@ 04030408     LIBCMT:winapinls.obj
 0002:00003410       ??_C@_15NEOEKKDJ@?$AAu?$AAr?$AA?$AA@ 04030410     LIBCMT:winapinls.obj
 0002:00003418       ??_C@_15NFICGAJK@?$AAi?$AAd?$AA?$AA@ 04030418     LIBCMT:winapinls.obj
 0002:00003420       ??_C@_15PJPFLCCM@?$AAu?$AAk?$AA?$AA@ 04030420     LIBCMT:winapinls.obj
 0002:00003428       ??_C@_15HPJPHDM@?$AAb?$AAe?$AA?$AA@ 04030428     LIBCMT:winapinls.obj
 0002:00003430       ??_C@_15LCHLGJII@?$AAs?$AAl?$AA?$AA@ 04030430     LIBCMT:winapinls.obj
 0002:00003438       ??_C@_15PCFJPHHO@?$AAe?$AAt?$AA?$AA@ 04030438     LIBCMT:winapinls.obj
 0002:00003440       ??_C@_15HPFPGODN@?$AAl?$AAv?$AA?$AA@ 04030440     LIBCMT:winapinls.obj
 0002:00003448       ??_C@_15NFFGKGLG@?$AAl?$AAt?$AA?$AA@ 04030448     LIBCMT:winapinls.obj
 0002:00003450       ??_C@_15BDAKCCHN@?$AAf?$AAa?$AA?$AA@ 04030450     LIBCMT:winapinls.obj
 0002:00003458       ??_C@_15NFGIAIAJ@?$AAv?$AAi?$AA?$AA@ 04030458     LIBCMT:winapinls.obj
 0002:00003460       ??_C@_15LMKNDMHN@?$AAh?$AAy?$AA?$AA@ 04030460     LIBCMT:winapinls.obj
 0002:00003468       ??_C@_15IJBHMCFL@?$AAa?$AAz?$AA?$AA@ 04030468     LIBCMT:winapinls.obj
 0002:00003470       ??_C@_15EKOFJABL@?$AAe?$AAu?$AA?$AA@ 04030470     LIBCMT:winapinls.obj
 0002:00003478       ??_C@_15BGHADCNK@?$AAm?$AAk?$AA?$AA@ 04030478     LIBCMT:winapinls.obj
 0002:00003480       ??_C@_15JDNICKHM@?$AAa?$AAf?$AA?$AA@ 04030480     LIBCMT:winapinls.obj
 0002:00003488       ??_C@_15KPJEDBKD@?$AAk?$AAa?$AA?$AA@ 04030488     LIBCMT:winapinls.obj
 0002:00003490       ??_C@_15PDNFFFEO@?$AAf?$AAo?$AA?$AA@ 04030490     LIBCMT:winapinls.obj
 0002:00003498       ??_C@_15OMLEGLOC@?$AAh?$AAi?$AA?$AA@ 04030498     LIBCMT:winapinls.obj
 0002:000034a0       ??_C@_15IDNNENKK@?$AAm?$AAs?$AA?$AA@ 040304a0     LIBCMT:winapinls.obj
 0002:000034a8       ??_C@_15MACJNBMH@?$AAk?$AAk?$AA?$AA@ 040304a8     LIBCMT:winapinls.obj
 0002:000034b0       ??_C@_15DKDJEOND@?$AAk?$AAy?$AA?$AA@ 040304b0     LIBCMT:winapinls.obj
 0002:000034b8       ??_C@_15DFGDLJBG@?$AAs?$AAw?$AA?$AA@ 040304b8     LIBCMT:winapinls.obj
 0002:000034c0       ??_C@_15BBFAICNG@?$AAu?$AAz?$AA?$AA@ 040304c0     LIBCMT:winapinls.obj
 0002:000034c8       ??_C@_15DKNDCGEA@?$AAt?$AAt?$AA?$AA@ 040304c8     LIBCMT:winapinls.obj
 0002:000034d0       ??_C@_15MGIFMDPL@?$AAp?$AAa?$AA?$AA@ 040304d0     LIBCMT:winapinls.obj
 0002:000034d8       ??_C@_15HCNDBBA@?$AAg?$AAu?$AA?$AA@ 040304d8     LIBCMT:winapinls.obj
 0002:000034e0       ??_C@_15FNBEIBON@?$AAt?$AAa?$AA?$AA@ 040304e0     LIBCMT:winapinls.obj
 0002:000034e8       ??_C@_15NCHGBGLK@?$AAt?$AAe?$AA?$AA@ 040304e8     LIBCMT:winapinls.obj
 0002:000034f0       ??_C@_15PHPHCBPF@?$AAk?$AAn?$AA?$AA@ 040304f0     LIBCMT:winapinls.obj
 0002:000034f8       ??_C@_15DLGBCKMP@?$AAm?$AAr?$AA?$AA@ 040304f8     LIBCMT:winapinls.obj
 0002:00003500       ??_C@_15EABBLBFF@?$AAs?$AAa?$AA?$AA@ 04030500     LIBCMT:winapinls.obj
 0002:00003508       ??_C@_15CBKOMCOI@?$AAm?$AAn?$AA?$AA@ 04030508     LIBCMT:winapinls.obj
 0002:00003510       ??_C@_15CKDMCJAF@?$AAg?$AAl?$AA?$AA@ 04030510     LIBCMT:winapinls.obj
 0002:00003518       ??_C@_17CNJFBPG@?$AAk?$AAo?$AAk?$AA?$AA@ 04030518     LIBCMT:winapinls.obj
 0002:00003520       ??_C@_17FFBJICPL@?$AAs?$AAy?$AAr?$AA?$AA@ 04030520     LIBCMT:winapinls.obj
 0002:00003528       ??_C@_17KPNDCPAF@?$AAd?$AAi?$AAv?$AA?$AA@ 04030528     LIBCMT:winapinls.obj
 0002:00003530       ??_C@_11LOCGONAA@?$AA?$AA@ 04030530     LIBCMT:winapinls.obj
 0002:00003534       ??_C@_1M@OKAHONE@?$AAa?$AAr?$AA?9?$AAS?$AAA?$AA?$AA@ 04030534     LIBCMT:winapinls.obj
 0002:00003540       ??_C@_1M@FFFIGIGK@?$AAb?$AAg?$AA?9?$AAB?$AAG?$AA?$AA@ 04030540     LIBCMT:winapinls.obj
 0002:0000354c       ??_C@_1M@BJNKEDC@?$AAc?$AAa?$AA?9?$AAE?$AAS?$AA?$AA@ 0403054c     LIBCMT:winapinls.obj
 0002:00003558       ??_C@_1M@CLNBBOPM@?$AAz?$AAh?$AA?9?$AAT?$AAW?$AA?$AA@ 04030558     LIBCMT:winapinls.obj
 0002:00003564       ??_C@_1M@IJJHFJHA@?$AAc?$AAs?$AA?9?$AAC?$AAZ?$AA?$AA@ 04030564     LIBCMT:winapinls.obj
 0002:00003570       ??_C@_1M@CLPEOBGI@?$AAd?$AAa?$AA?9?$AAD?$AAK?$AA?$AA@ 04030570     LIBCMT:winapinls.obj
 0002:0000357c       ??_C@_1M@MCMADGCB@?$AAd?$AAe?$AA?9?$AAD?$AAE?$AA?$AA@ 0403057c     LIBCMT:winapinls.obj
 0002:00003588       ??_C@_1M@OOCKEMAM@?$AAe?$AAl?$AA?9?$AAG?$AAR?$AA?$AA@ 04030588     LIBCMT:winapinls.obj
 0002:00003594       ??_C@_1M@BMHNFIME@?$AAe?$AAn?$AA?9?$AAU?$AAS?$AA?$AA@ 04030594     LIBCMT:winapinls.obj
 0002:000035a0       ??_C@_1M@DDNJFGID@?$AAf?$AAi?$AA?9?$AAF?$AAI?$AA?$AA@ 040305a0     LIBCMT:winapinls.obj
 0002:000035ac       ??_C@_1M@GLIPPMAC@?$AAf?$AAr?$AA?9?$AAF?$AAR?$AA?$AA@ 040305ac     LIBCMT:winapinls.obj
 0002:000035b8       ??_C@_1M@GFMCHPE@?$AAh?$AAe?$AA?9?$AAI?$AAL?$AA?$AA@ 040305b8     LIBCMT:winapinls.obj
 0002:000035c4       ??_C@_1M@MHLPGNKM@?$AAh?$AAu?$AA?9?$AAH?$AAU?$AA?$AA@ 040305c4     LIBCMT:winapinls.obj
 0002:000035d0       ??_C@_1M@LPDDNNPN@?$AAi?$AAs?$AA?9?$AAI?$AAS?$AA?$AA@ 040305d0     LIBCMT:winapinls.obj
 0002:000035dc       ??_C@_1M@MADIPODN@?$AAi?$AAt?$AA?9?$AAI?$AAT?$AA?$AA@ 040305dc     LIBCMT:winapinls.obj
 0002:000035e8       ??_C@_1M@HPNHIDJI@?$AAj?$AAa?$AA?9?$AAJ?$AAP?$AA?$AA@ 040305e8     LIBCMT:winapinls.obj
 0002:000035f4       ??_C@_1M@JLOOOEGK@?$AAk?$AAo?$AA?9?$AAK?$AAR?$AA?$AA@ 040305f4     LIBCMT:winapinls.obj
 0002:00003600       ??_C@_1M@IHBJJGG@?$AAn?$AAl?$AA?9?$AAN?$AAL?$AA?$AA@ 04030600     LIBCMT:winapinls.obj
 0002:0000360c       ??_C@_1M@EANAGDL@?$AAn?$AAb?$AA?9?$AAN?$AAO?$AA?$AA@ 0403060c     LIBCMT:winapinls.obj
 0002:00003618       ??_C@_1M@NEIEMEGP@?$AAp?$AAl?$AA?9?$AAP?$AAL?$AA?$AA@ 04030618     LIBCMT:winapinls.obj
 0002:00003624       ??_C@_1M@BOCFIGEP@?$AAp?$AAt?$AA?9?$AAB?$AAR?$AA?$AA@ 04030624     LIBCMT:winapinls.obj
 0002:00003630       ??_C@_1M@IMPFOPBG@?$AAr?$AAo?$AA?9?$AAR?$AAO?$AA?$AA@ 04030630     LIBCMT:winapinls.obj
 0002:0000363c       ??_C@_1M@IDNNEJMM@?$AAr?$AAu?$AA?9?$AAR?$AAU?$AA?$AA@ 0403063c     LIBCMT:winapinls.obj
 0002:00003648       ??_C@_1M@LILEEOGM@?$AAh?$AAr?$AA?9?$AAH?$AAR?$AA?$AA@ 04030648     LIBCMT:winapinls.obj
 0002:00003654       ??_C@_1M@FKIFEHPB@?$AAs?$AAk?$AA?9?$AAS?$AAK?$AA?$AA@ 04030654     LIBCMT:winapinls.obj
 0002:00003660       ??_C@_1M@LJMAMNPJ@?$AAs?$AAq?$AA?9?$AAA?$AAL?$AA?$AA@ 04030660     LIBCMT:winapinls.obj
 0002:0000366c       ??_C@_1M@GIAKDKJK@?$AAs?$AAv?$AA?9?$AAS?$AAE?$AA?$AA@ 0403066c     LIBCMT:winapinls.obj
 0002:00003678       ??_C@_1M@MKJKIKCL@?$AAt?$AAh?$AA?9?$AAT?$AAH?$AA?$AA@ 04030678     LIBCMT:winapinls.obj
 0002:00003684       ??_C@_1M@MFLCCMPB@?$AAt?$AAr?$AA?9?$AAT?$AAR?$AA?$AA@ 04030684     LIBCMT:winapinls.obj
 0002:00003690       ??_C@_1M@OIJHDKJN@?$AAu?$AAr?$AA?9?$AAP?$AAK?$AA?$AA@ 04030690     LIBCMT:winapinls.obj
 0002:0000369c       ??_C@_1M@LHIPCIEK@?$AAi?$AAd?$AA?9?$AAI?$AAD?$AA?$AA@ 0403069c     LIBCMT:winapinls.obj
 0002:000036a8       ??_C@_1M@MFMOBGI@?$AAu?$AAk?$AA?9?$AAU?$AAA?$AA?$AA@ 040306a8     LIBCMT:winapinls.obj
 0002:000036b4       ??_C@_1M@OBGLJIPL@?$AAb?$AAe?$AA?9?$AAB?$AAY?$AA?$AA@ 040306b4     LIBCMT:winapinls.obj
 0002:000036c0       ??_C@_1M@BCFAJEAD@?$AAs?$AAl?$AA?9?$AAS?$AAI?$AA?$AA@ 040306c0     LIBCMT:winapinls.obj
 0002:000036cc       ??_C@_1M@FKFFEDDN@?$AAe?$AAt?$AA?9?$AAE?$AAE?$AA?$AA@ 040306cc     LIBCMT:winapinls.obj
 0002:000036d8       ??_C@_1M@KGKKAACI@?$AAl?$AAv?$AA?9?$AAL?$AAV?$AA?$AA@ 040306d8     LIBCMT:winapinls.obj
 0002:000036e4       ??_C@_1M@IFGBIJO@?$AAl?$AAt?$AA?9?$AAL?$AAT?$AA?$AA@ 040306e4     LIBCMT:winapinls.obj
 0002:000036f0       ??_C@_1M@FGEAHEDM@?$AAf?$AAa?$AA?9?$AAI?$AAR?$AA?$AA@ 040306f0     LIBCMT:winapinls.obj
 0002:000036fc       ??_C@_1M@KBMAIBFN@?$AAv?$AAi?$AA?9?$AAV?$AAN?$AA?$AA@ 040306fc     LIBCMT:winapinls.obj
 0002:00003708       ??_C@_1M@GPCBKDJK@?$AAh?$AAy?$AA?9?$AAA?$AAM?$AA?$AA@ 04030708     LIBCMT:winapinls.obj
 0002:00003714       ??_C@_1BG@BECMDDJB@?$AAa?$AAz?$AA?9?$AAA?$AAZ?$AA?9?$AAL?$AAa?$AAt?$AAn?$AA?$AA@ 04030714     LIBCMT:winapinls.obj
 0002:0000372c       ??_C@_1M@MAOFCAEA@?$AAe?$AAu?$AA?9?$AAE?$AAS?$AA?$AA@ 0403072c     LIBCMT:winapinls.obj
 0002:00003738       ??_C@_1M@IGHABKPI@?$AAm?$AAk?$AA?9?$AAM?$AAK?$AA?$AA@ 04030738     LIBCMT:winapinls.obj
 0002:00003744       ??_C@_1M@IAIGNEJG@?$AAt?$AAn?$AA?9?$AAZ?$AAA?$AA?$AA@ 04030744     LIBCMT:winapinls.obj
 0002:00003750       ??_C@_1M@IIJCOJFA@?$AAx?$AAh?$AA?9?$AAZ?$AAA?$AA?$AA@ 04030750     LIBCMT:winapinls.obj
 0002:0000375c       ??_C@_1M@LGPJHNJH@?$AAz?$AAu?$AA?9?$AAZ?$AAA?$AA?$AA@ 0403075c     LIBCMT:winapinls.obj
 0002:00003768       ??_C@_1M@HOKAOIO@?$AAa?$AAf?$AA?9?$AAZ?$AAA?$AA?$AA@ 04030768     LIBCMT:winapinls.obj
 0002:00003774       ??_C@_1M@DPCLHLIE@?$AAk?$AAa?$AA?9?$AAG?$AAE?$AA?$AA@ 04030774     LIBCMT:winapinls.obj
 0002:00003780       ??_C@_1M@BLKMHJBI@?$AAf?$AAo?$AA?9?$AAF?$AAO?$AA?$AA@ 04030780     LIBCMT:winapinls.obj
 0002:0000378c       ??_C@_1M@LGGJAPPB@?$AAh?$AAi?$AA?9?$AAI?$AAN?$AA?$AA@ 0403078c     LIBCMT:winapinls.obj
 0002:00003798       ??_C@_1M@FIKPIHFE@?$AAm?$AAt?$AA?9?$AAM?$AAT?$AA?$AA@ 04030798     LIBCMT:winapinls.obj
 0002:000037a4       ??_C@_1M@HEGGPBFA@?$AAs?$AAe?$AA?9?$AAN?$AAO?$AA?$AA@ 040307a4     LIBCMT:winapinls.obj
 0002:000037b0       ??_C@_1M@EIBJEEPA@?$AAm?$AAs?$AA?9?$AAM?$AAY?$AA?$AA@ 040307b0     LIBCMT:winapinls.obj
 0002:000037bc       ??_C@_1M@FHLBGMPP@?$AAk?$AAk?$AA?9?$AAK?$AAZ?$AA?$AA@ 040307bc     LIBCMT:winapinls.obj
 0002:000037c8       ??_C@_1M@NGJJLCGI@?$AAk?$AAy?$AA?9?$AAK?$AAG?$AA?$AA@ 040307c8     LIBCMT:winapinls.obj
 0002:000037d4       ??_C@_1M@GIENNBFC@?$AAs?$AAw?$AA?9?$AAK?$AAE?$AA?$AA@ 040307d4     LIBCMT:winapinls.obj
 0002:000037e0       ??_C@_1BG@NDGMJIMJ@?$AAu?$AAz?$AA?9?$AAU?$AAZ?$AA?9?$AAL?$AAa?$AAt?$AAn?$AA?$AA@ 040307e0     LIBCMT:winapinls.obj
 0002:000037f8       ??_C@_1M@IDCCIHBC@?$AAt?$AAt?$AA?9?$AAR?$AAU?$AA?$AA@ 040307f8     LIBCMT:winapinls.obj
 0002:00003804       ??_C@_1M@LOICPMOJ@?$AAb?$AAn?$AA?9?$AAI?$AAN?$AA?$AA@ 04030804     LIBCMT:winapinls.obj
 0002:00003810       ??_C@_1M@KPKKNEAH@?$AAp?$AAa?$AA?9?$AAI?$AAN?$AA?$AA@ 04030810     LIBCMT:winapinls.obj
 0002:0000381c       ??_C@_1M@PJGPPBOG@?$AAg?$AAu?$AA?9?$AAI?$AAN?$AA?$AA@ 0403081c     LIBCMT:winapinls.obj
 0002:00003828       ??_C@_1M@KMKMOPHI@?$AAt?$AAa?$AA?9?$AAI?$AAN?$AA?$AA@ 04030828     LIBCMT:winapinls.obj
 0002:00003834       ??_C@_1M@KFEHEPAC@?$AAt?$AAe?$AA?9?$AAI?$AAN?$AA?$AA@ 04030834     LIBCMT:winapinls.obj
 0002:00003840       ??_C@_1M@CDCLMGHI@?$AAk?$AAn?$AA?9?$AAI?$AAN?$AA?$AA@ 04030840     LIBCMT:winapinls.obj
 0002:0000384c       ??_C@_1M@MIODLDKF@?$AAm?$AAl?$AA?9?$AAI?$AAN?$AA?$AA@ 0403084c     LIBCMT:winapinls.obj
 0002:00003858       ??_C@_1M@PBIEACPO@?$AAm?$AAr?$AA?9?$AAI?$AAN?$AA?$AA@ 04030858     LIBCMT:winapinls.obj
 0002:00003864       ??_C@_1M@NIDEAGPH@?$AAs?$AAa?$AA?9?$AAI?$AAN?$AA?$AA@ 04030864     LIBCMT:winapinls.obj
 0002:00003870       ??_C@_1M@FHIHCBIO@?$AAm?$AAn?$AA?9?$AAM?$AAN?$AA?$AA@ 04030870     LIBCMT:winapinls.obj
 0002:0000387c       ??_C@_1M@JAIJPENP@?$AAc?$AAy?$AA?9?$AAG?$AAB?$AA?$AA@ 0403087c     LIBCMT:winapinls.obj
 0002:00003888       ??_C@_1M@PHGFBEPN@?$AAg?$AAl?$AA?9?$AAE?$AAS?$AA?$AA@ 04030888     LIBCMT:winapinls.obj
 0002:00003894       ??_C@_1O@KPIPDNCP@?$AAk?$AAo?$AAk?$AA?9?$AAI?$AAN?$AA?$AA@ 04030894     LIBCMT:winapinls.obj
 0002:000038a4       ??_C@_1O@KNHJLDJA@?$AAs?$AAy?$AAr?$AA?9?$AAS?$AAY?$AA?$AA@ 040308a4     LIBCMT:winapinls.obj
 0002:000038b4       ??_C@_1O@MKEKBLAH@?$AAd?$AAi?$AAv?$AA?9?$AAM?$AAV?$AA?$AA@ 040308b4     LIBCMT:winapinls.obj
 0002:000038c4       ??_C@_1O@OHDCKDDF@?$AAq?$AAu?$AAz?$AA?9?$AAB?$AAO?$AA?$AA@ 040308c4     LIBCMT:winapinls.obj
 0002:000038d4       ??_C@_1M@LEPJNLFD@?$AAn?$AAs?$AA?9?$AAZ?$AAA?$AA?$AA@ 040308d4     LIBCMT:winapinls.obj
 0002:000038e0       ??_C@_1M@OMLEIIJB@?$AAm?$AAi?$AA?9?$AAN?$AAZ?$AA?$AA@ 040308e0     LIBCMT:winapinls.obj
 0002:000038ec       ??_C@_1M@PMPEAILG@?$AAa?$AAr?$AA?9?$AAI?$AAQ?$AA?$AA@ 040308ec     LIBCMT:winapinls.obj
 0002:000038f8       ??_C@_1M@BIBDDEMK@?$AAz?$AAh?$AA?9?$AAC?$AAN?$AA?$AA@ 040308f8     LIBCMT:winapinls.obj
 0002:00003904       ??_C@_1M@CNKPNOEE@?$AAd?$AAe?$AA?9?$AAC?$AAH?$AA?$AA@ 04030904     LIBCMT:winapinls.obj
 0002:00003910       ??_C@_1M@LKMGMLKO@?$AAe?$AAn?$AA?9?$AAG?$AAB?$AA?$AA@ 04030910     LIBCMT:winapinls.obj
 0002:0000391c       ??_C@_1M@PGKJFFGL@?$AAe?$AAs?$AA?9?$AAM?$AAX?$AA?$AA@ 0403091c     LIBCMT:winapinls.obj
 0002:00003928       ??_C@_1M@DNNANBDC@?$AAf?$AAr?$AA?9?$AAB?$AAE?$AA?$AA@ 04030928     LIBCMT:winapinls.obj
 0002:00003934       ??_C@_1M@HLGMDFHM@?$AAi?$AAt?$AA?9?$AAC?$AAH?$AA?$AA@ 04030934     LIBCMT:winapinls.obj
 0002:00003940       ??_C@_1M@CLLBGJH@?$AAn?$AAl?$AA?9?$AAB?$AAE?$AA?$AA@ 04030940     LIBCMT:winapinls.obj
 0002:0000394c       ??_C@_1M@BODBOGLF@?$AAn?$AAn?$AA?9?$AAN?$AAO?$AA?$AA@ 0403094c     LIBCMT:winapinls.obj
 0002:00003958       ??_C@_1M@HFFAHKAD@?$AAp?$AAt?$AA?9?$AAP?$AAT?$AA?$AA@ 04030958     LIBCMT:winapinls.obj
 0002:00003964       ??_C@_1BG@LNOAKHIE@?$AAs?$AAr?$AA?9?$AAS?$AAP?$AA?9?$AAL?$AAa?$AAt?$AAn?$AA?$AA@ 04030964     LIBCMT:winapinls.obj
 0002:0000397c       ??_C@_1M@HBMHBGAK@?$AAs?$AAv?$AA?9?$AAF?$AAI?$AA?$AA@ 0403097c     LIBCMT:winapinls.obj
 0002:00003988       ??_C@_1BG@DGCJGJBE@?$AAa?$AAz?$AA?9?$AAA?$AAZ?$AA?9?$AAC?$AAy?$AAr?$AAl?$AA?$AA@ 04030988     LIBCMT:winapinls.obj
 0002:000039a0       ??_C@_1M@KEJDAAHB@?$AAs?$AAe?$AA?9?$AAS?$AAE?$AA?$AA@ 040309a0     LIBCMT:winapinls.obj
 0002:000039ac       ??_C@_1M@HEIBJJAD@?$AAm?$AAs?$AA?9?$AAB?$AAN?$AA?$AA@ 040309ac     LIBCMT:winapinls.obj
 0002:000039b8       ??_C@_1BG@PBGJMCEM@?$AAu?$AAz?$AA?9?$AAU?$AAZ?$AA?9?$AAC?$AAy?$AAr?$AAl?$AA?$AA@ 040309b8     LIBCMT:winapinls.obj
 0002:000039d0       ??_C@_1O@LAOBCMDF@?$AAq?$AAu?$AAz?$AA?9?$AAE?$AAC?$AA?$AA@ 040309d0     LIBCMT:winapinls.obj
 0002:000039e0       ??_C@_1M@POEEMAIO@?$AAa?$AAr?$AA?9?$AAE?$AAG?$AA?$AA@ 040309e0     LIBCMT:winapinls.obj
 0002:000039ec       ??_C@_1M@EFAKDEDL@?$AAz?$AAh?$AA?9?$AAH?$AAK?$AA?$AA@ 040309ec     LIBCMT:winapinls.obj
 0002:000039f8       ??_C@_1M@HKKIJHGI@?$AAd?$AAe?$AA?9?$AAA?$AAT?$AA?$AA@ 040309f8     LIBCMT:winapinls.obj
 0002:00003a04       ??_C@_1M@KBFBEHJF@?$AAe?$AAn?$AA?9?$AAA?$AAU?$AA?$AA@ 04030a04     LIBCMT:winapinls.obj
 0002:00003a10       ??_C@_1M@MNPLFAAH@?$AAe?$AAs?$AA?9?$AAE?$AAS?$AA?$AA@ 04030a10     LIBCMT:winapinls.obj
 0002:00003a1c       ??_C@_1M@HJOOJFMA@?$AAf?$AAr?$AA?9?$AAC?$AAA?$AA?$AA@ 04030a1c     LIBCMT:winapinls.obj
 0002:00003a28       ??_C@_1BG@JPOFPNAB@?$AAs?$AAr?$AA?9?$AAS?$AAP?$AA?9?$AAC?$AAy?$AAr?$AAl?$AA?$AA@ 04030a28     LIBCMT:winapinls.obj
 0002:00003a40       ??_C@_1M@LNFOCMOB@?$AAs?$AAe?$AA?9?$AAF?$AAI?$AA?$AA@ 04030a40     LIBCMT:winapinls.obj
 0002:00003a4c       ??_C@_1O@MGJBOAMB@?$AAq?$AAu?$AAz?$AA?9?$AAP?$AAE?$AA?$AA@ 04030a4c     LIBCMT:winapinls.obj
 0002:00003a5c       ??_C@_1M@GJINLBOK@?$AAa?$AAr?$AA?9?$AAL?$AAY?$AA?$AA@ 04030a5c     LIBCMT:winapinls.obj
 0002:00003a68       ??_C@_1M@GGMNHJNL@?$AAz?$AAh?$AA?9?$AAS?$AAG?$AA?$AA@ 04030a68     LIBCMT:winapinls.obj
 0002:00003a74       ??_C@_1M@HOIKODND@?$AAd?$AAe?$AA?9?$AAL?$AAU?$AA?$AA@ 04030a74     LIBCMT:winapinls.obj
 0002:00003a80       ??_C@_1M@DDOCCGFG@?$AAe?$AAn?$AA?9?$AAC?$AAA?$AA?$AA@ 04030a80     LIBCMT:winapinls.obj
 0002:00003a8c       ??_C@_1M@BNOEMJLF@?$AAe?$AAs?$AA?9?$AAG?$AAT?$AA?$AA@ 04030a8c     LIBCMT:winapinls.obj
 0002:00003a98       ??_C@_1M@EOGNKEK@?$AAf?$AAr?$AA?9?$AAC?$AAH?$AA?$AA@ 04030a98     LIBCMT:winapinls.obj
 0002:00003aa4       ??_C@_1M@FLIDJFHL@?$AAh?$AAr?$AA?9?$AAB?$AAA?$AA?$AA@ 04030aa4     LIBCMT:winapinls.obj
 0002:00003ab0       ??_C@_1O@FMCELNAJ@?$AAs?$AAm?$AAj?$AA?9?$AAN?$AAO?$AA?$AA@ 04030ab0     LIBCMT:winapinls.obj
 0002:00003ac0       ??_C@_1M@JHGLJMGJ@?$AAa?$AAr?$AA?9?$AAD?$AAZ?$AA?$AA@ 04030ac0     LIBCMT:winapinls.obj
 0002:00003acc       ??_C@_1M@JKKFDCNP@?$AAz?$AAh?$AA?9?$AAM?$AAO?$AA?$AA@ 04030acc     LIBCMT:winapinls.obj
 0002:00003ad8       ??_C@_1M@GEEFALPE@?$AAd?$AAe?$AA?9?$AAL?$AAI?$AA?$AA@ 04030ad8     LIBCMT:winapinls.obj
 0002:00003ae4       ??_C@_1M@IGEOFBG@?$AAe?$AAn?$AA?9?$AAN?$AAZ?$AA?$AA@ 04030ae4     LIBCMT:winapinls.obj
 0002:00003af0       ??_C@_1M@KDBONEHP@?$AAe?$AAs?$AA?9?$AAC?$AAR?$AA?$AA@ 04030af0     LIBCMT:winapinls.obj
 0002:00003afc       ??_C@_1M@FHMDOHNN@?$AAf?$AAr?$AA?9?$AAL?$AAU?$AA?$AA@ 04030afc     LIBCMT:winapinls.obj
 0002:00003b08       ??_C@_1BG@NFKKMAFG@?$AAb?$AAs?$AA?9?$AAB?$AAA?$AA?9?$AAL?$AAa?$AAt?$AAn?$AA?$AA@ 04030b08     LIBCMT:winapinls.obj
 0002:00003b20       ??_C@_1O@IMNBEMCI@?$AAs?$AAm?$AAj?$AA?9?$AAS?$AAE?$AA?$AA@ 04030b20     LIBCMT:winapinls.obj
 0002:00003b30       ??_C@_1M@DHHMBNDP@?$AAa?$AAr?$AA?9?$AAM?$AAA?$AA?$AA@ 04030b30     LIBCMT:winapinls.obj
 0002:00003b3c       ??_C@_1M@BNBLJCGH@?$AAe?$AAn?$AA?9?$AAI?$AAE?$AA?$AA@ 04030b3c     LIBCMT:winapinls.obj
 0002:00003b48       ??_C@_1M@GEPAFMDL@?$AAe?$AAs?$AA?9?$AAP?$AAA?$AA?$AA@ 04030b48     LIBCMT:winapinls.obj
 0002:00003b54       ??_C@_1M@OJONDMDL@?$AAf?$AAr?$AA?9?$AAM?$AAC?$AA?$AA@ 04030b54     LIBCMT:winapinls.obj
 0002:00003b60       ??_C@_1BG@OBCNFJB@?$AAs?$AAr?$AA?9?$AAB?$AAA?$AA?9?$AAL?$AAa?$AAt?$AAn?$AA?$AA@ 04030b60     LIBCMT:winapinls.obj
 0002:00003b78       ??_C@_1O@KEMEEGPO@?$AAs?$AAm?$AAa?$AA?9?$AAN?$AAO?$AA?$AA@ 04030b78     LIBCMT:winapinls.obj
 0002:00003b88       ??_C@_1M@ELMGFODK@?$AAa?$AAr?$AA?9?$AAT?$AAN?$AA?$AA@ 04030b88     LIBCMT:winapinls.obj
 0002:00003b94       ??_C@_1M@BHDLHFAF@?$AAe?$AAn?$AA?9?$AAZ?$AAA?$AA?$AA@ 04030b94     LIBCMT:winapinls.obj
 0002:00003ba0       ??_C@_1M@BMGIGLIF@?$AAe?$AAs?$AA?9?$AAD?$AAO?$AA?$AA@ 04030ba0     LIBCMT:winapinls.obj
 0002:00003bac       ??_C@_1BG@CMBHIPBE@?$AAs?$AAr?$AA?9?$AAB?$AAA?$AA?9?$AAC?$AAy?$AAr?$AAl?$AA?$AA@ 04030bac     LIBCMT:winapinls.obj
 0002:00003bc4       ??_C@_1O@HEDBLHNP@?$AAs?$AAm?$AAa?$AA?9?$AAS?$AAE?$AA?$AA@ 04030bc4     LIBCMT:winapinls.obj
 0002:00003bd4       ??_C@_1M@DAGCADIM@?$AAa?$AAr?$AA?9?$AAO?$AAM?$AA?$AA@ 04030bd4     LIBCMT:winapinls.obj
 0002:00003be0       ??_C@_1M@FODLMICG@?$AAe?$AAn?$AA?9?$AAJ?$AAM?$AA?$AA@ 04030be0     LIBCMT:winapinls.obj
 0002:00003bec       ??_C@_1M@DNMLCIHB@?$AAe?$AAs?$AA?9?$AAV?$AAE?$AA?$AA@ 04030bec     LIBCMT:winapinls.obj
 0002:00003bf8       ??_C@_1O@EOKHMKJK@?$AAs?$AAm?$AAs?$AA?9?$AAF?$AAI?$AA?$AA@ 04030bf8     LIBCMT:winapinls.obj
 0002:00003c08       ??_C@_1M@CAFJMKOF@?$AAa?$AAr?$AA?9?$AAY?$AAE?$AA?$AA@ 04030c08     LIBCMT:winapinls.obj
 0002:00003c14       ??_C@_1M@CBFHIJLI@?$AAe?$AAn?$AA?9?$AAC?$AAB?$AA?$AA@ 04030c14     LIBCMT:winapinls.obj
 0002:00003c20       ??_C@_1M@BGNFLDN@?$AAe?$AAs?$AA?9?$AAC?$AAO?$AA?$AA@ 04030c20     LIBCMT:winapinls.obj
 0002:00003c2c       ??_C@_1O@JMPHMAMC@?$AAs?$AAm?$AAn?$AA?9?$AAF?$AAI?$AA?$AA@ 04030c2c     LIBCMT:winapinls.obj
 0002:00003c3c       ??_C@_1M@JLANABKE@?$AAa?$AAr?$AA?9?$AAS?$AAY?$AA?$AA@ 04030c3c     LIBCMT:winapinls.obj
 0002:00003c48       ??_C@_1M@HPKGCFGN@?$AAe?$AAn?$AA?9?$AAB?$AAZ?$AA?$AA@ 04030c48     LIBCMT:winapinls.obj
 0002:00003c54       ??_C@_1M@OLJCMLGM@?$AAe?$AAs?$AA?9?$AAP?$AAE?$AA?$AA@ 04030c54     LIBCMT:winapinls.obj
 0002:00003c60       ??_C@_1M@MKKGFKLE@?$AAa?$AAr?$AA?9?$AAJ?$AAO?$AA?$AA@ 04030c60     LIBCMT:winapinls.obj
 0002:00003c6c       ??_C@_1M@EKPGLDNI@?$AAe?$AAn?$AA?9?$AAT?$AAT?$AA?$AA@ 04030c6c     LIBCMT:winapinls.obj
 0002:00003c78       ??_C@_1M@OONGHFHE@?$AAe?$AAs?$AA?9?$AAA?$AAR?$AA?$AA@ 04030c78     LIBCMT:winapinls.obj
 0002:00003c84       ??_C@_1M@OOJFGBHE@?$AAa?$AAr?$AA?9?$AAL?$AAB?$AA?$AA@ 04030c84     LIBCMT:winapinls.obj
 0002:00003c90       ??_C@_1M@GCEJHNEG@?$AAe?$AAn?$AA?9?$AAZ?$AAW?$AA?$AA@ 04030c90     LIBCMT:winapinls.obj
 0002:00003c9c       ??_C@_1M@JNOCAHJI@?$AAe?$AAs?$AA?9?$AAE?$AAC?$AA?$AA@ 04030c9c     LIBCMT:winapinls.obj
 0002:00003ca8       ??_C@_1M@JEFHPGGB@?$AAa?$AAr?$AA?9?$AAK?$AAW?$AA?$AA@ 04030ca8     LIBCMT:winapinls.obj
 0002:00003cb4       ??_C@_1M@MLKIBJOJ@?$AAe?$AAn?$AA?9?$AAP?$AAH?$AA?$AA@ 04030cb4     LIBCMT:winapinls.obj
 0002:00003cc0       ??_C@_1M@BDNIPEND@?$AAe?$AAs?$AA?9?$AAC?$AAL?$AA?$AA@ 04030cc0     LIBCMT:winapinls.obj
 0002:00003ccc       ??_C@_1M@MPNMEKBD@?$AAa?$AAr?$AA?9?$AAA?$AAE?$AA?$AA@ 04030ccc     LIBCMT:winapinls.obj
 0002:00003cd8       ??_C@_1M@KBJALCPI@?$AAe?$AAs?$AA?9?$AAU?$AAY?$AA?$AA@ 04030cd8     LIBCMT:winapinls.obj
 0002:00003ce4       ??_C@_1M@LLCCOAGA@?$AAa?$AAr?$AA?9?$AAB?$AAH?$AA?$AA@ 04030ce4     LIBCMT:winapinls.obj
 0002:00003cf0       ??_C@_1M@PBFNCDEL@?$AAe?$AAs?$AA?9?$AAP?$AAY?$AA?$AA@ 04030cf0     LIBCMT:winapinls.obj
 0002:00003cfc       ??_C@_1M@EDGINPNP@?$AAa?$AAr?$AA?9?$AAQ?$AAA?$AA?$AA@ 04030cfc     LIBCMT:winapinls.obj
 0002:00003d08       ??_C@_1M@MKDBIIJI@?$AAe?$AAs?$AA?9?$AAB?$AAO?$AA?$AA@ 04030d08     LIBCMT:winapinls.obj
 0002:00003d14       ??_C@_1M@CPKKEBLD@?$AAe?$AAs?$AA?9?$AAS?$AAV?$AA?$AA@ 04030d14     LIBCMT:winapinls.obj
 0002:00003d20       ??_C@_1M@NDBGMMJL@?$AAe?$AAs?$AA?9?$AAH?$AAN?$AA?$AA@ 04030d20     LIBCMT:winapinls.obj
 0002:00003d2c       ??_C@_1M@JIJIBHDP@?$AAe?$AAs?$AA?9?$AAN?$AAI?$AA?$AA@ 04030d2c     LIBCMT:winapinls.obj
 0002:00003d38       ??_C@_1M@CGFMKEEK@?$AAe?$AAs?$AA?9?$AAP?$AAR?$AA?$AA@ 04030d38     LIBCMT:winapinls.obj
 0002:00003d44       ??_C@_1O@ICJHKIIK@?$AAz?$AAh?$AA?9?$AAC?$AAH?$AAT?$AA?$AA@ 04030d44     LIBCMT:winapinls.obj
 0002:00003d54       ??_C@_15CLNEJCE@?$AAs?$AAr?$AA?$AA@ 04030d54     LIBCMT:winapinls.obj
 0002:00003d5c       ??_C@_1M@KAHEKEIG@?$AAa?$AAf?$AA?9?$AAz?$AAa?$AA?$AA@ 04030d5c     LIBCMT:winapinls.obj
 0002:00003d68       ??_C@_1M@GIECOABL@?$AAa?$AAr?$AA?9?$AAa?$AAe?$AA?$AA@ 04030d68     LIBCMT:winapinls.obj
 0002:00003d74       ??_C@_1M@BMLMEKGI@?$AAa?$AAr?$AA?9?$AAb?$AAh?$AA?$AA@ 04030d74     LIBCMT:winapinls.obj
 0002:00003d80       ??_C@_1M@DAPFDGGB@?$AAa?$AAr?$AA?9?$AAd?$AAz?$AA?$AA@ 04030d80     LIBCMT:winapinls.obj
 0002:00003d8c       ??_C@_1M@FJNKGKIG@?$AAa?$AAr?$AA?9?$AAe?$AAg?$AA?$AA@ 04030d8c     LIBCMT:winapinls.obj
 0002:00003d98       ??_C@_1M@FLGKKCLO@?$AAa?$AAr?$AA?9?$AAi?$AAq?$AA?$AA@ 04030d98     LIBCMT:winapinls.obj
 0002:00003da4       ??_C@_1M@GNDIPALM@?$AAa?$AAr?$AA?9?$AAj?$AAo?$AA?$AA@ 04030da4     LIBCMT:winapinls.obj
 0002:00003db0       ??_C@_1M@DDMJFMGJ@?$AAa?$AAr?$AA?9?$AAk?$AAw?$AA?$AA@ 04030db0     LIBCMT:winapinls.obj
 0002:00003dbc       ??_C@_1M@EJALMLHM@?$AAa?$AAr?$AA?9?$AAl?$AAb?$AA?$AA@ 04030dbc     LIBCMT:winapinls.obj
 0002:00003dc8       ??_C@_1M@MOBDBLOC@?$AAa?$AAr?$AA?9?$AAl?$AAy?$AA?$AA@ 04030dc8     LIBCMT:winapinls.obj
 0002:00003dd4       ??_C@_1M@JAOCLHDH@?$AAa?$AAr?$AA?9?$AAm?$AAa?$AA?$AA@ 04030dd4     LIBCMT:winapinls.obj
 0002:00003de0       ??_C@_1M@JHPMKJIE@?$AAa?$AAr?$AA?9?$AAo?$AAm?$AA?$AA@ 04030de0     LIBCMT:winapinls.obj
 0002:00003dec       ??_C@_1M@OEPGHFNH@?$AAa?$AAr?$AA?9?$AAq?$AAa?$AA?$AA@ 04030dec     LIBCMT:winapinls.obj
 0002:00003df8       ??_C@_1M@KJDONENM@?$AAa?$AAr?$AA?9?$AAs?$AAa?$AA?$AA@ 04030df8     LIBCMT:winapinls.obj
 0002:00003e04       ??_C@_1M@DMJDKLKM@?$AAa?$AAr?$AA?9?$AAs?$AAy?$AA?$AA@ 04030e04     LIBCMT:winapinls.obj
 0002:00003e10       ??_C@_1M@OMFIPEDC@?$AAa?$AAr?$AA?9?$AAt?$AAn?$AA?$AA@ 04030e10     LIBCMT:winapinls.obj
 0002:00003e1c       ??_C@_1M@IHMHGAON@?$AAa?$AAr?$AA?9?$AAy?$AAe?$AA?$AA@ 04030e1c     LIBCMT:winapinls.obj
 0002:00003e28       ??_C@_1BG@KDCPGJGB@?$AAa?$AAz?$AA?9?$AAa?$AAz?$AA?9?$AAc?$AAy?$AAr?$AAl?$AA?$AA@ 04030e28     LIBCMT:winapinls.obj
 0002:00003e40       ??_C@_1BG@IBCKDDOE@?$AAa?$AAz?$AA?9?$AAa?$AAz?$AA?9?$AAl?$AAa?$AAt?$AAn?$AA?$AA@ 04030e40     LIBCMT:winapinls.obj
 0002:00003e58       ??_C@_1M@EGPFDCPD@?$AAb?$AAe?$AA?9?$AAb?$AAy?$AA?$AA@ 04030e58     LIBCMT:winapinls.obj
 0002:00003e64       ??_C@_1M@PCMGMCGC@?$AAb?$AAg?$AA?9?$AAb?$AAg?$AA?$AA@ 04030e64     LIBCMT:winapinls.obj
 0002:00003e70       ??_C@_1M@BJBMFGOB@?$AAb?$AAn?$AA?9?$AAi?$AAn?$AA?$AA@ 04030e70     LIBCMT:winapinls.obj
 0002:00003e7c       ??_C@_1BG@EAKMMACD@?$AAb?$AAs?$AA?9?$AAb?$AAa?$AA?9?$AAl?$AAa?$AAt?$AAn?$AA?$AA@ 04030e7c     LIBCMT:winapinls.obj
 0002:00003e94       ??_C@_1M@KGADAODK@?$AAc?$AAa?$AA?9?$AAe?$AAs?$AA?$AA@ 04030e94     LIBCMT:winapinls.obj
 0002:00003ea0       ??_C@_1M@COAJPDHI@?$AAc?$AAs?$AA?9?$AAc?$AAz?$AA?$AA@ 04030ea0     LIBCMT:winapinls.obj
 0002:00003eac       ??_C@_1M@DHBHFONH@?$AAc?$AAy?$AA?9?$AAg?$AAb?$AA?$AA@ 04030eac     LIBCMT:winapinls.obj
 0002:00003eb8       ??_C@_1M@IMGKELGA@?$AAd?$AAa?$AA?9?$AAd?$AAk?$AA?$AA@ 04030eb8     LIBCMT:winapinls.obj
 0002:00003ec4       ??_C@_1M@NNDGDNGA@?$AAd?$AAe?$AA?9?$AAa?$AAt?$AA?$AA@ 04030ec4     LIBCMT:winapinls.obj
 0002:00003ed0       ??_C@_1M@IKDBHEEM@?$AAd?$AAe?$AA?9?$AAc?$AAh?$AA?$AA@ 04030ed0     LIBCMT:winapinls.obj
 0002:00003edc       ??_C@_1M@GFFOJMCJ@?$AAd?$AAe?$AA?9?$AAd?$AAe?$AA?$AA@ 04030edc     LIBCMT:winapinls.obj
 0002:00003ee8       ??_C@_1M@MDNLKBPM@?$AAd?$AAe?$AA?9?$AAl?$AAi?$AA?$AA@ 04030ee8     LIBCMT:winapinls.obj
 0002:00003ef4       ??_C@_1M@NJBEEJNL@?$AAd?$AAe?$AA?9?$AAl?$AAu?$AA?$AA@ 04030ef4     LIBCMT:winapinls.obj
 0002:00003f00       ??_C@_1O@GNNELBAP@?$AAd?$AAi?$AAv?$AA?9?$AAm?$AAv?$AA?$AA@ 04030f00     LIBCMT:winapinls.obj
 0002:00003f10       ??_C@_1M@EJLEOGAE@?$AAe?$AAl?$AA?9?$AAg?$AAr?$AA?$AA@ 04030f10     LIBCMT:winapinls.obj
 0002:00003f1c       ??_C@_1M@GMPONJN@?$AAe?$AAn?$AA?9?$AAa?$AAu?$AA?$AA@ 04030f1c     LIBCMT:winapinls.obj
 0002:00003f28       ??_C@_1M@NIDIIPGF@?$AAe?$AAn?$AA?9?$AAb?$AAz?$AA?$AA@ 04030f28     LIBCMT:winapinls.obj
 0002:00003f34       ??_C@_1M@JEHMIMFO@?$AAe?$AAn?$AA?9?$AAc?$AAa?$AA?$AA@ 04030f34     LIBCMT:winapinls.obj
 0002:00003f40       ??_C@_1M@IGMJCDLA@?$AAe?$AAn?$AA?9?$AAc?$AAb?$AA?$AA@ 04030f40     LIBCMT:winapinls.obj
 0002:00003f4c       ??_C@_1M@BNFIGBKG@?$AAe?$AAn?$AA?9?$AAg?$AAb?$AA?$AA@ 04030f4c     LIBCMT:winapinls.obj
 0002:00003f58       ??_C@_1M@LKIFDIGP@?$AAe?$AAn?$AA?9?$AAi?$AAe?$AA?$AA@ 04030f58     LIBCMT:winapinls.obj
 0002:00003f64       ??_C@_1M@PJKFGCCO@?$AAe?$AAn?$AA?9?$AAj?$AAm?$AA?$AA@ 04030f64     LIBCMT:winapinls.obj
 0002:00003f70       ??_C@_1M@KPPKEPBO@?$AAe?$AAn?$AA?9?$AAn?$AAz?$AA?$AA@ 04030f70     LIBCMT:winapinls.obj
 0002:00003f7c       ??_C@_1M@GMDGLDOB@?$AAe?$AAn?$AA?9?$AAp?$AAh?$AA?$AA@ 04030f7c     LIBCMT:winapinls.obj
 0002:00003f88       ??_C@_1M@ONGIBJNA@?$AAe?$AAn?$AA?9?$AAt?$AAt?$AA?$AA@ 04030f88     LIBCMT:winapinls.obj
 0002:00003f94       ??_C@_1M@LLODPCMM@?$AAe?$AAn?$AA?9?$AAu?$AAs?$AA?$AA@ 04030f94     LIBCMT:winapinls.obj
 0002:00003fa0       ??_C@_1M@LAKFNPAN@?$AAe?$AAn?$AA?9?$AAz?$AAa?$AA?$AA@ 04030fa0     LIBCMT:winapinls.obj
 0002:00003fac       ??_C@_1M@MFNHNHEO@?$AAe?$AAn?$AA?9?$AAz?$AAw?$AA?$AA@ 04030fac     LIBCMT:winapinls.obj
 0002:00003fb8       ??_C@_1M@EJEINPHM@?$AAe?$AAs?$AA?9?$AAa?$AAr?$AA?$AA@ 04030fb8     LIBCMT:winapinls.obj
 0002:00003fc4       ??_C@_1M@GNKPCCJA@?$AAe?$AAs?$AA?9?$AAb?$AAo?$AA?$AA@ 04030fc4     LIBCMT:winapinls.obj
 0002:00003fd0       ??_C@_1M@LEEGFONL@?$AAe?$AAs?$AA?9?$AAc?$AAl?$AA?$AA@ 04030fd0     LIBCMT:winapinls.obj
 0002:00003fdc       ??_C@_1M@KGPDPBDF@?$AAe?$AAs?$AA?9?$AAc?$AAo?$AA?$AA@ 04030fdc     LIBCMT:winapinls.obj
 0002:00003fe8       ??_C@_1M@EIAHOHH@?$AAe?$AAs?$AA?9?$AAc?$AAr?$AA?$AA@ 04030fe8     LIBCMT:winapinls.obj
 0002:00003ff4       ??_C@_1M@LLPGMBIN@?$AAe?$AAs?$AA?9?$AAd?$AAo?$AA?$AA@ 04030ff4     LIBCMT:winapinls.obj
 0002:00004000       ??_C@_1M@DKHMKNJA@?$AAe?$AAs?$AA?9?$AAe?$AAc?$AA?$AA@ 04031000     LIBCMT:winapinls.obj
 0002:0000400c       ??_C@_1M@GKGFPKAP@?$AAe?$AAs?$AA?9?$AAe?$AAs?$AA?$AA@ 0403100c     LIBCMT:winapinls.obj
 0002:00004018       ??_C@_1M@LKHKGDLN@?$AAe?$AAs?$AA?9?$AAg?$AAt?$AA?$AA@ 04031018     LIBCMT:winapinls.obj
 0002:00004024       ??_C@_1M@HEIIGGJD@?$AAe?$AAs?$AA?9?$AAh?$AAn?$AA?$AA@ 04031024     LIBCMT:winapinls.obj
 0002:00004030       ??_C@_1M@FBDHPPGD@?$AAe?$AAs?$AA?9?$AAm?$AAx?$AA?$AA@ 04031030     LIBCMT:winapinls.obj
 0002:0000403c       ??_C@_1M@DPAGLNDH@?$AAe?$AAs?$AA?9?$AAn?$AAi?$AA?$AA@ 0403103c     LIBCMT:winapinls.obj
 0002:00004048       ??_C@_1M@MDGOPGDD@?$AAe?$AAs?$AA?9?$AAp?$AAa?$AA?$AA@ 04031048     LIBCMT:winapinls.obj
 0002:00004054       ??_C@_1M@EMAMGBGE@?$AAe?$AAs?$AA?9?$AAp?$AAe?$AA?$AA@ 04031054     LIBCMT:winapinls.obj
 0002:00004060       ??_C@_1M@IBMCAOEC@?$AAe?$AAs?$AA?9?$AAp?$AAr?$AA?$AA@ 04031060     LIBCMT:winapinls.obj
 0002:0000406c       ??_C@_1M@FGMDIJED@?$AAe?$AAs?$AA?9?$AAp?$AAy?$AA?$AA@ 0403106c     LIBCMT:winapinls.obj
 0002:00004078       ??_C@_1M@IIDEOLLL@?$AAe?$AAs?$AA?9?$AAs?$AAv?$AA?$AA@ 04031078     LIBCMT:winapinls.obj
 0002:00004084       ??_C@_1M@GAOBIPA@?$AAe?$AAs?$AA?9?$AAu?$AAy?$AA?$AA@ 04031084     LIBCMT:winapinls.obj
 0002:00004090       ??_C@_1M@JKFFICHJ@?$AAe?$AAs?$AA?9?$AAv?$AAe?$AA?$AA@ 04031090     LIBCMT:winapinls.obj
 0002:0000409c       ??_C@_1M@PNMLOJDF@?$AAe?$AAt?$AA?9?$AAe?$AAe?$AA?$AA@ 0403109c     LIBCMT:winapinls.obj
 0002:000040a8       ??_C@_1M@GHHLIKEI@?$AAe?$AAu?$AA?9?$AAe?$AAs?$AA?$AA@ 040310a8     LIBCMT:winapinls.obj
 0002:000040b4       ??_C@_1M@PBNONODE@?$AAf?$AAa?$AA?9?$AAi?$AAr?$AA?$AA@ 040310b4     LIBCMT:winapinls.obj
 0002:000040c0       ??_C@_1M@JEEHPMIL@?$AAf?$AAi?$AA?9?$AAf?$AAi?$AA?$AA@ 040310c0     LIBCMT:winapinls.obj
 0002:000040cc       ??_C@_1M@LMDCNDBA@?$AAf?$AAo?$AA?9?$AAf?$AAo?$AA?$AA@ 040310cc     LIBCMT:winapinls.obj
 0002:000040d8       ??_C@_1M@JKEOHLDK@?$AAf?$AAr?$AA?9?$AAb?$AAe?$AA?$AA@ 040310d8     LIBCMT:winapinls.obj
 0002:000040e4       ??_C@_1M@NOHADPMI@?$AAf?$AAr?$AA?9?$AAc?$AAa?$AA?$AA@ 040310e4     LIBCMT:winapinls.obj
 0002:000040f0       ??_C@_1M@KDHIHAEC@?$AAf?$AAr?$AA?9?$AAc?$AAh?$AA?$AA@ 040310f0     LIBCMT:winapinls.obj
 0002:000040fc       ??_C@_1M@MMBBFGAK@?$AAf?$AAr?$AA?9?$AAf?$AAr?$AA?$AA@ 040310fc     LIBCMT:winapinls.obj
 0002:00004108       ??_C@_1M@PAFNENNF@?$AAf?$AAr?$AA?9?$AAl?$AAu?$AA?$AA@ 04031108     LIBCMT:winapinls.obj
 0002:00004114       ??_C@_1M@EOHDJGDD@?$AAf?$AAr?$AA?9?$AAm?$AAc?$AA?$AA@ 04031114     LIBCMT:winapinls.obj
 0002:00004120       ??_C@_1M@FAPLLOPF@?$AAg?$AAl?$AA?9?$AAe?$AAs?$AA?$AA@ 04031120     LIBCMT:winapinls.obj
 0002:0000412c       ??_C@_1M@FOPBFLOO@?$AAg?$AAu?$AA?9?$AAi?$AAn?$AA?$AA@ 0403112c     LIBCMT:winapinls.obj
 0002:00004138       ??_C@_1M@KBMCINPM@?$AAh?$AAe?$AA?9?$AAi?$AAl?$AA?$AA@ 04031138     LIBCMT:winapinls.obj
 0002:00004144       ??_C@_1M@BBPHKFPJ@?$AAh?$AAi?$AA?9?$AAi?$AAn?$AA?$AA@ 04031144     LIBCMT:winapinls.obj
 0002:00004150       ??_C@_1M@PMBNDPHD@?$AAh?$AAr?$AA?9?$AAb?$AAa?$AA?$AA@ 04031150     LIBCMT:winapinls.obj
 0002:0000415c       ??_C@_1M@BPCKOEGE@?$AAh?$AAr?$AA?9?$AAh?$AAr?$AA?$AA@ 0403115c     LIBCMT:winapinls.obj
 0002:00004168       ??_C@_1M@GACBMHKE@?$AAh?$AAu?$AA?9?$AAh?$AAu?$AA?$AA@ 04031168     LIBCMT:winapinls.obj
 0002:00004174       ??_C@_1M@MILPAJJC@?$AAh?$AAy?$AA?9?$AAa?$AAm?$AA?$AA@ 04031174     LIBCMT:winapinls.obj
 0002:00004180       ??_C@_1M@BABBICEC@?$AAi?$AAd?$AA?9?$AAi?$AAd?$AA?$AA@ 04031180     LIBCMT:winapinls.obj
 0002:0000418c       ??_C@_1M@BIKNHHPF@?$AAi?$AAs?$AA?9?$AAi?$AAs?$AA?$AA@ 0403118c     LIBCMT:winapinls.obj
 0002:00004198       ??_C@_1M@NMPCJPHE@?$AAi?$AAt?$AA?9?$AAc?$AAh?$AA?$AA@ 04031198     LIBCMT:winapinls.obj
 0002:000041a4       ??_C@_1M@GHKGFEDF@?$AAi?$AAt?$AA?9?$AAi?$AAt?$AA?$AA@ 040311a4     LIBCMT:winapinls.obj
 0002:000041b0       ??_C@_1M@NIEJCJJA@?$AAj?$AAa?$AA?9?$AAj?$AAp?$AA?$AA@ 040311b0     LIBCMT:winapinls.obj
 0002:000041bc       ??_C@_1M@JILFNBIM@?$AAk?$AAa?$AA?9?$AAg?$AAe?$AA?$AA@ 040311bc     LIBCMT:winapinls.obj
 0002:000041c8       ??_C@_1M@PACPMGPH@?$AAk?$AAk?$AA?9?$AAk?$AAz?$AA?$AA@ 040311c8     LIBCMT:winapinls.obj
 0002:000041d4       ??_C@_1M@IELFGMHA@?$AAk?$AAn?$AA?9?$AAi?$AAn?$AA?$AA@ 040311d4     LIBCMT:winapinls.obj
 0002:000041e0       ??_C@_1O@IBBJHCH@?$AAk?$AAo?$AAk?$AA?9?$AAi?$AAn?$AA?$AA@ 040311e0     LIBCMT:winapinls.obj
 0002:000041f0       ??_C@_1M@DMHAEOGC@?$AAk?$AAo?$AA?9?$AAk?$AAr?$AA?$AA@ 040311f0     LIBCMT:winapinls.obj
 0002:000041fc       ??_C@_1M@HBAHBIGA@?$AAk?$AAy?$AA?9?$AAk?$AAg?$AA?$AA@ 040311fc     LIBCMT:winapinls.obj
 0002:00004208       ??_C@_1M@KPMILCJG@?$AAl?$AAt?$AA?9?$AAl?$AAt?$AA?$AA@ 04031208     LIBCMT:winapinls.obj
 0002:00004214       ??_C@_1M@BDEKKCA@?$AAl?$AAv?$AA?9?$AAl?$AAv?$AA?$AA@ 04031214     LIBCMT:winapinls.obj
 0002:00004220       ??_C@_1M@ELCKCCJJ@?$AAm?$AAi?$AA?9?$AAn?$AAz?$AA?$AA@ 04031220     LIBCMT:winapinls.obj
 0002:0000422c       ??_C@_1M@CBOOLAPA@?$AAm?$AAk?$AA?9?$AAm?$AAk?$AA?$AA@ 0403122c     LIBCMT:winapinls.obj
 0002:00004238       ??_C@_1M@GPHNBJKN@?$AAm?$AAl?$AA?9?$AAi?$AAn?$AA?$AA@ 04031238     LIBCMT:winapinls.obj
 0002:00004244       ??_C@_1M@PABJILIG@?$AAm?$AAn?$AA?9?$AAm?$AAn?$AA?$AA@ 04031244     LIBCMT:winapinls.obj
 0002:00004250       ??_C@_1M@FGBKKIPG@?$AAm?$AAr?$AA?9?$AAi?$AAn?$AA?$AA@ 04031250     LIBCMT:winapinls.obj
 0002:0000425c       ??_C@_1M@NDBPDDAL@?$AAm?$AAs?$AA?9?$AAb?$AAn?$AA?$AA@ 0403125c     LIBCMT:winapinls.obj
 0002:00004268       ??_C@_1M@OPIHOOPI@?$AAm?$AAs?$AA?9?$AAm?$AAy?$AA?$AA@ 04031268     LIBCMT:winapinls.obj
 0002:00004274       ??_C@_1M@PPDBCNFM@?$AAm?$AAt?$AA?9?$AAm?$AAt?$AA?$AA@ 04031274     LIBCMT:winapinls.obj
 0002:00004280       ??_C@_1M@KDJDKMDD@?$AAn?$AAb?$AA?9?$AAn?$AAo?$AA?$AA@ 04031280     LIBCMT:winapinls.obj
 0002:0000428c       ??_C@_1M@KFCFLMJP@?$AAn?$AAl?$AA?9?$AAb?$AAe?$AA?$AA@ 0403128c     LIBCMT:winapinls.obj
 0002:00004298       ??_C@_1M@KPOPDDGO@?$AAn?$AAl?$AA?9?$AAn?$AAl?$AA?$AA@ 04031298     LIBCMT:winapinls.obj
 0002:000042a4       ??_C@_1M@LJKPEMLN@?$AAn?$AAn?$AA?9?$AAn?$AAo?$AA?$AA@ 040312a4     LIBCMT:winapinls.obj
 0002:000042b0       ??_C@_1M@BDGHHBFL@?$AAn?$AAs?$AA?9?$AAz?$AAa?$AA?$AA@ 040312b0     LIBCMT:winapinls.obj
 0002:000042bc       ??_C@_1M@IDEHOAP@?$AAp?$AAa?$AA?9?$AAi?$AAn?$AA?$AA@ 040312bc     LIBCMT:winapinls.obj
 0002:000042c8       ??_C@_1M@HDBKGOGH@?$AAp?$AAl?$AA?9?$AAp?$AAl?$AA?$AA@ 040312c8     LIBCMT:winapinls.obj
 0002:000042d4       ??_C@_1M@LJLLCMEH@?$AAp?$AAt?$AA?9?$AAb?$AAr?$AA?$AA@ 040312d4     LIBCMT:winapinls.obj
 0002:000042e0       ??_C@_1M@NCMONAAL@?$AAp?$AAt?$AA?9?$AAp?$AAt?$AA?$AA@ 040312e0     LIBCMT:winapinls.obj
 0002:000042ec       ??_C@_1O@EAKMAJDN@?$AAq?$AAu?$AAz?$AA?9?$AAb?$AAo?$AA?$AA@ 040312ec     LIBCMT:winapinls.obj
 0002:000042fc       ??_C@_1O@BHHPIGDN@?$AAq?$AAu?$AAz?$AA?9?$AAe?$AAc?$AA?$AA@ 040312fc     LIBCMT:winapinls.obj
 0002:0000430c       ??_C@_1O@GBAPEKMJ@?$AAq?$AAu?$AAz?$AA?9?$AAp?$AAe?$AA?$AA@ 0403130c     LIBCMT:winapinls.obj
 0002:0000431c       ??_C@_1M@CLGLEFBO@?$AAr?$AAo?$AA?9?$AAr?$AAo?$AA?$AA@ 0403131c     LIBCMT:winapinls.obj
 0002:00004328       ??_C@_1M@CEEDODME@?$AAr?$AAu?$AA?9?$AAr?$AAu?$AA?$AA@ 04031328     LIBCMT:winapinls.obj
 0002:00004334       ??_C@_1M@HPKKKMPP@?$AAs?$AAa?$AA?9?$AAi?$AAn?$AA?$AA@ 04031334     LIBCMT:winapinls.obj
 0002:00004340       ??_C@_1M@BKMAIGOJ@?$AAs?$AAe?$AA?9?$AAf?$AAi?$AA?$AA@ 04031340     LIBCMT:winapinls.obj
 0002:0000434c       ??_C@_1M@NDPIFLFI@?$AAs?$AAe?$AA?9?$AAn?$AAo?$AA?$AA@ 0403134c     LIBCMT:winapinls.obj
 0002:00004358       ??_C@_1M@DANKKHJ@?$AAs?$AAe?$AA?9?$AAs?$AAe?$AA?$AA@ 04031358     LIBCMT:winapinls.obj
 0002:00004364       ??_C@_1M@PNBLONPJ@?$AAs?$AAk?$AA?9?$AAs?$AAk?$AA?$AA@ 04031364     LIBCMT:winapinls.obj
 0002:00004370       ??_C@_1M@LFMODOAL@?$AAs?$AAl?$AA?9?$AAs?$AAi?$AA?$AA@ 04031370     LIBCMT:winapinls.obj
 0002:0000437c       ??_C@_1O@DFKOMPG@?$AAs?$AAm?$AAa?$AA?9?$AAn?$AAo?$AA?$AA@ 0403137c     LIBCMT:winapinls.obj
 0002:0000438c       ??_C@_1O@NDKPBNNH@?$AAs?$AAm?$AAa?$AA?9?$AAs?$AAe?$AA?$AA@ 0403138c     LIBCMT:winapinls.obj
 0002:0000439c       ??_C@_1O@PLLKBHAB@?$AAs?$AAm?$AAj?$AA?9?$AAn?$AAo?$AA?$AA@ 0403139c     LIBCMT:winapinls.obj
 0002:000043ac       ??_C@_1O@CLEPOGCA@?$AAs?$AAm?$AAj?$AA?9?$AAs?$AAe?$AA?$AA@ 040313ac     LIBCMT:winapinls.obj
 0002:000043bc       ??_C@_1O@DLGJGKMK@?$AAs?$AAm?$AAn?$AA?9?$AAf?$AAi?$AA?$AA@ 040313bc     LIBCMT:winapinls.obj
 0002:000043cc       ??_C@_1O@OJDJGAJC@?$AAs?$AAm?$AAs?$AA?9?$AAf?$AAi?$AA?$AA@ 040313cc     LIBCMT:winapinls.obj
 0002:000043dc       ??_C@_1M@BOFOGHPB@?$AAs?$AAq?$AA?9?$AAa?$AAl?$AA?$AA@ 040313dc     LIBCMT:winapinls.obj
 0002:000043e8       ??_C@_1BG@LJBBIPGB@?$AAs?$AAr?$AA?9?$AAb?$AAa?$AA?9?$AAc?$AAy?$AAr?$AAl?$AA?$AA@ 040313e8     LIBCMT:winapinls.obj
 0002:00004400       ??_C@_1BG@JLBENFOE@?$AAs?$AAr?$AA?9?$AAb?$AAa?$AA?9?$AAl?$AAa?$AAt?$AAn?$AA?$AA@ 04031400     LIBCMT:winapinls.obj
 0002:00004418       ??_C@_1BG@KODPNHE@?$AAs?$AAr?$AA?9?$AAs?$AAp?$AA?9?$AAc?$AAy?$AAr?$AAl?$AA?$AA@ 04031418     LIBCMT:winapinls.obj
 0002:00004430       ??_C@_1BG@CIOGKHPB@?$AAs?$AAr?$AA?9?$AAs?$AAp?$AA?9?$AAl?$AAa?$AAt?$AAn?$AA?$AA@ 04031430     LIBCMT:winapinls.obj
 0002:00004448       ??_C@_1M@NGFJLMAC@?$AAs?$AAv?$AA?9?$AAf?$AAi?$AA?$AA@ 04031448     LIBCMT:winapinls.obj
 0002:00004454       ??_C@_1M@MPJEJAJC@?$AAs?$AAv?$AA?9?$AAs?$AAe?$AA?$AA@ 04031454     LIBCMT:winapinls.obj
 0002:00004460       ??_C@_1M@MPNDHLFK@?$AAs?$AAw?$AA?9?$AAk?$AAe?$AA?$AA@ 04031460     LIBCMT:winapinls.obj
 0002:0000446c       ??_C@_1O@KOHBJJI@?$AAs?$AAy?$AAr?$AA?9?$AAs?$AAy?$AA?$AA@ 0403146c     LIBCMT:winapinls.obj
 0002:0000447c       ??_C@_1M@LDCEFHA@?$AAt?$AAa?$AA?9?$AAi?$AAn?$AA?$AA@ 0403147c     LIBCMT:winapinls.obj
 0002:00004488       ??_C@_1M@CNJOFAK@?$AAt?$AAe?$AA?9?$AAi?$AAn?$AA?$AA@ 04031488     LIBCMT:winapinls.obj
 0002:00004494       ??_C@_1M@GNAECACD@?$AAt?$AAh?$AA?9?$AAt?$AAh?$AA?$AA@ 04031494     LIBCMT:winapinls.obj
 0002:000044a0       ??_C@_1M@CHBIHOJO@?$AAt?$AAn?$AA?9?$AAz?$AAa?$AA?$AA@ 040314a0     LIBCMT:winapinls.obj
 0002:000044ac       ??_C@_1M@GCCMIGPJ@?$AAt?$AAr?$AA?9?$AAt?$AAr?$AA?$AA@ 040314ac     LIBCMT:winapinls.obj
 0002:000044b8       ??_C@_1M@CELMCNBK@?$AAt?$AAt?$AA?9?$AAr?$AAu?$AA?$AA@ 040314b8     LIBCMT:winapinls.obj
 0002:000044c4       ??_C@_1M@KLMCELGA@?$AAu?$AAk?$AA?9?$AAu?$AAa?$AA?$AA@ 040314c4     LIBCMT:winapinls.obj
 0002:000044d0       ??_C@_1M@EPAJJAJF@?$AAu?$AAr?$AA?9?$AAp?$AAk?$AA?$AA@ 040314d0     LIBCMT:winapinls.obj
 0002:000044dc       ??_C@_1BG@GEGPMCDJ@?$AAu?$AAz?$AA?9?$AAu?$AAz?$AA?9?$AAc?$AAy?$AAr?$AAl?$AA?$AA@ 040314dc     LIBCMT:winapinls.obj
 0002:000044f4       ??_C@_1BG@EGGKJILM@?$AAu?$AAz?$AA?9?$AAu?$AAz?$AA?9?$AAl?$AAa?$AAt?$AAn?$AA?$AA@ 040314f4     LIBCMT:winapinls.obj
 0002:0000450c       ??_C@_1M@GFOCLFF@?$AAv?$AAi?$AA?9?$AAv?$AAn?$AA?$AA@ 0403150c     LIBCMT:winapinls.obj
 0002:00004518       ??_C@_1M@CPAMEDFI@?$AAx?$AAh?$AA?9?$AAz?$AAa?$AA?$AA@ 04031518     LIBCMT:winapinls.obj
 0002:00004524       ??_C@_1O@EBKIFIGN@?$AAz?$AAh?$AA?9?$AAc?$AAh?$AAs?$AA?$AA@ 04031524     LIBCMT:winapinls.obj
 0002:00004534       ??_C@_1O@NMHPGANE@?$AAz?$AAh?$AA?9?$AAc?$AAh?$AAt?$AA?$AA@ 04031534     LIBCMT:winapinls.obj
 0002:00004544       ??_C@_1M@LPINJOMC@?$AAz?$AAh?$AA?9?$AAc?$AAn?$AA?$AA@ 04031544     LIBCMT:winapinls.obj
 0002:00004550       ??_C@_1M@OCJEJODD@?$AAz?$AAh?$AA?9?$AAh?$AAk?$AA?$AA@ 04031550     LIBCMT:winapinls.obj
 0002:0000455c       ??_C@_1M@DNDLJINH@?$AAz?$AAh?$AA?9?$AAm?$AAo?$AA?$AA@ 0403155c     LIBCMT:winapinls.obj
 0002:00004568       ??_C@_1M@MBFDNDND@?$AAz?$AAh?$AA?9?$AAs?$AAg?$AA?$AA@ 04031568     LIBCMT:winapinls.obj
 0002:00004574       ??_C@_1M@IMEPLEPE@?$AAz?$AAh?$AA?9?$AAt?$AAw?$AA?$AA@ 04031574     LIBCMT:winapinls.obj
 0002:00004580       ??_C@_1M@BBGHNHJP@?$AAz?$AAu?$AA?9?$AAz?$AAa?$AA?$AA@ 04031580     LIBCMT:winapinls.obj
 0002:00004648       ??_C@_1FK@PGACCAFB@?$AAR?$AA6?$AA0?$AA0?$AA2?$AA?$AN?$AA?6?$AA?9?$AA?5?$AAf?$AAl?$AAo?$AAa?$AAt?$AAi?$AAn?$AAg?$AA?5?$AAp?$AAo?$AAi?$AAn?$AAt?$AA?5?$AAs?$AAu?$AAp?$AAp?$AAo?$AAr?$AAt?$AA?5@ 04031648     LIBCMT:crt0msg.obj
 0002:000046a8       ??_C@_1FE@LLNEDJMD@?$AAR?$AA6?$AA0?$AA0?$AA8?$AA?$AN?$AA?6?$AA?9?$AA?5?$AAn?$AAo?$AAt?$AA?5?$AAe?$AAn?$AAo?$AAu?$AAg?$AAh?$AA?5?$AAs?$AAp?$AAa?$AAc?$AAe?$AA?5?$AAf?$AAo?$AAr?$AA?5?$AAa?$AAr@ 040316a8     LIBCMT:crt0msg.obj
 0002:00004700       ??_C@_1FI@HONFMGBI@?$AAR?$AA6?$AA0?$AA0?$AA9?$AA?$AN?$AA?6?$AA?9?$AA?5?$AAn?$AAo?$AAt?$AA?5?$AAe?$AAn?$AAo?$AAu?$AAg?$AAh?$AA?5?$AAs?$AAp?$AAa?$AAc?$AAe?$AA?5?$AAf?$AAo?$AAr?$AA?5?$AAe?$AAn@ 04031700     LIBCMT:crt0msg.obj
 0002:00004758       ??_C@_1EG@BEHAGFJD@?$AAR?$AA6?$AA0?$AA1?$AA0?$AA?$AN?$AA?6?$AA?9?$AA?5?$AAa?$AAb?$AAo?$AAr?$AAt?$AA?$CI?$AA?$CJ?$AA?5?$AAh?$AAa?$AAs?$AA?5?$AAb?$AAe?$AAe?$AAn?$AA?5?$AAc?$AAa?$AAl?$AAl?$AAe?$AAd@ 04031758     LIBCMT:crt0msg.obj
 0002:000047a0       ??_C@_1FI@LOGNIKDM@?$AAR?$AA6?$AA0?$AA1?$AA6?$AA?$AN?$AA?6?$AA?9?$AA?5?$AAn?$AAo?$AAt?$AA?5?$AAe?$AAn?$AAo?$AAu?$AAg?$AAh?$AA?5?$AAs?$AAp?$AAa?$AAc?$AAe?$AA?5?$AAf?$AAo?$AAr?$AA?5?$AAt?$AAh@ 040317a0     LIBCMT:crt0msg.obj
 0002:000047f8       ??_C@_1FK@BEOGODMC@?$AAR?$AA6?$AA0?$AA1?$AA7?$AA?$AN?$AA?6?$AA?9?$AA?5?$AAu?$AAn?$AAe?$AAx?$AAp?$AAe?$AAc?$AAt?$AAe?$AAd?$AA?5?$AAm?$AAu?$AAl?$AAt?$AAi?$AAt?$AAh?$AAr?$AAe?$AAa?$AAd?$AA?5@ 040317f8     LIBCMT:crt0msg.obj
 0002:00004858       ??_C@_1EC@JIBHAOPH@?$AAR?$AA6?$AA0?$AA1?$AA8?$AA?$AN?$AA?6?$AA?9?$AA?5?$AAu?$AAn?$AAe?$AAx?$AAp?$AAe?$AAc?$AAt?$AAe?$AAd?$AA?5?$AAh?$AAe?$AAa?$AAp?$AA?5?$AAe?$AAr?$AAr?$AAo?$AAr?$AA?$AN?$AA?6@ 04031858     LIBCMT:crt0msg.obj
 0002:000048a0       ??_C@_1FC@ECHBIFBC@?$AAR?$AA6?$AA0?$AA1?$AA9?$AA?$AN?$AA?6?$AA?9?$AA?5?$AAu?$AAn?$AAa?$AAb?$AAl?$AAe?$AA?5?$AAt?$AAo?$AA?5?$AAo?$AAp?$AAe?$AAn?$AA?5?$AAc?$AAo?$AAn?$AAs?$AAo?$AAl?$AAe?$AA?5@ 040318a0     LIBCMT:crt0msg.obj
 0002:000048f8       ??_C@_1GK@FHCKBEFA@?$AAR?$AA6?$AA0?$AA2?$AA4?$AA?$AN?$AA?6?$AA?9?$AA?5?$AAn?$AAo?$AAt?$AA?5?$AAe?$AAn?$AAo?$AAu?$AAg?$AAh?$AA?5?$AAs?$AAp?$AAa?$AAc?$AAe?$AA?5?$AAf?$AAo?$AAr?$AA?5?$AA_?$AAo@ 040318f8     LIBCMT:crt0msg.obj
 0002:00004968       ??_C@_1EM@MAADIHMB@?$AAR?$AA6?$AA0?$AA2?$AA5?$AA?$AN?$AA?6?$AA?9?$AA?5?$AAp?$AAu?$AAr?$AAe?$AA?5?$AAv?$AAi?$AAr?$AAt?$AAu?$AAa?$AAl?$AA?5?$AAf?$AAu?$AAn?$AAc?$AAt?$AAi?$AAo?$AAn?$AA?5?$AAc@ 04031968     LIBCMT:crt0msg.obj
 0002:000049b8       ??_C@_1GK@MCAAGJMO@?$AAR?$AA6?$AA0?$AA2?$AA6?$AA?$AN?$AA?6?$AA?9?$AA?5?$AAn?$AAo?$AAt?$AA?5?$AAe?$AAn?$AAo?$AAu?$AAg?$AAh?$AA?5?$AAs?$AAp?$AAa?$AAc?$AAe?$AA?5?$AAf?$AAo?$AAr?$AA?5?$AAs?$AAt@ 040319b8     LIBCMT:crt0msg.obj
 0002:00004a28       ??_C@_1GK@MFGOKLAG@?$AAR?$AA6?$AA0?$AA2?$AA7?$AA?$AN?$AA?6?$AA?9?$AA?5?$AAn?$AAo?$AAt?$AA?5?$AAe?$AAn?$AAo?$AAu?$AAg?$AAh?$AA?5?$AAs?$AAp?$AAa?$AAc?$AAe?$AA?5?$AAf?$AAo?$AAr?$AA?5?$AAl?$AAo@ 04031a28     LIBCMT:crt0msg.obj
 0002:00004a98       ??_C@_1EK@HHFLMAOL@?$AAR?$AA6?$AA0?$AA2?$AA8?$AA?$AN?$AA?6?$AA?9?$AA?5?$AAu?$AAn?$AAa?$AAb?$AAl?$AAe?$AA?5?$AAt?$AAo?$AA?5?$AAi?$AAn?$AAi?$AAt?$AAi?$AAa?$AAl?$AAi?$AAz?$AAe?$AA?5?$AAh?$AAe@ 04031a98     LIBCMT:crt0msg.obj
 0002:00004ae4       ??_C@_1DO@BMFCDCD@?$AAR?$AA6?$AA0?$AA3?$AA0?$AA?$AN?$AA?6?$AA?9?$AA?5?$AAC?$AAR?$AAT?$AA?5?$AAn?$AAo?$AAt?$AA?5?$AAi?$AAn?$AAi?$AAt?$AAi?$AAa?$AAl?$AAi?$AAz?$AAe?$AAd?$AA?$AN?$AA?6?$AA?$AA@ 04031ae4     LIBCMT:crt0msg.obj
 0002:00004b28       ??_C@_1MG@ENCOOIDF@?$AAR?$AA6?$AA0?$AA3?$AA1?$AA?$AN?$AA?6?$AA?9?$AA?5?$AAA?$AAt?$AAt?$AAe?$AAm?$AAp?$AAt?$AA?5?$AAt?$AAo?$AA?5?$AAi?$AAn?$AAi?$AAt?$AAi?$AAa?$AAl?$AAi?$AAz?$AAe?$AA?5?$AAt@ 04031b28     LIBCMT:crt0msg.obj
 0002:00004bf0       ??_C@_1GG@GOPILAJP@?$AAR?$AA6?$AA0?$AA3?$AA2?$AA?$AN?$AA?6?$AA?9?$AA?5?$AAn?$AAo?$AAt?$AA?5?$AAe?$AAn?$AAo?$AAu?$AAg?$AAh?$AA?5?$AAs?$AAp?$AAa?$AAc?$AAe?$AA?5?$AAf?$AAo?$AAr?$AA?5?$AAl?$AAo@ 04031bf0     LIBCMT:crt0msg.obj
 0002:00004c58       ??_C@_1BOO@KGEDBGAJ@?$AAR?$AA6?$AA0?$AA3?$AA3?$AA?$AN?$AA?6?$AA?9?$AA?5?$AAA?$AAt?$AAt?$AAe?$AAm?$AAp?$AAt?$AA?5?$AAt?$AAo?$AA?5?$AAu?$AAs?$AAe?$AA?5?$AAM?$AAS?$AAI?$AAL?$AA?5?$AAc?$AAo?$AAd@ 04031c58     LIBCMT:crt0msg.obj
 0002:00004e48       ??_C@_1GG@MKFPEKFO@?$AAR?$AA6?$AA0?$AA3?$AA4?$AA?$AN?$AA?6?$AA?9?$AA?5?$AAi?$AAn?$AAc?$AAo?$AAn?$AAs?$AAi?$AAs?$AAt?$AAe?$AAn?$AAt?$AA?5?$AAo?$AAn?$AAe?$AAx?$AAi?$AAt?$AA?5?$AAb?$AAe?$AAg@ 04031e48     LIBCMT:crt0msg.obj
 0002:00004eb0       ??_C@_1BO@BFCDCGC@?$AAD?$AAO?$AAM?$AAA?$AAI?$AAN?$AA?5?$AAe?$AAr?$AAr?$AAo?$AAr?$AA?$AN?$AA?6?$AA?$AA@ 04031eb0     LIBCMT:crt0msg.obj
 0002:00004ed0       ??_C@_1BK@KMOMNAAI@?$AAS?$AAI?$AAN?$AAG?$AA?5?$AAe?$AAr?$AAr?$AAo?$AAr?$AA?$AN?$AA?6?$AA?$AA@ 04031ed0     LIBCMT:crt0msg.obj
 0002:00004eec       ??_C@_1BM@JBBEPPHI@?$AAT?$AAL?$AAO?$AAS?$AAS?$AA?5?$AAe?$AAr?$AAr?$AAo?$AAr?$AA?$AN?$AA?6?$AA?$AA@ 04031eec     LIBCMT:crt0msg.obj
 0002:00004f08       ??_C@_15JNBOKNOG@?$AA?$AN?$AA?6?$AA?$AA@ 04031f08     LIBCMT:crt0msg.obj
 0002:00004f10       ??_C@_1BO@BKOMIGKJ@?$AAr?$AAu?$AAn?$AAt?$AAi?$AAm?$AAe?$AA?5?$AAe?$AAr?$AAr?$AAo?$AAr?$AA?5?$AA?$AA@ 04031f10     LIBCMT:crt0msg.obj
 0002:00004f30       ??_C@_1DE@JNGNBFGO@?$AAR?$AAu?$AAn?$AAt?$AAi?$AAm?$AAe?$AA?5?$AAE?$AAr?$AAr?$AAo?$AAr?$AA?$CB?$AA?6?$AA?6?$AAP?$AAr?$AAo?$AAg?$AAr?$AAa?$AAm?$AA?3?$AA?5?$AA?$AA@ 04031f30     LIBCMT:crt0msg.obj
 0002:00004f64       ??_C@_1CO@EAEJAADC@?$AA?$DM?$AAp?$AAr?$AAo?$AAg?$AAr?$AAa?$AAm?$AA?5?$AAn?$AAa?$AAm?$AAe?$AA?5?$AAu?$AAn?$AAk?$AAn?$AAo?$AAw?$AAn?$AA?$DO?$AA?$AA@ 04031f64     LIBCMT:crt0msg.obj
 0002:00004f94       ??_C@_17LGKOMLJ@?$AA?4?$AA?4?$AA?4?$AA?$AA@ 04031f94     LIBCMT:crt0msg.obj
 0002:00004f9c       ??_C@_15IABLJNFO@?$AA?6?$AA?6?$AA?$AA@ 04031f9c     LIBCMT:crt0msg.obj
 0002:00004fa8       ??_C@_1EK@MBDPDCGA@?$AAM?$AAi?$AAc?$AAr?$AAo?$AAs?$AAo?$AAf?$AAt?$AA?5?$AAV?$AAi?$AAs?$AAu?$AAa?$AAl?$AA?5?$AAC?$AA?$CL?$AA?$CL?$AA?5?$AAR?$AAu?$AAn?$AAt?$AAi?$AAm?$AAe?$AA?5?$AAL?$AAi?$AAb@ 04031fa8     LIBCMT:crt0msg.obj
 0002:00004ff4       ??_C@_1BK@GAEMIDIL@?$AAA?$AAD?$AAV?$AAA?$AAP?$AAI?$AA3?$AA2?$AA?4?$AAD?$AAL?$AAL?$AA?$AA@ 04031ff4     LIBCMT:rand_s.obj
 0002:00005010       ??_C@_0BC@JEAENNKH@SystemFunction036?$AA@ 04032010     LIBCMT:rand_s.obj
 0002:00005034       ??_C@_03KOEHGMDN@Sun?$AA@  04032034     LIBCMT:nlsdata.obj
 0002:00005038       ??_C@_03PDAGKDH@Mon?$AA@   04032038     LIBCMT:nlsdata.obj
 0002:0000503c       ??_C@_03NAGEINEP@Tue?$AA@  0403203c     LIBCMT:nlsdata.obj
 0002:00005040       ??_C@_03MHOMLAJA@Wed?$AA@  04032040     LIBCMT:nlsdata.obj
 0002:00005044       ??_C@_03IOFIKPDN@Thu?$AA@  04032044     LIBCMT:nlsdata.obj
 0002:00005048       ??_C@_03IDIOELNC@Fri?$AA@  04032048     LIBCMT:nlsdata.obj
 0002:0000504c       ??_C@_03FEFJNEK@Sat?$AA@   0403204c     LIBCMT:nlsdata.obj
 0002:00005050       ??_C@_06OOPIFAJ@Sunday?$AA@ 04032050     LIBCMT:nlsdata.obj
 0002:00005058       ??_C@_06JLEDEDGH@Monday?$AA@ 04032058     LIBCMT:nlsdata.obj
 0002:00005060       ??_C@_07BAAGCFCM@Tuesday?$AA@ 04032060     LIBCMT:nlsdata.obj
 0002:00005068       ??_C@_09DLIGFAKA@Wednesday?$AA@ 04032068     LIBCMT:nlsdata.obj
 0002:00005074       ??_C@_08HACCIKIA@Thursday?$AA@ 04032074     LIBCMT:nlsdata.obj
 0002:00005080       ??_C@_06JECMNKMI@Friday?$AA@ 04032080     LIBCMT:nlsdata.obj
 0002:00005088       ??_C@_08INBOOONO@Saturday?$AA@ 04032088     LIBCMT:nlsdata.obj
 0002:00005094       ??_C@_03JIHJHPIE@Jan?$AA@  04032094     LIBCMT:nlsdata.obj
 0002:00005098       ??_C@_03HJBDCHOM@Feb?$AA@  04032098     LIBCMT:nlsdata.obj
 0002:0000509c       ??_C@_03ODNJBKGA@Mar?$AA@  0403209c     LIBCMT:nlsdata.obj
 0002:000050a0       ??_C@_03LEOLGMJP@Apr?$AA@  040320a0     LIBCMT:nlsdata.obj
 0002:000050a4       ??_C@_03CNMDKL@May?$AA@    040320a4     LIBCMT:nlsdata.obj
 0002:000050a8       ??_C@_03IDFGHECI@Jun?$AA@  040320a8     LIBCMT:nlsdata.obj
 0002:000050ac       ??_C@_03LBGABGKK@Jul?$AA@  040320ac     LIBCMT:nlsdata.obj
 0002:000050b0       ??_C@_03IFJFEIGA@Aug?$AA@  040320b0     LIBCMT:nlsdata.obj
 0002:000050b4       ??_C@_03GGCAPAJC@Sep?$AA@  040320b4     LIBCMT:nlsdata.obj
 0002:000050b8       ??_C@_03BMAOKBAD@Oct?$AA@  040320b8     LIBCMT:nlsdata.obj
 0002:000050bc       ??_C@_03JPJOFNIA@Nov?$AA@  040320bc     LIBCMT:nlsdata.obj
 0002:000050c0       ??_C@_03MKABNOCG@Dec?$AA@  040320c0     LIBCMT:nlsdata.obj
 0002:000050c4       ??_C@_07CGJPFGJA@January?$AA@ 040320c4     LIBCMT:nlsdata.obj
 0002:000050cc       ??_C@_08GNJGEPFN@February?$AA@ 040320cc     LIBCMT:nlsdata.obj
 0002:000050d8       ??_C@_05HPCKOFNC@March?$AA@ 040320d8     LIBCMT:nlsdata.obj
 0002:000050e0       ??_C@_05DMJDNLEJ@April?$AA@ 040320e0     LIBCMT:nlsdata.obj
 0002:000050e8       ??_C@_04CNLMGBGM@June?$AA@ 040320e8     LIBCMT:nlsdata.obj
 0002:000050f0       ??_C@_04MIEPOIFP@July?$AA@ 040320f0     LIBCMT:nlsdata.obj
 0002:000050f8       ??_C@_06LBBHFDDG@August?$AA@ 040320f8     LIBCMT:nlsdata.obj
 0002:00005100       ??_C@_09BHHEALKD@September?$AA@ 04032100     LIBCMT:nlsdata.obj
 0002:0000510c       ??_C@_07JJNFCEND@October?$AA@ 0403210c     LIBCMT:nlsdata.obj
 0002:00005114       ??_C@_08HCHEGEOA@November?$AA@ 04032114     LIBCMT:nlsdata.obj
 0002:00005120       ??_C@_08EDHMEBNP@December?$AA@ 04032120     LIBCMT:nlsdata.obj
 0002:0000512c       ??_C@_02DEDBPAFC@AM?$AA@   0403212c     LIBCMT:nlsdata.obj
 0002:00005130       ??_C@_02CJNFDJBF@PM?$AA@   04032130     LIBCMT:nlsdata.obj
 0002:00005134       ??_C@_08BPBNCDIB@MM?1dd?1yy?$AA@ 04032134     LIBCMT:nlsdata.obj
 0002:00005140       ??_C@_0BE@CKGJFCPC@dddd?0?5MMMM?5dd?0?5yyyy?$AA@ 04032140     LIBCMT:nlsdata.obj
 0002:00005154       ??_C@_08JCCMCCIL@HH?3mm?3ss?$AA@ 04032154     LIBCMT:nlsdata.obj
 0002:00005160       ??_C@_17MBGCMIPB@?$AAS?$AAu?$AAn?$AA?$AA@ 04032160     LIBCMT:nlsdata.obj
 0002:00005168       ??_C@_17KBOMKBF@?$AAM?$AAo?$AAn?$AA?$AA@ 04032168     LIBCMT:nlsdata.obj
 0002:00005170       ??_C@_17BMKGEGOJ@?$AAT?$AAu?$AAe?$AA?$AA@ 04032170     LIBCMT:nlsdata.obj
 0002:00005178       ??_C@_17CJEDCEPE@?$AAW?$AAe?$AAd?$AA?$AA@ 04032178     LIBCMT:nlsdata.obj
 0002:00005180       ??_C@_17PDPHAADD@?$AAT?$AAh?$AAu?$AA?$AA@ 04032180     LIBCMT:nlsdata.obj
 0002:00005188       ??_C@_17HFOLPPLP@?$AAF?$AAr?$AAi?$AA?$AA@ 04032188     LIBCMT:nlsdata.obj
 0002:00005190       ??_C@_17GGIBDPIH@?$AAS?$AAa?$AAt?$AA?$AA@ 04032190     LIBCMT:nlsdata.obj
 0002:00005198       ??_C@_1O@IHNHDHPB@?$AAS?$AAu?$AAn?$AAd?$AAa?$AAy?$AA?$AA@ 04032198     LIBCMT:nlsdata.obj
 0002:000051a8       ??_C@_1O@MMNBFLIA@?$AAM?$AAo?$AAn?$AAd?$AAa?$AAy?$AA?$AA@ 040321a8     LIBCMT:nlsdata.obj
 0002:000051b8       ??_C@_1BA@ENFBFFEK@?$AAT?$AAu?$AAe?$AAs?$AAd?$AAa?$AAy?$AA?$AA@ 040321b8     LIBCMT:nlsdata.obj
 0002:000051c8       ??_C@_1BE@EBOGMDOH@?$AAW?$AAe?$AAd?$AAn?$AAe?$AAs?$AAd?$AAa?$AAy?$AA?$AA@ 040321c8     LIBCMT:nlsdata.obj
 0002:000051dc       ??_C@_1BC@HHMNLIHE@?$AAT?$AAh?$AAu?$AAr?$AAs?$AAd?$AAa?$AAy?$AA?$AA@ 040321dc     LIBCMT:nlsdata.obj
 0002:000051f0       ??_C@_1O@PDICJHAG@?$AAF?$AAr?$AAi?$AAd?$AAa?$AAy?$AA?$AA@ 040321f0     LIBCMT:nlsdata.obj
 0002:00005200       ??_C@_1BC@ENMNNPAJ@?$AAS?$AAa?$AAt?$AAu?$AAr?$AAd?$AAa?$AAy?$AA?$AA@ 04032200     LIBCMT:nlsdata.obj
 0002:00005214       ??_C@_17DKNBKCHM@?$AAJ?$AAa?$AAn?$AA?$AA@ 04032214     LIBCMT:nlsdata.obj
 0002:0000521c       ??_C@_17LMDJEKJN@?$AAF?$AAe?$AAb?$AA?$AA@ 0403221c     LIBCMT:nlsdata.obj
 0002:00005224       ??_C@_17CKNLEDEC@?$AAM?$AAa?$AAr?$AA?$AA@ 04032224     LIBCMT:nlsdata.obj
 0002:0000522c       ??_C@_17LFPOIHDD@?$AAA?$AAp?$AAr?$AA?$AA@ 0403222c     LIBCMT:nlsdata.obj
 0002:00005234       ??_C@_17PNNKMEED@?$AAM?$AAa?$AAy?$AA?$AA@ 04032234     LIBCMT:nlsdata.obj
 0002:0000523c       ??_C@_17KCJGOCPB@?$AAJ?$AAu?$AAn?$AA?$AA@ 0403223c     LIBCMT:nlsdata.obj
 0002:00005244       ??_C@_17IJPCKHK@?$AAJ?$AAu?$AAl?$AA?$AA@ 04032244     LIBCMT:nlsdata.obj
 0002:0000524c       ??_C@_17ICPELBCN@?$AAA?$AAu?$AAg?$AA?$AA@ 0403224c     LIBCMT:nlsdata.obj
 0002:00005254       ??_C@_17HCHCOKMG@?$AAS?$AAe?$AAp?$AA?$AA@ 04032254     LIBCMT:nlsdata.obj
 0002:0000525c       ??_C@_17FNLKOI@?$AAO?$AAc?$AAt?$AA?$AA@ 0403225c     LIBCMT:nlsdata.obj
 0002:00005264       ??_C@_17BBDMLCIG@?$AAN?$AAo?$AAv?$AA?$AA@ 04032264     LIBCMT:nlsdata.obj
 0002:0000526c       ??_C@_17EGKACKIF@?$AAD?$AAe?$AAc?$AA?$AA@ 0403226c     LIBCMT:nlsdata.obj
 0002:00005274       ??_C@_1BA@EFMEIEBA@?$AAJ?$AAa?$AAn?$AAu?$AAa?$AAr?$AAy?$AA?$AA@ 04032274     LIBCMT:nlsdata.obj
 0002:00005284       ??_C@_1BC@JGDDFFAM@?$AAF?$AAe?$AAb?$AAr?$AAu?$AAa?$AAr?$AAy?$AA?$AA@ 04032284     LIBCMT:nlsdata.obj
 0002:00005298       ??_C@_1M@IKEENEDF@?$AAM?$AAa?$AAr?$AAc?$AAh?$AA?$AA@ 04032298     LIBCMT:nlsdata.obj
 0002:000052a4       ??_C@_1M@GJNLMHFD@?$AAA?$AAp?$AAr?$AAi?$AAl?$AA?$AA@ 040322a4     LIBCMT:nlsdata.obj
 0002:000052b0       ??_C@_19EPFLPGAP@?$AAJ?$AAu?$AAn?$AAe?$AA?$AA@ 040322b0     LIBCMT:nlsdata.obj
 0002:000052bc       ??_C@_19BIFMLPCD@?$AAJ?$AAu?$AAl?$AAy?$AA?$AA@ 040322bc     LIBCMT:nlsdata.obj
 0002:000052c8       ??_C@_1O@PAHLKOAC@?$AAA?$AAu?$AAg?$AAu?$AAs?$AAt?$AA?$AA@ 040322c8     LIBCMT:nlsdata.obj
 0002:000052d8       ??_C@_1BE@DKAAMBJL@?$AAS?$AAe?$AAp?$AAt?$AAe?$AAm?$AAb?$AAe?$AAr?$AA?$AA@ 040322d8     LIBCMT:nlsdata.obj
 0002:000052ec       ??_C@_1BA@EPANDLNG@?$AAO?$AAc?$AAt?$AAo?$AAb?$AAe?$AAr?$AA?$AA@ 040322ec     LIBCMT:nlsdata.obj
 0002:000052fc       ??_C@_1BC@BGLIFPF@?$AAN?$AAo?$AAv?$AAe?$AAm?$AAb?$AAe?$AAr?$AA?$AA@ 040322fc     LIBCMT:nlsdata.obj
 0002:00005310       ??_C@_1BC@FEMKIFH@?$AAD?$AAe?$AAc?$AAe?$AAm?$AAb?$AAe?$AAr?$AA?$AA@ 04032310     LIBCMT:nlsdata.obj
 0002:00005324       ??_C@_15ODEHAHHF@?$AAA?$AAM?$AA?$AA@ 04032324     LIBCMT:nlsdata.obj
 0002:0000532c       ??_C@_15CLMNNGEL@?$AAP?$AAM?$AA?$AA@ 0403232c     LIBCMT:nlsdata.obj
 0002:00005334       ??_C@_1BC@IEBCMHCM@?$AAM?$AAM?$AA?1?$AAd?$AAd?$AA?1?$AAy?$AAy?$AA?$AA@ 04032334     LIBCMT:nlsdata.obj
 0002:00005348       ??_C@_1CI@KNAKOEBC@?$AAd?$AAd?$AAd?$AAd?$AA?0?$AA?5?$AAM?$AAM?$AAM?$AAM?$AA?5?$AAd?$AAd?$AA?0?$AA?5?$AAy?$AAy?$AAy?$AAy?$AA?$AA@ 04032348     LIBCMT:nlsdata.obj
 0002:00005370       ??_C@_1BC@GDGBMEMK@?$AAH?$AAH?$AA?3?$AAm?$AAm?$AA?3?$AAs?$AAs?$AA?$AA@ 04032370     LIBCMT:nlsdata.obj
 0002:00005388       ___lookuptable_s           04032388     LIBCMT:outputs.obj
 0002:000053e8       ___lc_category             040323e8     LIBCMT:wsetloca.obj
 0002:00005430       ??_C@_1O@GIFLHMA@?$AAL?$AAC?$AA_?$AAA?$AAL?$AAL?$AA?$AA@ 04032430     LIBCMT:wsetloca.obj
 0002:00005440       ??_C@_1BG@PPOMIBNJ@?$AAL?$AAC?$AA_?$AAC?$AAO?$AAL?$AAL?$AAA?$AAT?$AAE?$AA?$AA@ 04032440     LIBCMT:wsetloca.obj
 0002:00005458       ??_C@_1BC@FFJGAPJM@?$AAL?$AAC?$AA_?$AAC?$AAT?$AAY?$AAP?$AAE?$AA?$AA@ 04032458     LIBCMT:wsetloca.obj
 0002:0000546c       ??_C@_1BI@PCKFNJFB@?$AAL?$AAC?$AA_?$AAM?$AAO?$AAN?$AAE?$AAT?$AAA?$AAR?$AAY?$AA?$AA@ 0403246c     LIBCMT:wsetloca.obj
 0002:00005484       ??_C@_1BG@ENIEDKID@?$AAL?$AAC?$AA_?$AAN?$AAU?$AAM?$AAE?$AAR?$AAI?$AAC?$AA?$AA@ 04032484     LIBCMT:wsetloca.obj
 0002:0000549c       ??_C@_1BA@HAAOMIIG@?$AAL?$AAC?$AA_?$AAT?$AAI?$AAM?$AAE?$AA?$AA@ 0403249c     LIBCMT:wsetloca.obj
 0002:00005530       ??_C@_15NBPDDFIP@?$AA?$DN?$AA?$DL?$AA?$AA@ 04032530     LIBCMT:wsetloca.obj
 0002:00005538       ??_C@_13PJJBFPED@?$AA?$DL?$AA?$AA@ 04032538     LIBCMT:wsetloca.obj
 0002:0000553c       ??_C@_13NMPKAAJP@?$AA?$DN?$AA?$AA@ 0403253c     LIBCMT:wsetloca.obj
 0002:00005540       ??_C@_13FHBKNHDA@?$AAC?$AA?$AA@ 04032540     LIBCMT:wsetloca.obj
 0002:00005544       ??_C@_17MBJJLFDM@?$AA_?$AA?4?$AA?0?$AA?$AA@ 04032544     LIBCMT:wsetloca.obj
 0002:0000554c       ??_C@_13ENNFDPBH@?$AA_?$AA?$AA@ 0403254c     LIBCMT:wsetloca.obj
 0002:00005550       ??_C@_13JOFGPIOO@?$AA?4?$AA?$AA@ 04032550     LIBCMT:wsetloca.obj
 0002:00005560       __indefinite               04032560     LIBCMT:87disp.obj
 0002:0000556a       __piby2                    0403256a     LIBCMT:87disp.obj
 0002:00005598       __DEFAULT_CW_in_mem        04032598     LIBCMT:common.obj
 0002:0000559a       __pi_by_2_to_61            0403259a     LIBCMT:common.obj
 0002:00005764       ??_C@_08EHJDFFNH@__based?$CI?$AA@ 04032764     LIBCMT:undname.obj
 0002:00005770       ??_C@_07KOLFKCDI@__cdecl?$AA@ 04032770     LIBCMT:undname.obj
 0002:00005778       ??_C@_08GHMPAG@__pascal?$AA@ 04032778     LIBCMT:undname.obj
 0002:00005784       ??_C@_09IFJBGAPI@__stdcall?$AA@ 04032784     LIBCMT:undname.obj
 0002:00005790       ??_C@_0L@NPHFGOKO@__thiscall?$AA@ 04032790     LIBCMT:undname.obj
 0002:0000579c       ??_C@_0L@JMKHOMEK@__fastcall?$AA@ 0403279c     LIBCMT:undname.obj
 0002:000057a8       ??_C@_0N@BCKKPABJ@__vectorcall?$AA@ 040327a8     LIBCMT:undname.obj
 0002:000057b8       ??_C@_09HIJEGCPM@__clrcall?$AA@ 040327b8     LIBCMT:undname.obj
 0002:000057c4       ??_C@_06GHPCKEAG@__eabi?$AA@ 040327c4     LIBCMT:undname.obj
 0002:000057cc       ??_C@_07JOMMBBKO@__ptr64?$AA@ 040327cc     LIBCMT:undname.obj
 0002:000057d4       ??_C@_0L@PILCLIHE@__restrict?$AA@ 040327d4     LIBCMT:undname.obj
 0002:000057e0       ??_C@_0M@GFIIJFMG@__unaligned?$AA@ 040327e0     LIBCMT:undname.obj
 0002:000057ec       ??_C@_09DHDLOLLB@restrict?$CI?$AA@ 040327ec     LIBCMT:undname.obj
 0002:000057f8       ??_C@_04NIHEBCM@?5new?$AA@ 040327f8     LIBCMT:undname.obj
 0002:00005800       ??_C@_07FPCDHGMM@?5delete?$AA@ 04032800     LIBCMT:undname.obj
 0002:00005808       ??_C@_01NEMOKFLO@?$DN?$AA@ 04032808     LIBCMT:undname.obj
 0002:0000580c       ??_C@_02GPIOPFAK@?$DO?$DO?$AA@ 0403280c     LIBCMT:undname.obj
 0002:00005810       ??_C@_02FODMEDOG@?$DM?$DM?$AA@ 04032810     LIBCMT:undname.obj
 0002:00005814       ??_C@_01DCLJPIOD@?$CB?$AA@ 04032814     LIBCMT:undname.obj
 0002:00005818       ??_C@_02EGOFBIJA@?$DN?$DN?$AA@ 04032818     LIBCMT:undname.obj
 0002:0000581c       ??_C@_02FDNJECIE@?$CB?$DN?$AA@ 0403281c     LIBCMT:undname.obj
 0002:00005820       ??_C@_02GPECMEKF@?$FL?$FN?$AA@ 04032820     LIBCMT:undname.obj
 0002:00005824       ??_C@_08LHJFAFGD@operator?$AA@ 04032824     LIBCMT:undname.obj
 0002:00005830       ??_C@_02HBOOOICD@?9?$DO?$AA@ 04032830     LIBCMT:undname.obj
 0002:00005834       ??_C@_01NBENCBCI@?$CK?$AA@ 04032834     LIBCMT:undname.obj
 0002:00005838       ??_C@_02ECNGHCIF@?$CL?$CL?$AA@ 04032838     LIBCMT:undname.obj
 0002:0000583c       ??_C@_02BAABKJLB@?9?9?$AA@ 0403283c     LIBCMT:undname.obj
 0002:00005840       ??_C@_01JOAMLHOP@?9?$AA@   04032840     LIBCMT:undname.obj
 0002:00005844       ??_C@_01MIFGBAGJ@?$CL?$AA@ 04032844     LIBCMT:undname.obj
 0002:00005848       ??_C@_01HNPIGOCE@?$CG?$AA@ 04032848     LIBCMT:undname.obj
 0002:0000584c       ??_C@_03MNHNFDLC@?9?$DO?$CK?$AA@ 0403284c     LIBCMT:undname.obj
 0002:00005850       ??_C@_01FGNFDNOH@?$CF?$AA@ 04032850     LIBCMT:undname.obj
 0002:00005854       ??_C@_01MNNFJEPP@?$DM?$AA@ 04032854     LIBCMT:undname.obj
 0002:00005858       ??_C@_02EHCHHCKH@?$DM?$DN?$AA@ 04032858     LIBCMT:undname.obj
 0002:0000585c       ??_C@_01PPODPGHN@?$DO?$AA@ 0403285c     LIBCMT:undname.obj
 0002:00005860       ??_C@_02EEKDKGMJ@?$DO?$DN?$AA@ 04032860     LIBCMT:undname.obj
 0002:00005864       ??_C@_01IHBHIGKO@?0?$AA@   04032864     LIBCMT:undname.obj
 0002:00005868       ??_C@_02HCKGKOFO@?$CI?$CJ?$AA@ 04032868     LIBCMT:undname.obj
 0002:0000586c       ??_C@_01PJKLJHI@?$HO?$AA@  0403286c     LIBCMT:undname.obj
 0002:00005870       ??_C@_01JKBOJNNK@?$FO?$AA@ 04032870     LIBCMT:undname.obj
 0002:00005874       ??_C@_01DNKMNLPK@?$HM?$AA@ 04032874     LIBCMT:undname.obj
 0002:00005878       ??_C@_02PPKAJPJL@?$CG?$CG?$AA@ 04032878     LIBCMT:undname.obj
 0002:0000587c       ??_C@_02NONPIBCD@?$HM?$HM?$AA@ 0403287c     LIBCMT:undname.obj
 0002:00005880       ??_C@_02FPIMKNGF@?$CK?$DN?$AA@ 04032880     LIBCMT:undname.obj
 0002:00005884       ??_C@_02FOEOMHFC@?$CL?$DN?$AA@ 04032884     LIBCMT:undname.obj
 0002:00005888       ??_C@_02FKMDLLOA@?9?$DN?$AA@ 04032888     LIBCMT:undname.obj
 0002:0000588c       ??_C@_02FJEHGPIO@?1?$DN?$AA@ 0403288c     LIBCMT:undname.obj
 0002:00005890       ??_C@_02FENAOKFI@?$CF?$DN?$AA@ 04032890     LIBCMT:undname.obj
 0002:00005894       ??_C@_03IKFCCPFF@?$DO?$DO?$DN?$AA@ 04032894     LIBCMT:undname.obj
 0002:00005898       ??_C@_03CDNPDDLA@?$DM?$DM?$DN?$AA@ 04032898     LIBCMT:undname.obj
 0002:0000589c       ??_C@_02FGJGFEAB@?$CG?$DN?$AA@ 0403289c     LIBCMT:undname.obj
 0002:000058a0       ??_C@_02DHLNPPGH@?$HM?$DN?$AA@ 040328a0     LIBCMT:undname.obj
 0002:000058a4       ??_C@_02MHEGNOJ@?$FO?$DN?$AA@ 040328a4     LIBCMT:undname.obj
 0002:000058a8       ??_C@_09IFPLHPGF@?$GAvftable?8?$AA@ 040328a8     LIBCMT:undname.obj
 0002:000058b4       ??_C@_09BLBHBJP@?$GAvbtable?8?$AA@ 040328b4     LIBCMT:undname.obj
 0002:000058c0       ??_C@_07FEEIOKP@?$GAvcall?8?$AA@ 040328c0     LIBCMT:undname.obj
 0002:000058c8       ??_C@_08LLFFHHDJ@?$GAtypeof?8?$AA@ 040328c8     LIBCMT:undname.obj
 0002:000058d4       ??_C@_0BF@KDPPACIK@?$GAlocal?5static?5guard?8?$AA@ 040328d4     LIBCMT:undname.obj
 0002:000058ec       ??_C@_08OBABFOLI@?$GAstring?8?$AA@ 040328ec     LIBCMT:undname.obj
 0002:000058f8       ??_C@_0BD@JDLKDPAB@?$GAvbase?5destructor?8?$AA@ 040328f8     LIBCMT:undname.obj
 0002:0000590c       ??_C@_0BN@DEGPLNFK@?$GAvector?5deleting?5destructor?8?$AA@ 0403290c     LIBCMT:undname.obj
 0002:0000592c       ??_C@_0BO@OBMKPJIG@?$GAdefault?5constructor?5closure?8?$AA@ 0403292c     LIBCMT:undname.obj
 0002:0000594c       ??_C@_0BN@IMDCHIKM@?$GAscalar?5deleting?5destructor?8?$AA@ 0403294c     LIBCMT:undname.obj
 0002:0000596c       ??_C@_0BO@PFGOCPJJ@?$GAvector?5constructor?5iterator?8?$AA@ 0403296c     LIBCMT:undname.obj
 0002:0000598c       ??_C@_0BN@LFPFMEDL@?$GAvector?5destructor?5iterator?8?$AA@ 0403298c     LIBCMT:undname.obj
 0002:000059ac       ??_C@_0CE@IKBNEHA@?$GAvector?5vbase?5constructor?5iterat@ 040329ac     LIBCMT:undname.obj
 0002:000059d0       ??_C@_0BL@NILFHHPC@?$GAvirtual?5displacement?5map?8?$AA@ 040329d0     LIBCMT:undname.obj
 0002:000059ec       ??_C@_0CB@JONCMFFK@?$GAeh?5vector?5constructor?5iterator?8@ 040329ec     LIBCMT:undname.obj
 0002:00005a10       ??_C@_0CA@GCEOPDGL@?$GAeh?5vector?5destructor?5iterator?8?$AA@ 04032a10     LIBCMT:undname.obj
 0002:00005a30       ??_C@_0CH@OOJPLCPH@?$GAeh?5vector?5vbase?5constructor?5ite@ 04032a30     LIBCMT:undname.obj
 0002:00005a58       ??_C@_0BL@LLKPOHJI@?$GAcopy?5constructor?5closure?8?$AA@ 04032a58     LIBCMT:undname.obj
 0002:00005a74       ??_C@_0BA@KBCDOMBN@?$GAudt?5returning?8?$AA@ 04032a74     LIBCMT:undname.obj
 0002:00005a84       ??_C@_03KLGMFNMG@?$GAEH?$AA@ 04032a84     LIBCMT:undname.obj
 0002:00005a88       ??_C@_05KHLCHHI@?$GARTTI?$AA@ 04032a88     LIBCMT:undname.obj
 0002:00005a90       ??_C@_0BA@KKLDJDLB@?$GAlocal?5vftable?8?$AA@ 04032a90     LIBCMT:undname.obj
 0002:00005aa0       ??_C@_0CE@IIHCMGGL@?$GAlocal?5vftable?5constructor?5closu@ 04032aa0     LIBCMT:undname.obj
 0002:00005ac4       ??_C@_06FHBGPFGH@?5new?$FL?$FN?$AA@ 04032ac4     LIBCMT:undname.obj
 0002:00005acc       ??_C@_09LBNFPBCA@?5delete?$FL?$FN?$AA@ 04032acc     LIBCMT:undname.obj
 0002:00005ad8       ??_C@_0P@HJKNJFNN@?$GAomni?5callsig?8?$AA@ 04032ad8     LIBCMT:undname.obj
 0002:00005ae8       ??_C@_0BL@CNOONJFP@?$GAplacement?5delete?5closure?8?$AA@ 04032ae8     LIBCMT:undname.obj
 0002:00005b04       ??_C@_0BN@CKNJLHMB@?$GAplacement?5delete?$FL?$FN?5closure?8?$AA@ 04032b04     LIBCMT:undname.obj
 0002:00005b24       ??_C@_0CG@CFDHKGGD@?$GAmanaged?5vector?5constructor?5iter@ 04032b24     LIBCMT:undname.obj
 0002:00005b4c       ??_C@_0CF@IMGKMJNO@?$GAmanaged?5vector?5destructor?5itera@ 04032b4c     LIBCMT:undname.obj
 0002:00005b74       ??_C@_0CG@HLDDJMAG@?$GAeh?5vector?5copy?5constructor?5iter@ 04032b74     LIBCMT:undname.obj
 0002:00005b9c       ??_C@_0CM@FCBBDIGB@?$GAeh?5vector?5vbase?5copy?5constructo@ 04032b9c     LIBCMT:undname.obj
 0002:00005bc8       ??_C@_0BL@CLIPGLGB@?$GAdynamic?5initializer?5for?5?8?$AA@ 04032bc8     LIBCMT:undname.obj
 0002:00005be4       ??_C@_0CB@PDBIFEP@?$GAdynamic?5atexit?5destructor?5for?5?8@ 04032be4     LIBCMT:undname.obj
 0002:00005c08       ??_C@_0CD@CGAJBKEJ@?$GAvector?5copy?5constructor?5iterato@ 04032c08     LIBCMT:undname.obj
 0002:00005c2c       ??_C@_0CJ@GJELGAMM@?$GAvector?5vbase?5copy?5constructor?5i@ 04032c2c     LIBCMT:undname.obj
 0002:00005c58       ??_C@_0CL@FGIJHLCE@?$GAmanaged?5vector?5copy?5constructor@ 04032c58     LIBCMT:undname.obj
 0002:00005c84       ??_C@_0BM@PMGGMLDN@?$GAlocal?5static?5thread?5guard?8?$AA@ 04032c84     LIBCMT:undname.obj
 0002:00005ca0       ??_C@_0BC@DAFEJGAK@?5Type?5Descriptor?8?$AA@ 04032ca0     LIBCMT:undname.obj
 0002:00005cb4       ??_C@_0BM@LDKODKLH@?5Base?5Class?5Descriptor?5at?5?$CI?$AA@ 04032cb4     LIBCMT:undname.obj
 0002:00005cd0       ??_C@_0BD@LGICGFMM@?5Base?5Class?5Array?8?$AA@ 04032cd0     LIBCMT:undname.obj
 0002:00005ce4       ??_C@_0BN@MECKDCOJ@?5Class?5Hierarchy?5Descriptor?8?$AA@ 04032ce4     LIBCMT:undname.obj
 0002:00005d04       ??_C@_0BK@CFCOFLF@?5Complete?5Object?5Locator?8?$AA@ 04032d04     LIBCMT:undname.obj
 0002:00005d20       ??_C@_04HEJADOOB@CV?3?5?$AA@ 04032d20     LIBCMT:undname.obj
 0002:00005d28       ??_C@_02MOLJINC@?3?3?$AA@  04032d28     LIBCMT:undname.obj
 0002:00005d2c       ??_C@_0BE@JAEOCHPE@template?9parameter?9?$AA@ 04032d2c     LIBCMT:undname.obj
 0002:00005d40       ??_C@_0O@KHGCOMHP@generic?9type?9?$AA@ 04032d40     LIBCMT:undname.obj
 0002:00005d50       ??_C@_01NLNLIGKH@?$GA?$AA@ 04032d50     LIBCMT:undname.obj
 0002:00005d54       ??_C@_01GEODFPGF@?8?$AA@   04032d54     LIBCMT:undname.obj
 0002:00005d58       ??_C@_0BG@JNJLAMPM@?$GAanonymous?5namespace?8?$AA@ 04032d58     LIBCMT:undname.obj
 0002:00005d70       ??_C@_02OHHJMEON@?8?8?$AA@ 04032d70     LIBCMT:undname.obj
 0002:00005d74       ??_C@_0BN@IBLMMFAP@?$GAnon?9type?9template?9parameter?$AA@ 04032d74     LIBCMT:undname.obj
 0002:00005d94       ??_C@_04GKJNKENE@void?$AA@ 04032d94     LIBCMT:undname.obj
 0002:00005d9c       ??_C@_0BE@EODMJLIF@?$GAtemplate?9parameter?$AA@ 04032d9c     LIBCMT:undname.obj
 0002:00005db0       ??_C@_03KHICJKCI@?4?4?4?$AA@ 04032db0     LIBCMT:undname.obj
 0002:00005db4       ??_C@_04HIBGFPH@NULL?$AA@  04032db4     LIBCMT:undname.obj
 0002:00005dbc       ??_C@_03OPGICMGF@?$HN?8?5?$AA@ 04032dbc     LIBCMT:undname.obj
 0002:00005dc0       ??_C@_02IGFCGPIL@?$HN?8?$AA@ 04032dc0     LIBCMT:undname.obj
 0002:00005dc4       ??_C@_01CLKCMJKC@?5?$AA@   04032dc4     LIBCMT:undname.obj
 0002:00005dc8       ??_C@_0N@CBHHHENL@?$GAvtordispex?$HL?$AA@ 04032dc8     LIBCMT:undname.obj
 0002:00005dd8       ??_C@_0L@GHPFDFH@?$GAvtordisp?$HL?$AA@ 04032dd8     LIBCMT:undname.obj
 0002:00005de4       ??_C@_0L@HNGCOGAE@?$GAadjustor?$HL?$AA@ 04032de4     LIBCMT:undname.obj
 0002:00005df0       ??_C@_0CB@KJDOOODE@?$GAlocal?5static?5destructor?5helper?8@ 04032df0     LIBCMT:undname.obj
 0002:00005e14       ??_C@_0DB@ILEFOCIJ@?$GAtemplate?5static?5data?5member?5con@ 04032e14     LIBCMT:undname.obj
 0002:00005e48       ??_C@_0DA@HGFJFBBE@?$GAtemplate?5static?5data?5member?5des@ 04032e48     LIBCMT:undname.obj
 0002:00005e78       ??_C@_07PGOEDBHP@static?5?$AA@ 04032e78     LIBCMT:undname.obj
 0002:00005e80       ??_C@_08NIEOINHE@virtual?5?$AA@ 04032e80     LIBCMT:undname.obj
 0002:00005e8c       ??_C@_09LAPHOOG@private?3?5?$AA@ 04032e8c     LIBCMT:undname.obj
 0002:00005e98       ??_C@_0M@GAIFPFIP@protected?3?5?$AA@ 04032e98     LIBCMT:undname.obj
 0002:00005ea4       ??_C@_08GPDDCMKI@public?3?5?$AA@ 04032ea4     LIBCMT:undname.obj
 0002:00005eb0       ??_C@_08KJLFOPNE@?$FLthunk?$FN?3?$AA@ 04032eb0     LIBCMT:undname.obj
 0002:00005ebc       ??_C@_0M@DHNBOJMP@extern?5?$CCC?$CC?5?$AA@ 04032ebc     LIBCMT:undname.obj
 0002:00005ec8       ??_C@_02KCKGHPCA@?$CJ?5?$AA@ 04032ec8     LIBCMT:undname.obj
 0002:00005ecc       ??_C@_05CIHEBHNO@char?5?$AA@ 04032ecc     LIBCMT:undname.obj
 0002:00005ed4       ??_C@_06EHJMALKF@short?5?$AA@ 04032ed4     LIBCMT:undname.obj
 0002:00005edc       ??_C@_04LAHKHJMA@int?5?$AA@ 04032edc     LIBCMT:undname.obj
 0002:00005ee4       ??_C@_05CJIMAING@long?5?$AA@ 04032ee4     LIBCMT:undname.obj
 0002:00005eec       ??_C@_09EBBEKKIH@unsigned?5?$AA@ 04032eec     LIBCMT:undname.obj
 0002:00005ef8       ??_C@_05BEFAKPML@void?5?$AA@ 04032ef8     LIBCMT:undname.obj
 0002:00005f00       ??_C@_08PABEKFH@volatile?$AA@ 04032f00     LIBCMT:undname.obj
 0002:00005f0c       ??_C@_0P@GCOCNKDM@std?3?3nullptr_t?$AA@ 04032f0c     LIBCMT:undname.obj
 0002:00005f1c       ??_C@_0L@EGPHHEKN@?$DMellipsis?$DO?$AA@ 04032f1c     LIBCMT:undname.obj
 0002:00005f28       ??_C@_04EENFHACM@?0?4?4?4?$AA@ 04032f28     LIBCMT:undname.obj
 0002:00005f30       ??_C@_0M@ELJOJFFH@?0?$DMellipsis?$DO?$AA@ 04032f30     LIBCMT:undname.obj
 0002:00005f3c       ??_C@_07HDJPLPEK@?5throw?$CI?$AA@ 04032f3c     LIBCMT:undname.obj
 0002:00005f44       ??_C@_03PBJBJNON@cpu?$AA@  04032f44     LIBCMT:undname.obj
 0002:00005f48       ??_C@_03DCBBJBAA@amp?$AA@  04032f48     LIBCMT:undname.obj
 0002:00005f4c       ??_C@_02KEGNLNML@?0?5?$AA@ 04032f4c     LIBCMT:undname.obj
 0002:00005f50       ??_C@_04ENMBGAPA@char?$AA@ 04032f50     LIBCMT:undname.obj
 0002:00005f58       ??_C@_05BFKKPKCG@short?$AA@ 04032f58     LIBCMT:undname.obj
 0002:00005f60       ??_C@_03JBIPMCLC@int?$AA@  04032f60     LIBCMT:undname.obj
 0002:00005f64       ??_C@_04GOKPGOLB@long?$AA@ 04032f64     LIBCMT:undname.obj
 0002:00005f6c       ??_C@_05KNFBNCOH@float?$AA@ 04032f6c     LIBCMT:undname.obj
 0002:00005f74       ??_C@_06BNJCAIGJ@double?$AA@ 04032f74     LIBCMT:undname.obj
 0002:00005f7c       ??_C@_04DDKJGDCM@bool?$AA@ 04032f7c     LIBCMT:undname.obj
 0002:00005f84       ??_C@_06EBGKOKIG@__int8?$AA@ 04032f84     LIBCMT:undname.obj
 0002:00005f8c       ??_C@_07ICFHOGAF@__int16?$AA@ 04032f8c     LIBCMT:undname.obj
 0002:00005f94       ??_C@_07OFLPPHGP@__int32?$AA@ 04032f94     LIBCMT:undname.obj
 0002:00005f9c       ??_C@_07LFCOJCAC@__int64?$AA@ 04032f9c     LIBCMT:undname.obj
 0002:00005fa4       ??_C@_08GAHOLHEO@__int128?$AA@ 04032fa4     LIBCMT:undname.obj
 0002:00005fb0       ??_C@_09EEKGDCPH@?$DMunknown?$DO?$AA@ 04032fb0     LIBCMT:undname.obj
 0002:00005fbc       ??_C@_07CLGGIAMF@wchar_t?$AA@ 04032fbc     LIBCMT:undname.obj
 0002:00005fc4       ??_C@_06GCICPBLB@__w64?5?$AA@ 04032fc4     LIBCMT:undname.obj
 0002:00005fcc       ??_C@_07NFANNNEC@UNKNOWN?$AA@ 04032fcc     LIBCMT:undname.obj
 0002:00005fd4       ??_C@_07EDHNAJHC@signed?5?$AA@ 04032fd4     LIBCMT:undname.obj
 0002:00005fdc       ??_C@_05BNCCCJPP@const?$AA@ 04032fdc     LIBCMT:undname.obj
 0002:00005fe4       ??_C@_09EFNPDFFP@?5volatile?$AA@ 04032fe4     LIBCMT:undname.obj
 0002:00005ff0       ??_C@_0P@GCIFDJCJ@?$GAunknown?5ecsu?8?$AA@ 04032ff0     LIBCMT:undname.obj
 0002:00006000       ??_C@_06MOJHIBMG@union?5?$AA@ 04033000     LIBCMT:undname.obj
 0002:00006008       ??_C@_07DIBCDNGL@struct?5?$AA@ 04033008     LIBCMT:undname.obj
 0002:00006010       ??_C@_06LJBABKPM@class?5?$AA@ 04033010     LIBCMT:undname.obj
 0002:00006018       ??_C@_08KOFANOFK@coclass?5?$AA@ 04033018     LIBCMT:undname.obj
 0002:00006024       ??_C@_0N@DLIEFKNA@cointerface?5?$AA@ 04033024     LIBCMT:undname.obj
 0002:00006034       ??_C@_05LJGMCFOG@enum?5?$AA@ 04033034     LIBCMT:undname.obj
 0002:0000603c       ??_C@_09GAIEOBLP@volatile?5?$AA@ 0403303c     LIBCMT:undname.obj
 0002:00006048       ??_C@_06LIJLOJAG@const?5?$AA@ 04033048     LIBCMT:undname.obj
 0002:00006050       ??_C@_0M@EALIELKG@cli?3?3array?$DM?$AA@ 04033050     LIBCMT:undname.obj
 0002:0000605c       ??_C@_0O@GKABPPIF@cli?3?3pin_ptr?$DM?$AA@ 0403305c     LIBCMT:undname.obj
 0002:0000606c       ??_C@_02GOGNNPBN@?$CJ?$FL?$AA@ 0403306c     LIBCMT:undname.obj
 0002:00006070       ??_C@_06EEGAIFAK@?$HLflat?$HN?$AA@ 04033070     LIBCMT:undname.obj
 0002:00006078       ??_C@_05JIBOFOHK@?$HLfor?5?$AA@ 04033078     LIBCMT:undname.obj
 0002:00006080       ??_C@_02MDINNEEG@s?5?$AA@  04033080     LIBCMT:undname.obj
 0002:00006088       ??_7DNameNode@@6B@         04033088     LIBCMT:undname.obj
 0002:00006098       ??_7charNode@@6B@          04033098     LIBCMT:undname.obj
 0002:000060a8       ??_7pcharNode@@6B@         040330a8     LIBCMT:undname.obj
 0002:000060b8       ??_7pDNameNode@@6B@        040330b8     LIBCMT:undname.obj
 0002:000060c8       ??_7DNameStatusNode@@6B@   040330c8     LIBCMT:undname.obj
 0002:000060d8       ??_7pairNode@@6B@          040330d8     LIBCMT:undname.obj
 0002:000060e4       ??_C@_04OKOHEJBO@?5?$DP?$DP?5?$AA@ 040330e4     LIBCMT:undname.obj
 0002:000060ec       ??_C@_1BG@GOEBHBDC@?$AAU?$AAS?$AAE?$AAR?$AA3?$AA2?$AA?4?$AAD?$AAL?$AAL?$AA?$AA@ 040330ec     LIBCMT:crtmboxw.obj
 0002:00006104       ??_C@_0M@DLDCCGNP@MessageBoxW?$AA@ 04033104     LIBCMT:crtmboxw.obj
 0002:00006110       ??_C@_0BA@HNOPNCHB@GetActiveWindow?$AA@ 04033110     LIBCMT:crtmboxw.obj
 0002:00006120       ??_C@_0BD@HHGDFDBJ@GetLastActivePopup?$AA@ 04033120     LIBCMT:crtmboxw.obj
 0002:00006134       ??_C@_0BK@DEKFELLI@GetUserObjectInformationW?$AA@ 04033134     LIBCMT:crtmboxw.obj
 0002:00006150       ??_C@_0BI@DFKBFLJE@GetProcessWindowStation?$AA@ 04033150     LIBCMT:crtmboxw.obj
 0002:00006168       ___newctype                04033168     LIBCMT:ctype.obj
 0002:00006468       __wctype                   04033468     LIBCMT:ctype.obj
 0002:00006670       ___newclmap                04033670     LIBCMT:ctype.obj
 0002:000067f0       ___newcumap                040337f0     LIBCMT:ctype.obj
 0002:00006970       ___rg_language             04033970     LIBCMT:getqloc.obj
 0002:00006c7c       ??_C@_1BC@LLOKLNP@?$AAa?$AAm?$AAe?$AAr?$AAi?$AAc?$AAa?$AAn?$AA?$AA@ 04033c7c     LIBCMT:getqloc.obj
 0002:00006c90       ??_C@_1CC@HEIGCDGG@?$AAa?$AAm?$AAe?$AAr?$AAi?$AAc?$AAa?$AAn?$AA?5?$AAe?$AAn?$AAg?$AAl?$AAi?$AAs?$AAh?$AA?$AA@ 04033c90     LIBCMT:getqloc.obj
 0002:00006cb4       ??_C@_1CC@IHCNOMIN@?$AAa?$AAm?$AAe?$AAr?$AAi?$AAc?$AAa?$AAn?$AA?9?$AAe?$AAn?$AAg?$AAl?$AAi?$AAs?$AAh?$AA?$AA@ 04033cb4     LIBCMT:getqloc.obj
 0002:00006cd8       ??_C@_1BG@GKAGPCGG@?$AAa?$AAu?$AAs?$AAt?$AAr?$AAa?$AAl?$AAi?$AAa?$AAn?$AA?$AA@ 04033cd8     LIBCMT:getqloc.obj
 0002:00006cf0       ??_C@_1BA@GMENCENF@?$AAb?$AAe?$AAl?$AAg?$AAi?$AAa?$AAn?$AA?$AA@ 04033cf0     LIBCMT:getqloc.obj
 0002:00006d00       ??_C@_1BC@PJMIIAAN@?$AAc?$AAa?$AAn?$AAa?$AAd?$AAi?$AAa?$AAn?$AA?$AA@ 04033d00     LIBCMT:getqloc.obj
 0002:00006d14       ??_C@_17NOIMNFBF@?$AAc?$AAh?$AAh?$AA?$AA@ 04033d14     LIBCMT:getqloc.obj
 0002:00006d1c       ??_C@_17GGDALCHA@?$AAc?$AAh?$AAi?$AA?$AA@ 04033d1c     LIBCMT:getqloc.obj
 0002:00006d24       ??_C@_1BA@NPNJKIBL@?$AAc?$AAh?$AAi?$AAn?$AAe?$AAs?$AAe?$AA?$AA@ 04033d24     LIBCMT:getqloc.obj
 0002:00006d34       ??_C@_1CC@DINBAMMJ@?$AAc?$AAh?$AAi?$AAn?$AAe?$AAs?$AAe?$AA?9?$AAh?$AAo?$AAn?$AAg?$AAk?$AAo?$AAn?$AAg?$AA?$AA@ 04033d34     LIBCMT:getqloc.obj
 0002:00006d58       ??_C@_1CG@IOBJPACO@?$AAc?$AAh?$AAi?$AAn?$AAe?$AAs?$AAe?$AA?9?$AAs?$AAi?$AAm?$AAp?$AAl?$AAi?$AAf?$AAi?$AAe?$AAd?$AA?$AA@ 04033d58     LIBCMT:getqloc.obj
 0002:00006d80       ??_C@_1CE@GAJNDCKG@?$AAc?$AAh?$AAi?$AAn?$AAe?$AAs?$AAe?$AA?9?$AAs?$AAi?$AAn?$AAg?$AAa?$AAp?$AAo?$AAr?$AAe?$AA?$AA@ 04033d80     LIBCMT:getqloc.obj
 0002:00006da4       ??_C@_1CI@PAJPIOOD@?$AAc?$AAh?$AAi?$AAn?$AAe?$AAs?$AAe?$AA?9?$AAt?$AAr?$AAa?$AAd?$AAi?$AAt?$AAi?$AAo?$AAn?$AAa?$AAl?$AA?$AA@ 04033da4     LIBCMT:getqloc.obj
 0002:00006dcc       ??_C@_1BM@NILJBMMD@?$AAd?$AAu?$AAt?$AAc?$AAh?$AA?9?$AAb?$AAe?$AAl?$AAg?$AAi?$AAa?$AAn?$AA?$AA@ 04033dcc     LIBCMT:getqloc.obj
 0002:00006de8       ??_C@_1CC@OOJPJNEJ@?$AAe?$AAn?$AAg?$AAl?$AAi?$AAs?$AAh?$AA?9?$AAa?$AAm?$AAe?$AAr?$AAi?$AAc?$AAa?$AAn?$AA?$AA@ 04033de8     LIBCMT:getqloc.obj
 0002:00006e0c       ??_C@_1BI@IOLFEEM@?$AAe?$AAn?$AAg?$AAl?$AAi?$AAs?$AAh?$AA?9?$AAa?$AAu?$AAs?$AA?$AA@ 04033e0c     LIBCMT:getqloc.obj
 0002:00006e24       ??_C@_1BO@HFFNLENJ@?$AAe?$AAn?$AAg?$AAl?$AAi?$AAs?$AAh?$AA?9?$AAb?$AAe?$AAl?$AAi?$AAz?$AAe?$AA?$AA@ 04033e24     LIBCMT:getqloc.obj
 0002:00006e44       ??_C@_1BI@HAPKJMPO@?$AAe?$AAn?$AAg?$AAl?$AAi?$AAs?$AAh?$AA?9?$AAc?$AAa?$AAn?$AA?$AA@ 04033e44     LIBCMT:getqloc.obj
 0002:00006e5c       ??_C@_1CE@HLNDMIOJ@?$AAe?$AAn?$AAg?$AAl?$AAi?$AAs?$AAh?$AA?9?$AAc?$AAa?$AAr?$AAi?$AAb?$AAb?$AAe?$AAa?$AAn?$AA?$AA@ 04033e5c     LIBCMT:getqloc.obj
 0002:00006e80       ??_C@_1BI@LDHJHHAC@?$AAe?$AAn?$AAg?$AAl?$AAi?$AAs?$AAh?$AA?9?$AAi?$AAr?$AAe?$AA?$AA@ 04033e80     LIBCMT:getqloc.obj
 0002:00006e98       ??_C@_1CA@NJMMCFOC@?$AAe?$AAn?$AAg?$AAl?$AAi?$AAs?$AAh?$AA?9?$AAj?$AAa?$AAm?$AAa?$AAi?$AAc?$AAa?$AA?$AA@ 04033e98     LIBCMT:getqloc.obj
 0002:00006eb8       ??_C@_1BG@BHJEBBGG@?$AAe?$AAn?$AAg?$AAl?$AAi?$AAs?$AAh?$AA?9?$AAn?$AAz?$AA?$AA@ 04033eb8     LIBCMT:getqloc.obj
 0002:00006ed0       ??_C@_1CK@FGOEJJCO@?$AAe?$AAn?$AAg?$AAl?$AAi?$AAs?$AAh?$AA?9?$AAs?$AAo?$AAu?$AAt?$AAh?$AA?5?$AAa?$AAf?$AAr?$AAi?$AAc?$AAa?$AA?$AA@ 04033ed0     LIBCMT:getqloc.obj
 0002:00006efc       ??_C@_1DE@PDBJPCJ@?$AAe?$AAn?$AAg?$AAl?$AAi?$AAs?$AAh?$AA?9?$AAt?$AAr?$AAi?$AAn?$AAi?$AAd?$AAa?$AAd?$AA?5?$AAy?$AA?5?$AAt?$AAo?$AAb?$AAa?$AAg?$AAo?$AA?$AA@ 04033efc     LIBCMT:getqloc.obj
 0002:00006f30       ??_C@_1BG@JGCANDME@?$AAe?$AAn?$AAg?$AAl?$AAi?$AAs?$AAh?$AA?9?$AAu?$AAk?$AA?$AA@ 04033f30     LIBCMT:getqloc.obj
 0002:00006f48       ??_C@_1BG@DINKMLE@?$AAe?$AAn?$AAg?$AAl?$AAi?$AAs?$AAh?$AA?9?$AAu?$AAs?$AA?$AA@ 04033f48     LIBCMT:getqloc.obj
 0002:00006f60       ??_C@_1BI@NMFDBHJE@?$AAe?$AAn?$AAg?$AAl?$AAi?$AAs?$AAh?$AA?9?$AAu?$AAs?$AAa?$AA?$AA@ 04033f60     LIBCMT:getqloc.obj
 0002:00006f78       ??_C@_1BO@OIHKJKII@?$AAf?$AAr?$AAe?$AAn?$AAc?$AAh?$AA?9?$AAb?$AAe?$AAl?$AAg?$AAi?$AAa?$AAn?$AA?$AA@ 04033f78     LIBCMT:getqloc.obj
 0002:00006f98       ??_C@_1CA@NKAELJKI@?$AAf?$AAr?$AAe?$AAn?$AAc?$AAh?$AA?9?$AAc?$AAa?$AAn?$AAa?$AAd?$AAi?$AAa?$AAn?$AA?$AA@ 04033f98     LIBCMT:getqloc.obj
 0002:00006fb8       ??_C@_1CE@MGKCNLGN@?$AAf?$AAr?$AAe?$AAn?$AAc?$AAh?$AA?9?$AAl?$AAu?$AAx?$AAe?$AAm?$AAb?$AAo?$AAu?$AAr?$AAg?$AA?$AA@ 04033fb8     LIBCMT:getqloc.obj
 0002:00006fdc       ??_C@_1BK@CEGEAILM@?$AAf?$AAr?$AAe?$AAn?$AAc?$AAh?$AA?9?$AAs?$AAw?$AAi?$AAs?$AAs?$AA?$AA@ 04033fdc     LIBCMT:getqloc.obj
 0002:00006ff8       ??_C@_1CA@PAFKEOCC@?$AAg?$AAe?$AAr?$AAm?$AAa?$AAn?$AA?9?$AAa?$AAu?$AAs?$AAt?$AAr?$AAi?$AAa?$AAn?$AA?$AA@ 04033ff8     LIBCMT:getqloc.obj
 0002:00007018       ??_C@_1CI@HCFHGOFD@?$AAg?$AAe?$AAr?$AAm?$AAa?$AAn?$AA?9?$AAl?$AAi?$AAc?$AAh?$AAt?$AAe?$AAn?$AAs?$AAt?$AAe?$AAi?$AAn?$AA?$AA@ 04034018     LIBCMT:getqloc.obj
 0002:00007040       ??_C@_1CE@FEDDNPDG@?$AAg?$AAe?$AAr?$AAm?$AAa?$AAn?$AA?9?$AAl?$AAu?$AAx?$AAe?$AAm?$AAb?$AAo?$AAu?$AAr?$AAg?$AA?$AA@ 04034040     LIBCMT:getqloc.obj
 0002:00007064       ??_C@_1BK@LIMINNMN@?$AAg?$AAe?$AAr?$AAm?$AAa?$AAn?$AA?9?$AAs?$AAw?$AAi?$AAs?$AAs?$AA?$AA@ 04034064     LIBCMT:getqloc.obj
 0002:00007080       ??_C@_1BM@LGMDBEPD@?$AAi?$AAr?$AAi?$AAs?$AAh?$AA?9?$AAe?$AAn?$AAg?$AAl?$AAi?$AAs?$AAh?$AA?$AA@ 04034080     LIBCMT:getqloc.obj
 0002:0000709c       ??_C@_1BM@NNCFBAEE@?$AAi?$AAt?$AAa?$AAl?$AAi?$AAa?$AAn?$AA?9?$AAs?$AAw?$AAi?$AAs?$AAs?$AA?$AA@ 0403409c     LIBCMT:getqloc.obj
 0002:000070b8       ??_C@_1BE@FEDJNPIB@?$AAn?$AAo?$AAr?$AAw?$AAe?$AAg?$AAi?$AAa?$AAn?$AA?$AA@ 040340b8     LIBCMT:getqloc.obj
 0002:000070cc       ??_C@_1CC@CILKDEIE@?$AAn?$AAo?$AAr?$AAw?$AAe?$AAg?$AAi?$AAa?$AAn?$AA?9?$AAb?$AAo?$AAk?$AAm?$AAa?$AAl?$AA?$AA@ 040340cc     LIBCMT:getqloc.obj
 0002:000070f0       ??_C@_1CE@DHMMHEPL@?$AAn?$AAo?$AAr?$AAw?$AAe?$AAg?$AAi?$AAa?$AAn?$AA?9?$AAn?$AAy?$AAn?$AAo?$AAr?$AAs?$AAk?$AA?$AA@ 040340f0     LIBCMT:getqloc.obj
 0002:00007114       ??_C@_1CK@OPNMHECD@?$AAp?$AAo?$AAr?$AAt?$AAu?$AAg?$AAu?$AAe?$AAs?$AAe?$AA?9?$AAb?$AAr?$AAa?$AAz?$AAi?$AAl?$AAi?$AAa?$AAn?$AA?$AA@ 04034114     LIBCMT:getqloc.obj
 0002:00007140       ??_C@_1CE@KEEHCDB@?$AAs?$AAp?$AAa?$AAn?$AAi?$AAs?$AAh?$AA?9?$AAa?$AAr?$AAg?$AAe?$AAn?$AAt?$AAi?$AAn?$AAa?$AA?$AA@ 04034140     LIBCMT:getqloc.obj
 0002:00007164       ??_C@_1CA@GIAOLHJD@?$AAs?$AAp?$AAa?$AAn?$AAi?$AAs?$AAh?$AA?9?$AAb?$AAo?$AAl?$AAi?$AAv?$AAi?$AAa?$AA?$AA@ 04034164     LIBCMT:getqloc.obj
 0002:00007184       ??_C@_1BM@OJNDFNPD@?$AAs?$AAp?$AAa?$AAn?$AAi?$AAs?$AAh?$AA?9?$AAc?$AAh?$AAi?$AAl?$AAe?$AA?$AA@ 04034184     LIBCMT:getqloc.obj
 0002:000071a0       ??_C@_1CC@OCOLPALL@?$AAs?$AAp?$AAa?$AAn?$AAi?$AAs?$AAh?$AA?9?$AAc?$AAo?$AAl?$AAo?$AAm?$AAb?$AAi?$AAa?$AA?$AA@ 040341a0     LIBCMT:getqloc.obj
 0002:000071c4       ??_C@_1CG@BPOFMKBB@?$AAs?$AAp?$AAa?$AAn?$AAi?$AAs?$AAh?$AA?9?$AAc?$AAo?$AAs?$AAt?$AAa?$AA?5?$AAr?$AAi?$AAc?$AAa?$AA?$AA@ 040341c4     LIBCMT:getqloc.obj
 0002:000071ec       ??_C@_1DG@IGOBAPBB@?$AAs?$AAp?$AAa?$AAn?$AAi?$AAs?$AAh?$AA?9?$AAd?$AAo?$AAm?$AAi?$AAn?$AAi?$AAc?$AAa?$AAn?$AA?5?$AAr?$AAe?$AAp?$AAu?$AAb?$AAl?$AAi?$AAc?$AA?$AA@ 040341ec     LIBCMT:getqloc.obj
 0002:00007224       ??_C@_1CA@JHAPGEGI@?$AAs?$AAp?$AAa?$AAn?$AAi?$AAs?$AAh?$AA?9?$AAe?$AAc?$AAu?$AAa?$AAd?$AAo?$AAr?$AA?$AA@ 04034224     LIBCMT:getqloc.obj
 0002:00007244       ??_C@_1CI@LAPALJPP@?$AAs?$AAp?$AAa?$AAn?$AAi?$AAs?$AAh?$AA?9?$AAe?$AAl?$AA?5?$AAs?$AAa?$AAl?$AAv?$AAa?$AAd?$AAo?$AAr?$AA?$AA@ 04034244     LIBCMT:getqloc.obj
 0002:0000726c       ??_C@_1CE@PDGBOFOM@?$AAs?$AAp?$AAa?$AAn?$AAi?$AAs?$AAh?$AA?9?$AAg?$AAu?$AAa?$AAt?$AAe?$AAm?$AAa?$AAl?$AAa?$AA?$AA@ 0403426c     LIBCMT:getqloc.obj
 0002:00007290       ??_C@_1CC@NBEBAODI@?$AAs?$AAp?$AAa?$AAn?$AAi?$AAs?$AAh?$AA?9?$AAh?$AAo?$AAn?$AAd?$AAu?$AAr?$AAa?$AAs?$AA?$AA@ 04034290     LIBCMT:getqloc.obj
 0002:000072b4       ??_C@_1CA@LLKGHBMF@?$AAs?$AAp?$AAa?$AAn?$AAi?$AAs?$AAh?$AA?9?$AAm?$AAe?$AAx?$AAi?$AAc?$AAa?$AAn?$AA?$AA@ 040342b4     LIBCMT:getqloc.obj
 0002:000072d4       ??_C@_1BO@LKNDOIGD@?$AAs?$AAp?$AAa?$AAn?$AAi?$AAs?$AAh?$AA?9?$AAm?$AAo?$AAd?$AAe?$AAr?$AAn?$AA?$AA@ 040342d4     LIBCMT:getqloc.obj
 0002:000072f4       ??_C@_1CE@NMDMOEEB@?$AAs?$AAp?$AAa?$AAn?$AAi?$AAs?$AAh?$AA?9?$AAn?$AAi?$AAc?$AAa?$AAr?$AAa?$AAg?$AAu?$AAa?$AA?$AA@ 040342f4     LIBCMT:getqloc.obj
 0002:00007318       ??_C@_1BO@LLCBEJGB@?$AAs?$AAp?$AAa?$AAn?$AAi?$AAs?$AAh?$AA?9?$AAp?$AAa?$AAn?$AAa?$AAm?$AAa?$AA?$AA@ 04034318     LIBCMT:getqloc.obj
 0002:00007338       ??_C@_1CC@FKPGGIHO@?$AAs?$AAp?$AAa?$AAn?$AAi?$AAs?$AAh?$AA?9?$AAp?$AAa?$AAr?$AAa?$AAg?$AAu?$AAa?$AAy?$AA?$AA@ 04034338     LIBCMT:getqloc.obj
 0002:0000735c       ??_C@_1BK@CDEIHOOP@?$AAs?$AAp?$AAa?$AAn?$AAi?$AAs?$AAh?$AA?9?$AAp?$AAe?$AAr?$AAu?$AA?$AA@ 0403435c     LIBCMT:getqloc.obj
 0002:00007378       ??_C@_1CI@GAHAKKGP@?$AAs?$AAp?$AAa?$AAn?$AAi?$AAs?$AAh?$AA?9?$AAp?$AAu?$AAe?$AAr?$AAt?$AAo?$AA?5?$AAr?$AAi?$AAc?$AAo?$AA?$AA@ 04034378     LIBCMT:getqloc.obj
 0002:000073a0       ??_C@_1CA@NKJBCAGP@?$AAs?$AAp?$AAa?$AAn?$AAi?$AAs?$AAh?$AA?9?$AAu?$AAr?$AAu?$AAg?$AAu?$AAa?$AAy?$AA?$AA@ 040343a0     LIBCMT:getqloc.obj
 0002:000073c0       ??_C@_1CE@ODILCONM@?$AAs?$AAp?$AAa?$AAn?$AAi?$AAs?$AAh?$AA?9?$AAv?$AAe?$AAn?$AAe?$AAz?$AAu?$AAe?$AAl?$AAa?$AA?$AA@ 040343c0     LIBCMT:getqloc.obj
 0002:000073e4       ??_C@_1CA@OBNMCGFO@?$AAs?$AAw?$AAe?$AAd?$AAi?$AAs?$AAh?$AA?9?$AAf?$AAi?$AAn?$AAl?$AAa?$AAn?$AAd?$AA?$AA@ 040343e4     LIBCMT:getqloc.obj
 0002:00007404       ??_C@_1M@PIPDDPPI@?$AAs?$AAw?$AAi?$AAs?$AAs?$AA?$AA@ 04034404     LIBCMT:getqloc.obj
 0002:00007410       ??_C@_15GMFIMNFM@?$AAu?$AAs?$AA?$AA@ 04034410     LIBCMT:getqloc.obj
 0002:00007418       ??_C@_17HAEBFAGL@?$AAu?$AAs?$AAa?$AA?$AA@ 04034418     LIBCMT:getqloc.obj
 0002:00007420       ___rg_country              04034420     LIBCMT:getqloc.obj
 0002:00007534       ??_C@_1BA@DPFJEPHB@?$AAa?$AAm?$AAe?$AAr?$AAi?$AAc?$AAa?$AA?$AA@ 04034534     LIBCMT:getqloc.obj
 0002:00007544       ??_C@_1BA@ELOGGFK@?$AAb?$AAr?$AAi?$AAt?$AAa?$AAi?$AAn?$AA?$AA@ 04034544     LIBCMT:getqloc.obj
 0002:00007554       ??_C@_1M@GHBGIGDA@?$AAc?$AAh?$AAi?$AAn?$AAa?$AA?$AA@ 04034554     LIBCMT:getqloc.obj
 0002:00007560       ??_C@_1M@NCHEJOPO@?$AAc?$AAz?$AAe?$AAc?$AAh?$AA?$AA@ 04034560     LIBCMT:getqloc.obj
 0002:0000756c       ??_C@_1BA@BKPAPBLA@?$AAe?$AAn?$AAg?$AAl?$AAa?$AAn?$AAd?$AA?$AA@ 0403456c     LIBCMT:getqloc.obj
 0002:0000757c       ??_C@_1BM@HKBCKIPC@?$AAg?$AAr?$AAe?$AAa?$AAt?$AA?5?$AAb?$AAr?$AAi?$AAt?$AAa?$AAi?$AAn?$AA?$AA@ 0403457c     LIBCMT:getqloc.obj
 0002:00007598       ??_C@_1BA@PPCHPGJB@?$AAh?$AAo?$AAl?$AAl?$AAa?$AAn?$AAd?$AA?$AA@ 04034598     LIBCMT:getqloc.obj
 0002:000075a8       ??_C@_1BE@JBMPEGDG@?$AAh?$AAo?$AAn?$AAg?$AA?9?$AAk?$AAo?$AAn?$AAg?$AA?$AA@ 040345a8     LIBCMT:getqloc.obj
 0002:000075bc       ??_C@_1BI@KOELBBPJ@?$AAn?$AAe?$AAw?$AA?9?$AAz?$AAe?$AAa?$AAl?$AAa?$AAn?$AAd?$AA?$AA@ 040345bc     LIBCMT:getqloc.obj
 0002:000075d4       ??_C@_15HIEBHAIO@?$AAn?$AAz?$AA?$AA@ 040345d4     LIBCMT:getqloc.obj
 0002:000075dc       ??_C@_1BC@CHBCPFPI@?$AAp?$AAr?$AA?5?$AAc?$AAh?$AAi?$AAn?$AAa?$AA?$AA@ 040345dc     LIBCMT:getqloc.obj
 0002:000075f0       ??_C@_1BC@JAOIIFKD@?$AAp?$AAr?$AA?9?$AAc?$AAh?$AAi?$AAn?$AAa?$AA?$AA@ 040345f0     LIBCMT:getqloc.obj
 0002:00007604       ??_C@_1BI@BEHPPHKC@?$AAp?$AAu?$AAe?$AAr?$AAt?$AAo?$AA?9?$AAr?$AAi?$AAc?$AAo?$AA?$AA@ 04034604     LIBCMT:getqloc.obj
 0002:0000761c       ??_C@_1O@PAEOFKDI@?$AAs?$AAl?$AAo?$AAv?$AAa?$AAk?$AA?$AA@ 0403461c     LIBCMT:getqloc.obj
 0002:0000762c       ??_C@_1BK@FIHMCKAM@?$AAs?$AAo?$AAu?$AAt?$AAh?$AA?5?$AAa?$AAf?$AAr?$AAi?$AAc?$AAa?$AA?$AA@ 0403462c     LIBCMT:getqloc.obj
 0002:00007648       ??_C@_1BI@NAEOODKB@?$AAs?$AAo?$AAu?$AAt?$AAh?$AA?5?$AAk?$AAo?$AAr?$AAe?$AAa?$AA?$AA@ 04034648     LIBCMT:getqloc.obj
 0002:00007660       ??_C@_1BK@FBDGGIFF@?$AAs?$AAo?$AAu?$AAt?$AAh?$AA?9?$AAa?$AAf?$AAr?$AAi?$AAc?$AAa?$AA?$AA@ 04034660     LIBCMT:getqloc.obj
 0002:0000767c       ??_C@_1BI@GHLEJDPK@?$AAs?$AAo?$AAu?$AAt?$AAh?$AA?9?$AAk?$AAo?$AAr?$AAe?$AAa?$AA?$AA@ 0403467c     LIBCMT:getqloc.obj
 0002:00007694       ??_C@_1CE@PLHLOMJF@?$AAt?$AAr?$AAi?$AAn?$AAi?$AAd?$AAa?$AAd?$AA?5?$AA?$CG?$AA?5?$AAt?$AAo?$AAb?$AAa?$AAg?$AAo?$AA?$AA@ 04034694     LIBCMT:getqloc.obj
 0002:000076b8       ??_C@_1BO@MODIMHHI@?$AAu?$AAn?$AAi?$AAt?$AAe?$AAd?$AA?9?$AAk?$AAi?$AAn?$AAg?$AAd?$AAo?$AAm?$AA?$AA@ 040346b8     LIBCMT:getqloc.obj
 0002:000076d8       ??_C@_1BM@FFHJONBJ@?$AAu?$AAn?$AAi?$AAt?$AAe?$AAd?$AA?9?$AAs?$AAt?$AAa?$AAt?$AAe?$AAs?$AA?$AA@ 040346d8     LIBCMT:getqloc.obj
 0002:000076f4       ___rg_language_count       040346f4     LIBCMT:getqloc.obj
 0002:000076f8       ___rg_country_count        040346f8     LIBCMT:getqloc.obj
 0002:000076fc       ??_C@_17DNCLJFIF@?$AAA?$AAC?$AAP?$AA?$AA@ 040346fc     LIBCMT:getqloc.obj
 0002:00007704       ??_C@_17CIKBIHLH@?$AAO?$AAC?$AAP?$AA?$AA@ 04034704     LIBCMT:getqloc.obj
 0002:0000770c       ___rglangidNotDefault      0403470c     LIBCMT:getqloc_downlevel.obj
 0002:00007720       ??_C@_06PGGFOGJG@1?$CDSNAN?$AA@ 04034720     LIBCMT:x10fout.obj
 0002:00007728       ??_C@_05PHHOCPM@1?$CDIND?$AA@ 04034728     LIBCMT:x10fout.obj
 0002:00007730       ??_C@_05DNEBIAHO@1?$CDINF?$AA@ 04034730     LIBCMT:x10fout.obj
 0002:00007738       ??_C@_06IMKFLFPG@1?$CDQNAN?$AA@ 04034738     LIBCMT:x10fout.obj
 0002:00007740       ??_C@_1BA@BALFACEM@?$AAC?$AAO?$AAN?$AAO?$AAU?$AAT?$AA$?$AA?$AA@ 04034740     LIBCMT:initcon.obj
 0002:00007750       __real@00000000            04034750     LIBCMT:wcstoq.obj
 0002:00007758       __load_config_used         04034758     LIBCMT:loadcfg.obj
 0002:0000780c       ??_R4error_category@std@@6B@ 0403480c     MQ2ChatWnd.obj
 0002:00007820       ??_R3error_category@std@@8 04034820     MQ2ChatWnd.obj
 0002:00007830       ??_R2error_category@std@@8 04034830     MQ2ChatWnd.obj
 0002:00007838       ??_R1A@?0A@EA@error_category@std@@8 04034838     MQ2ChatWnd.obj
 0002:00007854       ??_R4_Generic_error_category@std@@6B@ 04034854     MQ2ChatWnd.obj
 0002:00007868       ??_R3_Generic_error_category@std@@8 04034868     MQ2ChatWnd.obj
 0002:00007878       ??_R2_Generic_error_category@std@@8 04034878     MQ2ChatWnd.obj
 0002:00007884       ??_R1A@?0A@EA@_Generic_error_category@std@@8 04034884     MQ2ChatWnd.obj
 0002:000078a0       ??_R4_Iostream_error_category@std@@6B@ 040348a0     MQ2ChatWnd.obj
 0002:000078b4       ??_R3_Iostream_error_category@std@@8 040348b4     MQ2ChatWnd.obj
 0002:000078c4       ??_R2_Iostream_error_category@std@@8 040348c4     MQ2ChatWnd.obj
 0002:000078d4       ??_R1A@?0A@EA@_Iostream_error_category@std@@8 040348d4     MQ2ChatWnd.obj
 0002:000078f0       ??_R4_System_error_category@std@@6B@ 040348f0     MQ2ChatWnd.obj
 0002:00007904       ??_R3_System_error_category@std@@8 04034904     MQ2ChatWnd.obj
 0002:00007914       ??_R2_System_error_category@std@@8 04034914     MQ2ChatWnd.obj
 0002:00007924       ??_R1A@?0A@EA@_System_error_category@std@@8 04034924     MQ2ChatWnd.obj
 0002:00007940       ??_R1A@?0A@EA@exception@std@@8 04034940     libcpmt:xthrow.obj
 0002:0000795c       ??_R3exception@std@@8      0403495c     libcpmt:xthrow.obj
 0002:0000796c       ??_R2exception@std@@8      0403496c     libcpmt:xthrow.obj
 0002:00007974       ??_R4bad_alloc@std@@6B@    04034974     libcpmt:xthrow.obj
 0002:00007988       ??_R3bad_alloc@std@@8      04034988     libcpmt:xthrow.obj
 0002:00007998       ??_R2bad_alloc@std@@8      04034998     libcpmt:xthrow.obj
 0002:000079a4       ??_R1A@?0A@EA@bad_alloc@std@@8 040349a4     libcpmt:xthrow.obj
 0002:000079c0       ??_R4logic_error@std@@6B@  040349c0     libcpmt:xthrow.obj
 0002:000079d4       ??_R3logic_error@std@@8    040349d4     libcpmt:xthrow.obj
 0002:000079e4       ??_R2logic_error@std@@8    040349e4     libcpmt:xthrow.obj
 0002:000079f0       ??_R1A@?0A@EA@logic_error@std@@8 040349f0     libcpmt:xthrow.obj
 0002:00007a0c       ??_R4invalid_argument@std@@6B@ 04034a0c     libcpmt:xthrow.obj
 0002:00007a20       ??_R3invalid_argument@std@@8 04034a20     libcpmt:xthrow.obj
 0002:00007a30       ??_R2invalid_argument@std@@8 04034a30     libcpmt:xthrow.obj
 0002:00007a40       ??_R1A@?0A@EA@invalid_argument@std@@8 04034a40     libcpmt:xthrow.obj
 0002:00007a5c       ??_R4length_error@std@@6B@ 04034a5c     libcpmt:xthrow.obj
 0002:00007a70       ??_R3length_error@std@@8   04034a70     libcpmt:xthrow.obj
 0002:00007a80       ??_R2length_error@std@@8   04034a80     libcpmt:xthrow.obj
 0002:00007a90       ??_R1A@?0A@EA@length_error@std@@8 04034a90     libcpmt:xthrow.obj
 0002:00007aac       ??_R4out_of_range@std@@6B@ 04034aac     libcpmt:xthrow.obj
 0002:00007ac0       ??_R3out_of_range@std@@8   04034ac0     libcpmt:xthrow.obj
 0002:00007ad0       ??_R2out_of_range@std@@8   04034ad0     libcpmt:xthrow.obj
 0002:00007ae0       ??_R1A@?0A@EA@out_of_range@std@@8 04034ae0     libcpmt:xthrow.obj
 0002:00007afc       ??_R4runtime_error@std@@6B@ 04034afc     libcpmt:xthrow.obj
 0002:00007b10       ??_R3runtime_error@std@@8  04034b10     libcpmt:xthrow.obj
 0002:00007b20       ??_R2runtime_error@std@@8  04034b20     libcpmt:xthrow.obj
 0002:00007b2c       ??_R1A@?0A@EA@runtime_error@std@@8 04034b2c     libcpmt:xthrow.obj
 0002:00007b48       ??_R4overflow_error@std@@6B@ 04034b48     libcpmt:xthrow.obj
 0002:00007b5c       ??_R3overflow_error@std@@8 04034b5c     libcpmt:xthrow.obj
 0002:00007b6c       ??_R2overflow_error@std@@8 04034b6c     libcpmt:xthrow.obj
 0002:00007b7c       ??_R1A@?0A@EA@overflow_error@std@@8 04034b7c     libcpmt:xthrow.obj
 0002:00007b98       ??_R4bad_function_call@std@@6B@ 04034b98     libcpmt:xthrow.obj
 0002:00007bac       ??_R3bad_function_call@std@@8 04034bac     libcpmt:xthrow.obj
 0002:00007bbc       ??_R2bad_function_call@std@@8 04034bbc     libcpmt:xthrow.obj
 0002:00007bc8       ??_R1A@?0A@EA@bad_function_call@std@@8 04034bc8     libcpmt:xthrow.obj
 0002:00007be4       ??_R4regex_error@std@@6B@  04034be4     libcpmt:xthrow.obj
 0002:00007bf8       ??_R3regex_error@std@@8    04034bf8     libcpmt:xthrow.obj
 0002:00007c08       ??_R2regex_error@std@@8    04034c08     libcpmt:xthrow.obj
 0002:00007c18       ??_R1A@?0A@EA@regex_error@std@@8 04034c18     libcpmt:xthrow.obj
 0002:00007c34       ??_R4type_info@@6B@        04034c34     LIBCMT:typinfo.obj
 0002:00007c48       ??_R3type_info@@8          04034c48     LIBCMT:typinfo.obj
 0002:00007c58       ??_R2type_info@@8          04034c58     LIBCMT:typinfo.obj
 0002:00007c60       ??_R1A@?0A@EA@type_info@@8 04034c60     LIBCMT:typinfo.obj
 0002:00007c7c       ??_R4exception@std@@6B@    04034c7c     LIBCMT:stdexcpt.obj
 0002:00007c90       ??_R4bad_cast@std@@6B@     04034c90     LIBCMT:stdexcpt.obj
 0002:00007ca4       ??_R3bad_cast@std@@8       04034ca4     LIBCMT:stdexcpt.obj
 0002:00007cb4       ??_R2bad_cast@std@@8       04034cb4     LIBCMT:stdexcpt.obj
 0002:00007cc0       ??_R1A@?0A@EA@bad_cast@std@@8 04034cc0     LIBCMT:stdexcpt.obj
 0002:00007cdc       ??_R4bad_typeid@std@@6B@   04034cdc     LIBCMT:stdexcpt.obj
 0002:00007cf0       ??_R3bad_typeid@std@@8     04034cf0     LIBCMT:stdexcpt.obj
 0002:00007d00       ??_R2bad_typeid@std@@8     04034d00     LIBCMT:stdexcpt.obj
 0002:00007d0c       ??_R1A@?0A@EA@bad_typeid@std@@8 04034d0c     LIBCMT:stdexcpt.obj
 0002:00007d28       ??_R4__non_rtti_object@std@@6B@ 04034d28     LIBCMT:stdexcpt.obj
 0002:00007d3c       ??_R3__non_rtti_object@std@@8 04034d3c     LIBCMT:stdexcpt.obj
 0002:00007d4c       ??_R2__non_rtti_object@std@@8 04034d4c     LIBCMT:stdexcpt.obj
 0002:00007d5c       ??_R1A@?0A@EA@__non_rtti_object@std@@8 04034d5c     LIBCMT:stdexcpt.obj
 0002:00007d78       ??_R4bad_exception@std@@6B@ 04034d78     LIBCMT:frame.obj
 0002:00007d8c       ??_R3bad_exception@std@@8  04034d8c     LIBCMT:frame.obj
 0002:00007d9c       ??_R2bad_exception@std@@8  04034d9c     LIBCMT:frame.obj
 0002:00007da8       ??_R1A@?0A@EA@bad_exception@std@@8 04034da8     LIBCMT:frame.obj
 0002:00007dc4       ??_R4DNameNode@@6B@        04034dc4     LIBCMT:undname.obj
 0002:00007dd8       ??_R3DNameNode@@8          04034dd8     LIBCMT:undname.obj
 0002:00007de8       ??_R2DNameNode@@8          04034de8     LIBCMT:undname.obj
 0002:00007df0       ??_R1A@?0A@EA@DNameNode@@8 04034df0     LIBCMT:undname.obj
 0002:00007e0c       ??_R4charNode@@6B@         04034e0c     LIBCMT:undname.obj
 0002:00007e20       ??_R3charNode@@8           04034e20     LIBCMT:undname.obj
 0002:00007e30       ??_R2charNode@@8           04034e30     LIBCMT:undname.obj
 0002:00007e3c       ??_R1A@?0A@EA@charNode@@8  04034e3c     LIBCMT:undname.obj
 0002:00007e58       ??_R4pcharNode@@6B@        04034e58     LIBCMT:undname.obj
 0002:00007e6c       ??_R3pcharNode@@8          04034e6c     LIBCMT:undname.obj
 0002:00007e7c       ??_R2pcharNode@@8          04034e7c     LIBCMT:undname.obj
 0002:00007e88       ??_R1A@?0A@EA@pcharNode@@8 04034e88     LIBCMT:undname.obj
 0002:00007ea4       ??_R4pDNameNode@@6B@       04034ea4     LIBCMT:undname.obj
 0002:00007eb8       ??_R3pDNameNode@@8         04034eb8     LIBCMT:undname.obj
 0002:00007ec8       ??_R2pDNameNode@@8         04034ec8     LIBCMT:undname.obj
 0002:00007ed4       ??_R1A@?0A@EA@pDNameNode@@8 04034ed4     LIBCMT:undname.obj
 0002:00007ef0       ??_R4DNameStatusNode@@6B@  04034ef0     LIBCMT:undname.obj
 0002:00007f04       ??_R3DNameStatusNode@@8    04034f04     LIBCMT:undname.obj
 0002:00007f14       ??_R2DNameStatusNode@@8    04034f14     LIBCMT:undname.obj
 0002:00007f20       ??_R1A@?0A@EA@DNameStatusNode@@8 04034f20     LIBCMT:undname.obj
 0002:00007f3c       ??_R4pairNode@@6B@         04034f3c     LIBCMT:undname.obj
 0002:00007f50       ??_R3pairNode@@8           04034f50     LIBCMT:undname.obj
 0002:00007f60       ??_R2pairNode@@8           04034f60     LIBCMT:undname.obj
 0002:00007f6c       ??_R1A@?0A@EA@pairNode@@8  04034f6c     LIBCMT:undname.obj
 0002:00007f90       ___safe_se_handler_table   04034f90     <linker-defined>
 0002:00007fc8       ___rtc_iaa                 04034fc8     LIBCMT:initsect.obj
 0002:00007fcc       ___rtc_izz                 04034fcc     LIBCMT:initsect.obj
 0002:00007fd0       ___rtc_taa                 04034fd0     LIBCMT:initsect.obj
 0002:00007fd4       ___rtc_tzz                 04034fd4     LIBCMT:initsect.obj
 0002:000081fc       __TI2?AVbad_alloc@std@@    040351fc     libcpmt:xthrow.obj
 0002:0000820c       __CTA2?AVbad_alloc@std@@   0403520c     libcpmt:xthrow.obj
 0002:00008218       __CT??_R0?AVbad_alloc@std@@@8??0bad_alloc@std@@QAE@ABV01@@Z12 04035218     libcpmt:xthrow.obj
 0002:00008234       __CT??_R0?AVexception@std@@@8??0exception@std@@QAE@ABV01@@Z12 04035234     libcpmt:xthrow.obj
 0002:00008250       __TI3?AVinvalid_argument@std@@ 04035250     libcpmt:xthrow.obj
 0002:00008260       __CTA3?AVinvalid_argument@std@@ 04035260     libcpmt:xthrow.obj
 0002:00008270       __CT??_R0?AVinvalid_argument@std@@@8??0invalid_argument@std@@QAE@ABV01@@Z12 04035270     libcpmt:xthrow.obj
 0002:0000828c       __CT??_R0?AVlogic_error@std@@@8??0logic_error@std@@QAE@ABV01@@Z12 0403528c     libcpmt:xthrow.obj
 0002:000082a8       __TI3?AVlength_error@std@@ 040352a8     libcpmt:xthrow.obj
 0002:000082b8       __CTA3?AVlength_error@std@@ 040352b8     libcpmt:xthrow.obj
 0002:000082c8       __CT??_R0?AVlength_error@std@@@8??0length_error@std@@QAE@ABV01@@Z12 040352c8     libcpmt:xthrow.obj
 0002:000082e4       __TI3?AVout_of_range@std@@ 040352e4     libcpmt:xthrow.obj
 0002:000082f4       __CTA3?AVout_of_range@std@@ 040352f4     libcpmt:xthrow.obj
 0002:00008304       __CT??_R0?AVout_of_range@std@@@8??0out_of_range@std@@QAE@ABV01@@Z12 04035304     libcpmt:xthrow.obj
 0002:00008320       __TI3?AVoverflow_error@std@@ 04035320     libcpmt:xthrow.obj
 0002:00008330       __CTA3?AVoverflow_error@std@@ 04035330     libcpmt:xthrow.obj
 0002:00008340       __CT??_R0?AVoverflow_error@std@@@8??0overflow_error@std@@QAE@ABV01@@Z12 04035340     libcpmt:xthrow.obj
 0002:0000835c       __CT??_R0?AVruntime_error@std@@@8??0runtime_error@std@@QAE@ABV01@@Z12 0403535c     libcpmt:xthrow.obj
 0002:00008378       __TI2?AVruntime_error@std@@ 04035378     libcpmt:xthrow.obj
 0002:00008388       __CTA2?AVruntime_error@std@@ 04035388     libcpmt:xthrow.obj
 0002:00008394       __TI2?AVbad_function_call@std@@ 04035394     libcpmt:xthrow.obj
 0002:000083a4       __CTA2?AVbad_function_call@std@@ 040353a4     libcpmt:xthrow.obj
 0002:000083b0       __CT??_R0?AVbad_function_call@std@@@8??0bad_function_call@std@@QAE@ABV01@@Z12 040353b0     libcpmt:xthrow.obj
 0002:000083cc       __TI3?AVregex_error@std@@  040353cc     libcpmt:xthrow.obj
 0002:000083dc       __CTA3?AVregex_error@std@@ 040353dc     libcpmt:xthrow.obj
 0002:000083ec       __CT??_R0?AVregex_error@std@@@8??0regex_error@std@@QAE@ABV01@@Z16 040353ec     libcpmt:xthrow.obj
 0002:0000863c       __TI2?AVbad_exception@std@@ 0403563c     LIBCMT:frame.obj
 0002:0000864c       __CTA2?AVbad_exception@std@@ 0403564c     LIBCMT:frame.obj
 0002:00008658       __CT??_R0?AVbad_exception@std@@@8??0bad_exception@std@@QAE@ABV01@@Z12 04035658     LIBCMT:frame.obj
 0002:00008c08       __IMPORT_DESCRIPTOR_KERNEL32 04035c08     kernel32:KERNEL32.dll
 0002:00008c1c       __IMPORT_DESCRIPTOR_MQ2Main 04035c1c     MQ2Main:MQ2Main.dll
 0002:00008c30       __NULL_IMPORT_DESCRIPTOR   04035c30     kernel32:KERNEL32.dll
 0003:00000110       ?bAutoScroll@@3_NA         04037110     MQ2ChatWnd.obj
 0003:00000111       ?bSaveByChar@@3_NA         04037111     MQ2ChatWnd.obj
 0003:00000114       ?_Generic_object@?$_Error_objects@H@std@@2V_Generic_error_category@2@A 04037114     MQ2ChatWnd.obj
 0003:00000118       ?_Iostream_object@?$_Error_objects@H@std@@2V_Iostream_error_category@2@A 04037118     MQ2ChatWnd.obj
 0003:0000011c       ?_System_object@?$_Error_objects@H@std@@2V_System_error_category@2@A 0403711c     MQ2ChatWnd.obj
 0003:00000120       __fltused                  04037120     LIBCMT:fpinit.obj
 0003:00000124       __ldused                   04037124     LIBCMT:fpinit.obj
 0003:00000130       ___abort_behavior          04037130     LIBCMT:abort.obj
 0003:00000140       ___isa_enabled             04037140     LIBCMT:cpu_disp.obj
 0003:000002b8       ___nullstring              040372b8     LIBCMT:output.obj
 0003:000002bc       ___wnullstring             040372bc     LIBCMT:output.obj
 0003:000002c8       __d_inf                    040372c8     LIBCMT:util.obj
 0003:000002d0       __d_ind                    040372d0     LIBCMT:util.obj
 0003:000002d8       __d_max                    040372d8     LIBCMT:util.obj
 0003:000002e0       __d_min                    040372e0     LIBCMT:util.obj
 0003:000002e8       __d_mzero                  040372e8     LIBCMT:util.obj
 0003:000003f4       ___flsindex                040373f4     LIBCMT:tidtable.obj
 0003:00000400       ___security_cookie         04037400     LIBCMT:gs_cookie.obj
 0003:00000404       ___security_cookie_complement 04037404     LIBCMT:gs_cookie.obj
 0003:00000410       __cfltcvt_tab              04037410     LIBCMT:cmiscdat.obj
 0003:00000438       ___badioinfo               04037438     LIBCMT:ioinit.obj
 0003:000005a0       __mbctype                  040375a0     LIBCMT:mbctype.obj
 0003:000006a8       __mbcasemap                040376a8     LIBCMT:mbctype.obj
 0003:000007a8       ___initialmbcinfo          040377a8     LIBCMT:mbctype.obj
 0003:000009cc       ___ptmbcinfo               040379cc     LIBCMT:mbctype.obj
 0003:00000ac0       ___mb_cur_max              04037ac0     LIBCMT:nlsdata.obj
 0003:00000ac4       ___wclocalestr             04037ac4     LIBCMT:nlsdata.obj
 0003:00000ac8       ___lc_time_c               04037ac8     LIBCMT:nlsdata.obj
 0003:00000c2c       ___ptlocinfo               04037c2c     LIBCMT:nlsdata.obj
 0003:00000c30       ___initiallocinfo          04037c30     LIBCMT:nlsdata.obj
 0003:00000ce8       ___initiallocalestructinfo 04037ce8     LIBCMT:nlsdata.obj
 0003:00000cf0       ___globallocalestatus      04037cf0     LIBCMT:glstatus.obj
 0003:00000cf8       __iob                      04037cf8     LIBCMT:_file.obj
 0003:00000f90       __matherr_flag             04037f90     LIBCMT:matherr.obj
 0003:00000fa0       __NLG_Destination          04037fa0     LIBCMT:exsup.obj
 0003:00000fb0       __lookuptrailbytes         04037fb0     LIBCMT:read.obj
 0003:000010b0       ___lconv                   040380b0     LIBCMT:lconv.obj
 0003:000010b4       ___lconv_static_decimal    040380b4     LIBCMT:lconv.obj
 0003:000010b8       ___lconv_c                 040380b8     LIBCMT:lconv.obj
 0003:00001108       ___lconv_static_W_decimal  04038108     LIBCMT:lconv.obj
 0003:0000110c       __pctype                   0403810c     LIBCMT:ctype.obj
 0003:00001110       __pwctype                  04038110     LIBCMT:ctype.obj
 0003:00001120       __HUGE                     04038120     LIBCMT:huge.obj
 0003:00001158       __confh                    04038158     LIBCMT:initcon.obj
 0003:00001160       __pow10pos                 04038160     LIBCMT:constpow.obj
 0003:000012c0       __pow10neg                 040382c0     LIBCMT:constpow.obj
 0003:00001420       ??_R0?AVerror_category@std@@@8 04038420     MQ2ChatWnd.obj
 0003:00001444       ??_R0?AV_Generic_error_category@std@@@8 04038444     MQ2ChatWnd.obj
 0003:00001470       ??_R0?AV_Iostream_error_category@std@@@8 04038470     MQ2ChatWnd.obj
 0003:0000149c       ??_R0?AV_System_error_category@std@@@8 0403849c     MQ2ChatWnd.obj
 0003:000014c8       ??_R0?AVbad_alloc@std@@@8  040384c8     libcpmt:xthrow.obj
 0003:000014e4       ??_R0?AVexception@std@@@8  040384e4     libcpmt:xthrow.obj
 0003:00001500       ??_R0?AVinvalid_argument@std@@@8 04038500     libcpmt:xthrow.obj
 0003:00001524       ??_R0?AVlogic_error@std@@@8 04038524     libcpmt:xthrow.obj
 0003:00001544       ??_R0?AVlength_error@std@@@8 04038544     libcpmt:xthrow.obj
 0003:00001564       ??_R0?AVout_of_range@std@@@8 04038564     libcpmt:xthrow.obj
 0003:00001584       ??_R0?AVoverflow_error@std@@@8 04038584     libcpmt:xthrow.obj
 0003:000015a8       ??_R0?AVruntime_error@std@@@8 040385a8     libcpmt:xthrow.obj
 0003:000015c8       ??_R0?AVbad_function_call@std@@@8 040385c8     libcpmt:xthrow.obj
 0003:000015ec       ??_R0?AVregex_error@std@@@8 040385ec     libcpmt:xthrow.obj
 0003:0000160c       ??_R0?AVtype_info@@@8      0403860c     LIBCMT:typinfo.obj
 0003:00001624       ??_R0?AVbad_cast@std@@@8   04038624     LIBCMT:stdexcpt.obj
 0003:00001640       ??_R0?AVbad_typeid@std@@@8 04038640     LIBCMT:stdexcpt.obj
 0003:00001660       ??_R0?AV__non_rtti_object@std@@@8 04038660     LIBCMT:stdexcpt.obj
 0003:00001684       ??_R0?AVbad_exception@std@@@8 04038684     LIBCMT:frame.obj
 0003:000016a4       ??_R0?AVDNameNode@@@8      040386a4     LIBCMT:undname.obj
 0003:000016bc       ??_R0?AVcharNode@@@8       040386bc     LIBCMT:undname.obj
 0003:000016d4       ??_R0?AVpcharNode@@@8      040386d4     LIBCMT:undname.obj
 0003:000016ec       ??_R0?AVpDNameNode@@@8     040386ec     LIBCMT:undname.obj
 0003:00001708       ??_R0?AVDNameStatusNode@@@8 04038708     LIBCMT:undname.obj
 0003:00001728       ??_R0?AVpairNode@@@8       04038728     LIBCMT:undname.obj
 0003:00001740       ?pPendingChat@@3PAUChatBuffer@@A 04038740     MQ2ChatWnd.obj
 0003:00001744       ?pPendingChatTail@@3PAUChatBuffer@@A 04038744     MQ2ChatWnd.obj
 0003:00001748       ?ulOldVScrollPos@@3KA      04038748     MQ2ChatWnd.obj
 0003:0000174c       ?bmStripFirstStmlLines@@3KA 0403874c     MQ2ChatWnd.obj
 0003:00001750       ?PendingChatLines@@3KA     04038750     MQ2ChatWnd.obj
 0003:00001754       ?bNoCharSelect@@3_NA       04038754     MQ2ChatWnd.obj
 0003:00001758       ?szChatINISection@@3PADA   04038758     MQ2ChatWnd.obj
 0003:00001f58       ?MQChatWnd@@3PAVCMQChatWnd@@A 04038f58     MQ2ChatWnd.obj
 0003:00001f60       ?INIFileName@@3PADA        04038f60     MQ2ChatWnd.obj
 0003:00002068       ?id@?$num_put@DV?$back_insert_iterator@V?$basic_string@DU?$char_traits@D@std@@V?$allocator@D@2@@std@@@std@@@std@@2V0locale@2@A 04039068     MQ2ChatWnd.obj
 0003:0000206c       ?id@?$num_put@_WV?$back_insert_iterator@V?$basic_string@_WU?$char_traits@_W@std@@V?$allocator@_W@2@@std@@@std@@@std@@2V0locale@2@A 0403906c     MQ2ChatWnd.obj
 0003:00002070       ?id@?$numpunct@D@std@@2V0locale@2@A 04039070     MQ2ChatWnd.obj
 0003:00002074       ?id@?$numpunct@_W@std@@2V0locale@2@A 04039074     MQ2ChatWnd.obj
 0003:00002080       ___fastflag                04039080     LIBCMT:fpinit.obj
 0003:00002088       __aenvptr                  04039088     LIBCMT:dllcrt0.obj
 0003:0000208c       __wenvptr                  0403908c     LIBCMT:dllcrt0.obj
 0003:00002090       ___pPurecall               04039090     LIBCMT:inithelp.obj
 0003:00002094       ?_pnhHeap@@3P6AHI@ZA       04039094     LIBCMT:handler.obj
 0003:00002098       __C_Exit_Done              04039098     LIBCMT:crt0dat.obj
 0003:0000209c       ___argc                    0403909c     LIBCMT:crt0dat.obj
 0003:000020a0       ___argv                    040390a0     LIBCMT:crt0dat.obj
 0003:000020a4       ___wargv                   040390a4     LIBCMT:crt0dat.obj
 0003:000020a8       __environ                  040390a8     LIBCMT:crt0dat.obj
 0003:000020ac       __wenviron                 040390ac     LIBCMT:crt0dat.obj
 0003:000020b0       __pgmptr                   040390b0     LIBCMT:crt0dat.obj
 0003:000020b4       __wpgmptr                  040390b4     LIBCMT:crt0dat.obj
 0003:000020b8       __umaskval                 040390b8     LIBCMT:crt0dat.obj
 0003:000020bc       __exitflag                 040390bc     LIBCMT:crt0dat.obj
 0003:000020c0       __C_Termination_Done       040390c0     LIBCMT:crt0dat.obj
 0003:000020c4       ___winitenv                040390c4     LIBCMT:crt0dat.obj
 0003:000020c8       ___initenv                 040390c8     LIBCMT:crt0dat.obj
 0003:000020cc       __maxwait                  040390cc     LIBCMT:crtheap.obj
 0003:000020d0       ___isa_available           040390d0     LIBCMT:cpu_disp.obj
 0003:000020d4       ___favor                   040390d4     LIBCMT:cpu_disp.obj
 0003:000020d8       ___pInvalidArgHandler      040390d8     LIBCMT:invarg.obj
 0003:000020dc       ?__pInconsistency@@3P6AXXZA 040390dc     LIBCMT:hooks.obj
 0003:000020e0       ?g_OutOfMemoryExceptionCallback@@3P6GPAXXZA 040390e0     LIBCMT:frame.obj
 0003:000020ec       __crtheap                  040390ec     LIBCMT:heapinit.obj
 0003:000020f0       ___pioinfo                 040390f0     LIBCMT:ioinit.obj
 0003:00002630       ___app_type                04039630     LIBCMT:crt0msg.obj
 0003:00002c60       __newmode                  04039c60     LIBCMT:_newmode.obj
 0003:00002dbc       ___mbcodepage              04039dbc     LIBCMT:mbctype.obj
 0003:00002dc0       ___ismbcodepage            04039dc0     LIBCMT:mbctype.obj
 0003:00002dc4       ___mbulinfo                04039dc4     LIBCMT:mbctype.obj
 0003:00002dd0       ___mblocalename            04039dd0     LIBCMT:mbctype.obj
 0003:00002dd8       __stdbuf                   04039dd8     LIBCMT:_sftbuf.obj
 0003:00002de0       __cflush                   04039de0     LIBCMT:_file.obj
 0003:00002de8       ___locale_changed          04039de8     LIBCMT:wsetloca.obj
 0003:00002dec       ?pArgList@UnDecorator@@0PAVReplicator@@A 04039dec     LIBCMT:undname.obj
 0003:00002df0       ?pZNameList@UnDecorator@@0PAVReplicator@@A 04039df0     LIBCMT:undname.obj
 0003:00002df4       ?pTemplateArgList@UnDecorator@@0PAVReplicator@@A 04039df4     LIBCMT:undname.obj
 0003:00002df8       ?gName@UnDecorator@@0PBDB  04039df8     LIBCMT:undname.obj
 0003:00002dfc       ?name@UnDecorator@@0PBDB   04039dfc     LIBCMT:undname.obj
 0003:00002e00       ?outputString@UnDecorator@@0PADA 04039e00     LIBCMT:undname.obj
 0003:00002e04       ?maxStringLength@UnDecorator@@0HA 04039e04     LIBCMT:undname.obj
 0003:00002e08       ?disableFlags@UnDecorator@@0KA 04039e08     LIBCMT:undname.obj
 0003:00002e0c       ?fExplicitTemplateParams@UnDecorator@@0_NA 04039e0c     LIBCMT:undname.obj
 0003:00002e0d       ?fGetTemplateArgumentList@UnDecorator@@0_NA 04039e0d     LIBCMT:undname.obj
 0003:00002e10       ?m_pGetParameter@UnDecorator@@0P6APADJ@ZA 04039e10     LIBCMT:undname.obj
 0003:00002e28       ?nodes@?1??make@DNameStatusNode@@SAPAV2@W4DNameStatus@@@Z@4PAV2@A 04039e28     LIBCMT:undname.obj
 0003:00002e58       ??_B?1??make@DNameStatusNode@@SAPAV1@W4DNameStatus@@@Z@51 04039e58     LIBCMT:undname.obj
 0003:00002e5c       __outputformat             04039e5c     LIBCMT:outputformat.obj
 0003:00002e60       ___error_mode              04039e60     LIBCMT:errmode.obj
 0003:00002e78       ___lconv_static_null       04039e78     LIBCMT:lconv.obj
 0003:00002e7c       ___lconv_static_W_null     04039e7c     LIBCMT:lconv.obj
 0003:00002e80       ___unguarded_readlc_active 04039e80     <common>
 0003:00002e84       ___setlc_active            04039e84     <common>
 0003:00002ea0       __bufin                    04039ea0     <common>
 0003:00003ea0       ___piob                    0403aea0     <common>
 0003:00003ea4       __nstream                  0403aea4     <common>
 0003:00003ea8       __debugger_hook_dummy      0403aea8     <common>
 0003:00003ec0       _encodedKERNEL32Functions  0403aec0     <common>
 0003:00003f44       __nhandle                  0403af44     <common>
 0003:00003f48       ___dyn_tls_init_callback   0403af48     <common>
 0003:00003f4c       ___onexitend               0403af4c     <common>
 0003:00003f50       ___onexitbegin             0403af50     <common>
 0003:00003f54       ___mbctype_initialized     0403af54     <common>
 0003:00003f58       ___env_initialized         0403af58     <common>
 0003:00003f5c       __acmdln                   0403af5c     <common>

 entry point at        0001:00005e16

 Static symbols

 0000:fffc1000       .debug$S                   04000000     MQ2Main:MQ2Main.dll
 0000:fffc1000       .debug$S                   04000000     MQ2Main:MQ2Main.dll
 0000:fffc1000       .debug$S                   04000000     MQ2Main:MQ2Main.dll
 0000:fffc1000       .debug$S                   04000000     MQ2Main:MQ2Main.dll
 0000:fffc1000       .debug$S                   04000000     MQ2Main:MQ2Main.dll
 0000:fffc1000       .debug$S                   04000000     MQ2Main:MQ2Main.dll
 0000:fffc1000       .debug$S                   04000000     MQ2Main:MQ2Main.dll
 0000:fffc1000       .debug$S                   04000000     MQ2Main:MQ2Main.dll
 0000:fffc1000       .debug$S                   04000000     MQ2Main:MQ2Main.dll
 0000:fffc1000       .debug$S                   04000000     MQ2Main:MQ2Main.dll
 0000:fffc1000       .debug$S                   04000000     MQ2Main:MQ2Main.dll
 0000:fffc1000       .debug$S                   04000000     MQ2Main:MQ2Main.dll
 0000:fffc1000       .debug$S                   04000000     MQ2Main:MQ2Main.dll
 0000:fffc1000       .debug$S                   04000000     MQ2Main:MQ2Main.dll
 0000:fffc1000       .debug$S                   04000000     MQ2Main:MQ2Main.dll
 0000:fffc1000       .debug$S                   04000000     MQ2Main:MQ2Main.dll
 0000:fffc1000       .debug$S                   04000000     MQ2Main:MQ2Main.dll
 0000:fffc1000       .debug$S                   04000000     MQ2Main:MQ2Main.dll
 0000:fffc1000       .debug$S                   04000000     MQ2Main:MQ2Main.dll
 0000:fffc1000       .debug$S                   04000000     MQ2Main:MQ2Main.dll
 0000:fffc1000       .debug$S                   04000000     MQ2Main:MQ2Main.dll
 0000:fffc1000       .debug$S                   04000000     MQ2Main:MQ2Main.dll
 0000:fffc1000       .debug$S                   04000000     MQ2Main:MQ2Main.dll
 0000:fffc1000       .debug$S                   04000000     MQ2Main:MQ2Main.dll
 0000:fffc1000       .debug$S                   04000000     MQ2Main:MQ2Main.dll
 0000:fffc1000       .debug$S                   04000000     MQ2Main:MQ2Main.dll
 0000:fffc1000       .debug$S                   04000000     MQ2Main:MQ2Main.dll
 0000:fffc1000       .debug$S                   04000000     MQ2Main:MQ2Main.dll
 0000:fffc1000       .debug$S                   04000000     MQ2Main:MQ2Main.dll
 0000:fffc1000       .debug$S                   04000000     MQ2Main:MQ2Main.dll
 0000:fffc1000       .debug$S                   04000000     MQ2Main:MQ2Main.dll
 0000:fffc1000       .debug$S                   04000000     MQ2Main:MQ2Main.dll
 0000:fffc1000       .debug$S                   04000000     MQ2Main:MQ2Main.dll
 0000:fffc1000       .debug$S                   04000000     MQ2Main:MQ2Main.dll
 0000:fffc1000       .debug$S                   04000000     MQ2Main:MQ2Main.dll
 0000:fffc1000       .debug$S                   04000000     MQ2Main:MQ2Main.dll
 0000:fffc1000       .debug$S                   04000000     MQ2Main:MQ2Main.dll
 0000:fffc1000       .debug$S                   04000000     MQ2Main:MQ2Main.dll
 0000:fffc1000       .debug$S                   04000000     MQ2Main:MQ2Main.dll
 0000:fffc1000       .debug$S                   04000000     MQ2Main:MQ2Main.dll
 0000:fffc1000       .debug$S                   04000000     MQ2Main:MQ2Main.dll
 0000:fffc1000       .debug$S                   04000000     MQ2Main:MQ2Main.dll
 0000:fffc1000       .debug$S                   04000000     MQ2Main:MQ2Main.dll
 0000:fffc1000       .debug$S                   04000000     MQ2Main:MQ2Main.dll
 0000:fffc1000       .debug$S                   04000000     MQ2Main:MQ2Main.dll
 0000:fffc1000       .debug$S                   04000000     MQ2Main:MQ2Main.dll
 0000:fffc1000       .debug$S                   04000000     MQ2Main:MQ2Main.dll
 0000:fffc1000       .debug$S                   04000000     MQ2Main:MQ2Main.dll
 0000:fffc1000       .debug$S                   04000000     MQ2Main:MQ2Main.dll
 0000:fffc1000       .debug$S                   04000000     MQ2Main:MQ2Main.dll
 0002:fffd3000       ?_System_object$initializer$@?$_Error_objects@H@std@@2P6AXXZA 04000000     libcpmt:xthrow.obj
 0002:fffd3000       ?_Iostream_object$initializer$@?$_Error_objects@H@std@@2P6AXXZA 04000000     libcpmt:xthrow.obj
 0002:fffd3000       ?_Generic_object$initializer$@?$_Error_objects@H@std@@2P6AXXZA 04000000     libcpmt:xthrow.obj
 0000:fffc1000       .debug$S                   04000000     MQ2Main:MQ2Main.dll
 0000:fffc1000       .debug$S                   04000000     MQ2Main:MQ2Main.dll
 0000:fffc1000       .debug$S                   04000000     MQ2Main:MQ2Main.dll
 0000:fffc1000       .debug$S                   04000000     MQ2Main:MQ2Main.dll
 0002:fffd3000       __catchsym$?_Copy@?$basic_string@DU?$char_traits@D@std@@V?$allocator@D@2@@std@@QAEXII@Z$5 04000000     libcpmt:xthrow.obj
 0001:fffff000       __ehhandler$?_Copy@?$basic_string@DU?$char_traits@D@std@@V?$allocator@D@2@@std@@QAEXII@Z 04000000 f   libcpmt:xthrow.obj
 0002:fffd3000       ?_System_object$initializer$@?$_Error_objects@H@std@@2P6AXXZA 04000000     libcpmt:syserror.obj
 0002:fffd3000       ?_Iostream_object$initializer$@?$_Error_objects@H@std@@2P6AXXZA 04000000     libcpmt:syserror.obj
 0002:fffd3000       ?_Generic_object$initializer$@?$_Error_objects@H@std@@2P6AXXZA 04000000     libcpmt:syserror.obj
 0002:fffd3000       __catchsym$?_Copy@?$basic_string@DU?$char_traits@D@std@@V?$allocator@D@2@@std@@QAEXII@Z$5 04000000     libcpmt:syserror.obj
 0001:fffff000       __ehhandler$?_Copy@?$basic_string@DU?$char_traits@D@std@@V?$allocator@D@2@@std@@QAEXII@Z 04000000 f   libcpmt:syserror.obj
 0000:fffc1000       .debug$S                   04000000     kernel32:KERNEL32.dll
 0000:fffc1000       .debug$S                   04000000     kernel32:KERNEL32.dll
 0000:fffc1000       .debug$S                   04000000     kernel32:KERNEL32.dll
 0000:fffc1000       .debug$S                   04000000     kernel32:KERNEL32.dll
 0000:fffc1000       .debug$S                   04000000     kernel32:KERNEL32.dll
 0000:fffc1000       .debug$S                   04000000     kernel32:KERNEL32.dll
 0000:fffc1000       .debug$S                   04000000     kernel32:KERNEL32.dll
 0000:fffc1000       .debug$S                   04000000     kernel32:KERNEL32.dll
 0000:fffc1000       .debug$S                   04000000     kernel32:KERNEL32.dll
 0000:fffc1000       .debug$S                   04000000     kernel32:KERNEL32.dll
 0000:fffc1000       .debug$S                   04000000     kernel32:KERNEL32.dll
 0000:fffc1000       .debug$S                   04000000     kernel32:KERNEL32.dll
 0000:fffc1000       .debug$S                   04000000     kernel32:KERNEL32.dll
 0000:fffc1000       .debug$S                   04000000     kernel32:KERNEL32.dll
 0000:fffc1000       .debug$S                   04000000     kernel32:KERNEL32.dll
 0000:fffc1000       .debug$S                   04000000     kernel32:KERNEL32.dll
 0000:fffc1000       .debug$S                   04000000     kernel32:KERNEL32.dll
 0000:fffc1000       .debug$S                   04000000     kernel32:KERNEL32.dll
 0000:fffc1000       .debug$S                   04000000     kernel32:KERNEL32.dll
 0000:fffc1000       .debug$S                   04000000     kernel32:KERNEL32.dll
 0000:fffc1000       .debug$S                   04000000     kernel32:KERNEL32.dll
 0000:fffc1000       .debug$S                   04000000     kernel32:KERNEL32.dll
 0000:fffc1000       .debug$S                   04000000     kernel32:KERNEL32.dll
 0000:fffc1000       .debug$S                   04000000     kernel32:KERNEL32.dll
 0000:fffc1000       .debug$S                   04000000     kernel32:KERNEL32.dll
 0000:fffc1000       .debug$S                   04000000     kernel32:KERNEL32.dll
 0000:fffc1000       .debug$S                   04000000     kernel32:KERNEL32.dll
 0000:fffc1000       .debug$S                   04000000     kernel32:KERNEL32.dll
 0000:fffc1000       .debug$S                   04000000     kernel32:KERNEL32.dll
 0000:fffc1000       .debug$S                   04000000     kernel32:KERNEL32.dll
 0000:fffc1000       .debug$S                   04000000     kernel32:KERNEL32.dll
 0000:fffc1000       .debug$S                   04000000     kernel32:KERNEL32.dll
 0000:fffc1000       .debug$S                   04000000     kernel32:KERNEL32.dll
 0000:fffc1000       .debug$S                   04000000     kernel32:KERNEL32.dll
 0000:fffc1000       .debug$S                   04000000     kernel32:KERNEL32.dll
 0000:fffc1000       .debug$S                   04000000     kernel32:KERNEL32.dll
 0000:fffc1000       .debug$S                   04000000     kernel32:KERNEL32.dll
 0000:fffc1000       .debug$S                   04000000     kernel32:KERNEL32.dll
 0000:fffc1000       .debug$S                   04000000     kernel32:KERNEL32.dll
 0000:fffc1000       .debug$S                   04000000     kernel32:KERNEL32.dll
 0000:fffc1000       .debug$S                   04000000     kernel32:KERNEL32.dll
 0000:fffc1000       .debug$S                   04000000     kernel32:KERNEL32.dll
 0000:fffc1000       .debug$S                   04000000     kernel32:KERNEL32.dll
 0000:fffc1000       .debug$S                   04000000     kernel32:KERNEL32.dll
 0000:fffc1000       .debug$S                   04000000     kernel32:KERNEL32.dll
 0000:fffc1000       .debug$S                   04000000     kernel32:KERNEL32.dll
 0000:fffc1000       .debug$S                   04000000     kernel32:KERNEL32.dll
 0000:fffc1000       .debug$S                   04000000     kernel32:KERNEL32.dll
 0000:fffc1000       .debug$S                   04000000     kernel32:KERNEL32.dll
 0000:fffc1000       .debug$S                   04000000     kernel32:KERNEL32.dll
 0000:fffc1000       .debug$S                   04000000     kernel32:KERNEL32.dll
 0000:fffc1000       .debug$S                   04000000     kernel32:KERNEL32.dll
 0000:fffc1000       .debug$S                   04000000     kernel32:KERNEL32.dll
 0000:fffc1000       .debug$S                   04000000     kernel32:KERNEL32.dll
 0000:fffc1000       .debug$S                   04000000     kernel32:KERNEL32.dll
 0000:fffc1000       .debug$S                   04000000     kernel32:KERNEL32.dll
 0000:fffc1000       .debug$S                   04000000     kernel32:KERNEL32.dll
 0000:fffc1000       .debug$S                   04000000     kernel32:KERNEL32.dll
 0000:fffc1000       .debug$S                   04000000     kernel32:KERNEL32.dll
 0000:fffc1000       .debug$S                   04000000     kernel32:KERNEL32.dll
 0000:fffc1000       .debug$S                   04000000     kernel32:KERNEL32.dll
 0000:fffc1000       .debug$S                   04000000     kernel32:KERNEL32.dll
 0000:fffc1000       .debug$S                   04000000     kernel32:KERNEL32.dll
 0000:fffc1000       .debug$S                   04000000     kernel32:KERNEL32.dll
 0000:fffc1000       .debug$S                   04000000     kernel32:KERNEL32.dll
 0000:fffc1000       .debug$S                   04000000     kernel32:KERNEL32.dll
 0000:fffc1000       .debug$S                   04000000     kernel32:KERNEL32.dll
 0000:fffc1000       .debug$S                   04000000     kernel32:KERNEL32.dll
 0000:fffc1000       .debug$S                   04000000     kernel32:KERNEL32.dll
 0000:fffc1000       .debug$S                   04000000     kernel32:KERNEL32.dll
 0000:fffc1000       .debug$S                   04000000     kernel32:KERNEL32.dll
 0000:fffc1000       .debug$S                   04000000     kernel32:KERNEL32.dll
 0000:fffc1000       .debug$S                   04000000     kernel32:KERNEL32.dll
 0000:fffc1000       .debug$S                   04000000     kernel32:KERNEL32.dll
 0000:fffc1000       .debug$S                   04000000     kernel32:KERNEL32.dll
 0000:fffc1000       .debug$S                   04000000     kernel32:KERNEL32.dll
 0000:fffc1000       .debug$S                   04000000     kernel32:KERNEL32.dll
 0000:fffc1000       .debug$S                   04000000     kernel32:KERNEL32.dll
 0000:fffc1000       .debug$S                   04000000     kernel32:KERNEL32.dll
 0000:fffc1000       .debug$S                   04000000     kernel32:KERNEL32.dll
 0000:fffc1000       .debug$S                   04000000     kernel32:KERNEL32.dll
 0000:fffc1000       .debug$S                   04000000     MQ2Main:MQ2Main.dll
 0002:fffd3010       __catchsym$?_Copy@?$basic_string@DU?$char_traits@D@std@@V?$allocator@D@2@@std@@QAEXII@Z$4 04000010     libcpmt:syserror.obj
 0002:fffd3010       __catchsym$?_Copy@?$basic_string@DU?$char_traits@D@std@@V?$allocator@D@2@@std@@QAEXII@Z$4 04000010     libcpmt:xthrow.obj
 0002:fffd3020       __unwindtable$?_Copy@?$basic_string@DU?$char_traits@D@std@@V?$allocator@D@2@@std@@QAEXII@Z 04000020     libcpmt:syserror.obj
 0002:fffd3020       __unwindtable$?_Copy@?$basic_string@DU?$char_traits@D@std@@V?$allocator@D@2@@std@@QAEXII@Z 04000020     libcpmt:xthrow.obj
 0002:fffd3040       __ehfuncinfo$?_Copy@?$basic_string@DU?$char_traits@D@std@@V?$allocator@D@2@@std@@QAEXII@Z 04000040     libcpmt:syserror.obj
 0002:fffd3040       __ehfuncinfo$?_Copy@?$basic_string@DU?$char_traits@D@std@@V?$allocator@D@2@@std@@QAEXII@Z 04000040     libcpmt:xthrow.obj
 0001:fffff063       __catch$?_Copy@?$basic_string@DU?$char_traits@D@std@@V?$allocator@D@2@@std@@QAEXII@Z$0 04000063 f   libcpmt:xthrow.obj
 0001:fffff063       __catch$?_Copy@?$basic_string@DU?$char_traits@D@std@@V?$allocator@D@2@@std@@QAEXII@Z$0 04000063 f   libcpmt:syserror.obj
 0002:fffd3064       __tryblocktable$?_Copy@?$basic_string@DU?$char_traits@D@std@@V?$allocator@D@2@@std@@QAEXII@Z 04000064     libcpmt:syserror.obj
 0002:fffd3064       __tryblocktable$?_Copy@?$basic_string@DU?$char_traits@D@std@@V?$allocator@D@2@@std@@QAEXII@Z 04000064     libcpmt:xthrow.obj
 0001:fffff0e2       __catch$?_Copy@?$basic_string@DU?$char_traits@D@std@@V?$allocator@D@2@@std@@QAEXII@Z$1 040000e2 f   libcpmt:xthrow.obj
 0001:fffff0e2       __catch$?_Copy@?$basic_string@DU?$char_traits@D@std@@V?$allocator@D@2@@std@@QAEXII@Z$1 040000e2 f   libcpmt:syserror.obj
 0001:00000000       ??__E?_Generic_object@?$_Error_objects@H@std@@2V_Generic_error_category@2@A@@YAXXZ 04001000 f   MQ2ChatWnd.obj
 0001:00000010       ??__E?_Iostream_object@?$_Error_objects@H@std@@2V_Iostream_error_category@2@A@@YAXXZ 04001010 f   MQ2ChatWnd.obj
 0001:00000020       ??__E?_System_object@?$_Error_objects@H@std@@2V_System_error_category@2@A@@YAXXZ 04001020 f   MQ2ChatWnd.obj
 0001:0000002c       ??__E?_Generic_object@?$_Error_objects@H@std@@2V_Generic_error_category@2@A@@YAXXZ 0400102c f   libcpmt:xthrow.obj
 0001:00000038       ??__E?_Iostream_object@?$_Error_objects@H@std@@2V_Iostream_error_category@2@A@@YAXXZ 04001038 f   libcpmt:xthrow.obj
 0001:00000044       ??__E?_System_object@?$_Error_objects@H@std@@2V_System_error_category@2@A@@YAXXZ 04001044 f   libcpmt:xthrow.obj
 0001:00000050       ??__E?_Generic_object@?$_Error_objects@H@std@@2V_Generic_error_category@2@A@@YAXXZ 04001050 f   libcpmt:syserror.obj
 0001:0000005c       ??__E?_Iostream_object@?$_Error_objects@H@std@@2V_Iostream_error_category@2@A@@YAXXZ 0400105c f   libcpmt:syserror.obj
 0001:00000068       ??__E?_System_object@?$_Error_objects@H@std@@2V_System_error_category@2@A@@YAXXZ 04001068 f   libcpmt:syserror.obj
 0001:000028eb       __catch$?_Copy@?$basic_string@DU?$char_traits@D@std@@V?$allocator@D@2@@std@@QAEXII@Z$0 040038eb f i MQ2ChatWnd.obj
 0001:00002928       __catch$?_Copy@?$basic_string@DU?$char_traits@D@std@@V?$allocator@D@2@@std@@QAEXII@Z$1 04003928 f i MQ2ChatWnd.obj
 0001:00002ca0       __catch$?_Reallocate@?$vector@V?$basic_string@DU?$char_traits@D@std@@V?$allocator@D@2@@std@@V?$allocator@V?$basic_string@DU?$char_traits@D@std@@V?$allocator@D@2@@std@@@2@@std@@IAEXI@Z$0 04003ca0 f i MQ2ChatWnd.obj
 0001:00003e52       $LN22                      04004e52     libcpmt:xthrow.obj
 0001:00004281       __onexit_nolock            04005281 f   LIBCMT:onexit.obj
 0001:00004350       $$000000                   04005350     LIBCMT:memmove.obj
 0001:000045a0       LeadUpVec                  040055a0     LIBCMT:memmove.obj
 0001:0000461c       UnwindUpVec                0400561c     LIBCMT:memmove.obj
 0001:00004688       TrailUpVec                 04005688     LIBCMT:memmove.obj
 0001:0000472c       LeadDownVec                0400572c     LIBCMT:memmove.obj
 0001:000047b8       UnwindDownVec              040057b8     LIBCMT:memmove.obj
 0001:00004824       TrailDownVec               04005824     LIBCMT:memmove.obj
 0001:00004a0e       _vscan_fn                  04005a0e f   LIBCMT:sscanf.obj
 0001:00004d2f       __hypothlp                 04005d2f f   LIBCMT:hypot.obj
 0001:00004fde       ?CatchGuardHandler@@YA?AW4_EXCEPTION_DISPOSITION@@PAUEHExceptionRecord@@PAUCatchGuardRN@@PAX2@Z 04005fde f   LIBCMT:_trnsctrl_.obj
 0001:0000500f       ?TranslatorGuardHandler@@YA?AW4_EXCEPTION_DISPOSITION@@PAUEHExceptionRecord@@PAUTranslatorGuardRN@@PAX2@Z 0400600f f   LIBCMT:_trnsctrl_.obj
 0001:00005470       $$000000                   04006470     LIBCMT:memcpy.obj
 0001:000056c0       LeadUpVec                  040066c0     LIBCMT:memcpy.obj
 0001:0000573c       UnwindUpVec                0400673c     LIBCMT:memcpy.obj
 0001:000057a8       TrailUpVec                 040067a8     LIBCMT:memcpy.obj
 0001:0000584c       LeadDownVec                0400684c     LIBCMT:memcpy.obj
 0001:000058d8       UnwindDownVec              040068d8     LIBCMT:memcpy.obj
 0001:00005944       TrailDownVec               04006944     LIBCMT:memcpy.obj
 0001:00005ac0       $$000000                   04006ac0     LIBCMT:memset.obj
 0001:00005e39       ___DllMainCRTStartup       04006e39 f   LIBCMT:dllcrt0.obj
 0001:00005f70       $$000000                   04006f70     LIBCMT:strlen.obj
 0001:00006ba7       __initterm                 04007ba7 f   LIBCMT:crt0dat.obj
 0001:00006c11       _doexit                    04007c11 f   LIBCMT:crt0dat.obj
 0001:00006ef0       $$000000                   04007ef0     LIBCMT:sehprolg4.obj
 0001:00006f50       _ValidateLocalCookies      04007f50 f   LIBCMT:chandler4.obj
 0001:00007548       ___check_float_string      04008548 f   LIBCMT:input.obj
 0001:000075a7       __hextodec                 040085a7 f   LIBCMT:input.obj
 0001:000075c8       __inc                      040085c8 f   LIBCMT:input.obj
 0001:00008739       __un_inc                   04009739 f   LIBCMT:input.obj
 0001:0000874a       __whiteout                 0400974a f   LIBCMT:input.obj
 0001:00008778       ___check_float_string      04009778 f   LIBCMT:inputs.obj
 0001:000087d7       __hextodec                 040097d7 f   LIBCMT:inputs.obj
 0001:000087f8       __inc                      040097f8 f   LIBCMT:inputs.obj
 0001:00009ac9       __un_inc                   0400aac9 f   LIBCMT:inputs.obj
 0001:00009ada       __whiteout                 0400aada f   LIBCMT:inputs.obj
 0001:0000ad3b       $LN277                     0400bd3b     LIBCMT:output.obj
 0001:0000ad8f       _write_char                0400bd8f f   LIBCMT:output.obj
 0001:0000add7       _write_multi_char          0400bdd7 f   LIBCMT:output.obj
 0001:0000ae03       _write_string              0400be03 f   LIBCMT:output.obj
 0001:0000ae7b       ?strtoxq@@YA_KPAUlocaleinfo_struct@@PBDPAPBDHH@Z 0400be7b f   LIBCMT:strtoq.obj
 0001:0000b20e       ?strtoxl@@YAKPAUlocaleinfo_struct@@PBDPAPBDHH@Z 0400c20e f   LIBCMT:strtol.obj
 0001:0000b4c0       $$000000                   0400c4c0     LIBCMT:sqrt.obj
 0001:0000b91d       __get_fname                0400c91d f   LIBCMT:fpexcept.obj
 0001:0000c4f0       $$000000                   0400d4f0     LIBCMT:lowhelpr.obj
 0001:0000c6be       ?CallCatchBlock@@YAPAXPAUEHExceptionRecord@@PAUEHRegistrationNode@@PAU_CONTEXT@@PBU_s_FuncInfo@@PAXHK@Z 0400d6be f   LIBCMT:frame.obj
 0001:0000c884       ?CallUnexpected@@YAXPBU_s_ESTypeList@@@Z 0400d884 f   LIBCMT:frame.obj
 0001:0000c8ac       __catch$?CallUnexpected@@YAXPBU_s_ESTypeList@@@Z$0 0400d8ac f   LIBCMT:frame.obj
 0001:0000c8c4       ?CatchIt@@YAXPAUEHExceptionRecord@@PAUEHRegistrationNode@@PAU_CONTEXT@@PAXPBU_s_FuncInfo@@PBU_s_HandlerType@@PBU_s_CatchableType@@PBU_s_TryBlockMapEntry@@H1E@Z 0400d8c4 f   LIBCMT:frame.obj
 0001:0000c93f       ?ExFilterRethrow@@YAHPAU_EXCEPTION_POINTERS@@@Z 0400d93f f   LIBCMT:frame.obj
 0001:0000c98c       ?FindHandler@@YAXPAUEHExceptionRecord@@PAUEHRegistrationNode@@PAU_CONTEXT@@PAXPBU_s_FuncInfo@@EH1@Z 0400d98c f   LIBCMT:frame.obj
 0001:0000cd29       ?FindHandlerForForeignException@@YAXPAUEHExceptionRecord@@PAUEHRegistrationNode@@PAU_CONTEXT@@PAXPBU_s_FuncInfo@@HH1@Z 0400dd29 f   LIBCMT:frame.obj
 0001:0000ce45       ?IsInExceptionSpec@@YAEPAUEHExceptionRecord@@PBU_s_ESTypeList@@@Z 0400de45 f   LIBCMT:frame.obj
 0001:0000cecd       ?Is_bad_exception_allowed@@YAEPBU_s_ESTypeList@@@Z 0400decd f   LIBCMT:frame.obj
 0001:0000d950       $$000000                   0400e950     LIBCMT:strcmp.obj
 0001:0000e182       __cftoe2_l                 0400f182 f   LIBCMT:cvt.obj
 0001:0000e3bc       __cftof2_l                 0400f3bc f   LIBCMT:cvt.obj
 0001:0000e810       __shift                    0400f810 f   LIBCMT:cvt.obj
 0001:0000e9f7       _xcptlookup                0400f9f7 f   LIBCMT:winxfltr.obj
 0001:0000ee14       _parse_cmdline             0400fe14 f   LIBCMT:stdargv.obj
 0001:0000f19a       ___IsPackagedAppHelper     0401019a f   LIBCMT:winapisupp.obj
 0001:0000fbf4       _ctrlevent_capture@4       04010bf4 f   LIBCMT:winsig.obj
 0001:0000fe54       _siglookup                 04010e54 f   LIBCMT:winsig.obj
 0001:00010189       ?__crtGetLocaleInfoA_stat@@YAHPAUlocaleinfo_struct@@PB_WKPADH@Z 04011189 f   LIBCMT:a_loc.obj
 0001:0001045f       ___crtEnumLocalesProc@4    0401145f f   LIBCMT:winapinls.obj
 0001:00010ca2       ?CPtoLocaleName@@YAPB_WH@Z 04011ca2 f   LIBCMT:mbctype.obj
 0001:00010cdc       ?getSystemCP@@YAHH@Z       04011cdc f   LIBCMT:mbctype.obj
 0001:00010d4a       ?setSBCS@@YAXPAUthreadmbcinfostruct@@@Z 04011d4a f   LIBCMT:mbctype.obj
 0001:00010da9       ?setSBUpLow@@YAXPAUthreadmbcinfostruct@@@Z 04011da9 f   LIBCMT:mbctype.obj
 0001:00011610       $$000000                   04012610     LIBCMT:exsup4.obj
 0001:000116a0       __unwind_handler4          040126a0 f   LIBCMT:exsup4.obj
 0001:000127d0       $$000000                   040137d0     LIBCMT:llmul.obj
 0001:000147ef       $LN736                     040157ef     LIBCMT:outputp.obj
 0001:00014958       _write_char                04015958 f   LIBCMT:outputp.obj
 0001:000149a0       _write_multi_char          040159a0 f   LIBCMT:outputp.obj
 0001:000149cc       _write_string              040159cc f   LIBCMT:outputp.obj
 0001:000155c0       $LN296                     040165c0     LIBCMT:outputs.obj
 0001:000155e0       _write_char                040165e0 f   LIBCMT:outputs.obj
 0001:00015628       _write_multi_char          04016628 f   LIBCMT:outputs.obj
 0001:00015654       _write_string              04016654 f   LIBCMT:outputs.obj
 0001:000159f0       $$000000                   040169f0     LIBCMT:ulldvrm.obj
 0001:00016175       __copytlocinfo_nolock      04017175 f   LIBCMT:wsetloca.obj
 0001:000168f3       __wsetlocale_get_all       040178f3 f   LIBCMT:wsetloca.obj
 0001:00016a60       __wsetlocale_nolock        04017a60 f   LIBCMT:wsetloca.obj
 0001:00016ce9       __wsetlocale_set_cat       04017ce9 f   LIBCMT:wsetloca.obj
 0001:00017093       _sync_legacy_variables_lk  04018093 f   LIBCMT:wsetloca.obj
 0001:000170c0       $$000000                   040180c0     LIBCMT:87disp.obj
 0001:00017290       $$000000                   04018290     LIBCMT:genexcep.obj
 0001:000172f0       $$000000                   040182f0     LIBCMT:common.obj
 0001:00017480       $$000000                   04018480     LIBCMT:exsup.obj
 0001:000174a0       __unwind_handler           040184a0 f   LIBCMT:exsup.obj
 0001:00019757       $LN113                     0401a757     LIBCMT:undname.obj
 0001:0001976f       $LN105                     0401a76f     LIBCMT:undname.obj
 0001:0001a4cf       $LN27                      0401b4cf     LIBCMT:undname.obj
 0001:0001cb51       $LN129                     0401db51     LIBCMT:undname.obj
 0001:0001d14e       ?und_memcpy@@YAXPADPBDI@Z  0401e14e f   LIBCMT:undname.obj
 0001:0001d16d       ?und_strlen@@YAIPBD@Z      0401e16d f   LIBCMT:undname.obj
 0001:0001d182       ?und_strncmp@@YAIPBD0I@Z   0401e182 f   LIBCMT:undname.obj
 0001:0001d470       $$000000                   0401e470     LIBCMT:strrchr.obj
 0001:0001d7b0       $$000000                   0401e7b0     LIBCMT:lldvrm.obj
 0001:0001d890       $$000000                   0401e890     LIBCMT:ullshr.obj
 0001:0001d94d       ?x_ismbbtype_l@@YAHPAUlocaleinfo_struct@@IHH@Z 0401e94d f   LIBCMT:ismbbyte.obj
 0001:0001dc30       $$000000                   0401ec30     LIBCMT:alloca16.obj
 0001:0001e06b       ?__crtLCMapStringA_stat@@YAHPAUlocaleinfo_struct@@PB_WKPBDHPADHHH@Z 0401f06b f   LIBCMT:a_map.obj
 0001:0001e26f       ?strncnt@@YAHPBDH@Z        0401f26f f   LIBCMT:a_map.obj
 0001:0001e2d5       ?__crtGetStringTypeA_stat@@YAHPAUlocaleinfo_struct@@KPBDHPAGHH@Z 0401f2d5 f   LIBCMT:a_str.obj
 0001:0001e519       _flsall                    0401f519 f   LIBCMT:fflush.obj
 0001:0001f33f       _fix_grouping              0402033f f   LIBCMT:initmon.obj
 0001:0001f5e4       _fix_grouping              040205e4 f   LIBCMT:initnum.obj
 0001:0001fa18       __get_lc_time              04020a18 f   LIBCMT:inittime.obj
 0001:000208e0       $$000000                   040218e0     LIBCMT:chkstk.obj
 0001:00023147       $LN333                     04024147     LIBCMT:strgtold.obj
 0001:0002317a       _cmpBYTE                   0402417a f   LIBCMT:memcmp.obj
 0001:0002319f       _cmpDWORD                  0402419f f   LIBCMT:memcmp.obj
 0001:0002322a       _cmpResult                 0402422a f   LIBCMT:memcmp.obj
 0001:00023246       _cmpWORD                   04024246 f   LIBCMT:memcmp.obj
 0001:0002498f       $LN1281                    0402598f     LIBCMT:memcmp.obj
 0001:00024a0f       _unaligned_memcmp          04025a0f f   LIBCMT:memcmp.obj
 0001:0002612b       $LN1269                    0402712b     LIBCMT:memcmp.obj
 0001:000262ac       _GetLocaleNameFromDefault  040272ac f   LIBCMT:getqloc.obj
 0001:00026325       _GetLocaleNameFromLangCountry 04027325 f   LIBCMT:getqloc.obj
 0001:00026399       _GetLocaleNameFromLanguage 04027399 f   LIBCMT:getqloc.obj
 0001:000263e3       _GetPrimaryLen             040273e3 f   LIBCMT:getqloc.obj
 0001:00026415       _LangCountryEnumProcEx@12  04027415 f   LIBCMT:getqloc.obj
 0001:00026635       _LanguageEnumProcEx@12     04027635 f   LIBCMT:getqloc.obj
 0001:000266e8       _ProcessCodePage           040276e8 f   LIBCMT:getqloc.obj
 0001:0002677d       _TestDefaultCountry        0402777d f   LIBCMT:getqloc.obj
 0001:000267c9       _TestDefaultLanguage       040277c9 f   LIBCMT:getqloc.obj
 0001:00026804       _TranslateName             04027804 f   LIBCMT:getqloc.obj
 0001:00026a32       _CountryEnumProc@4         04027a32 f   LIBCMT:getqloc_downlevel.obj
 0001:00026ae2       _GetLcidFromCountry        04027ae2 f   LIBCMT:getqloc_downlevel.obj
 0001:00026b22       _GetLcidFromDefault        04027b22 f   LIBCMT:getqloc_downlevel.obj
 0001:00026b3e       _GetLcidFromLangCountry    04027b3e f   LIBCMT:getqloc_downlevel.obj
 0001:00026bbb       _GetLcidFromLanguage       04027bbb f   LIBCMT:getqloc_downlevel.obj
 0001:00026c14       _GetPrimaryLen             04027c14 f   LIBCMT:getqloc_downlevel.obj
 0001:00026c3e       _LangCountryEnumProc@4     04027c3e f   LIBCMT:getqloc_downlevel.obj
 0001:00026e33       _LanguageEnumProc@4        04027e33 f   LIBCMT:getqloc_downlevel.obj
 0001:00026f0e       _LcidFromHexString         04027f0e f   LIBCMT:getqloc_downlevel.obj
 0001:00026f5d       _ProcessCodePage           04027f5d f   LIBCMT:getqloc_downlevel.obj
 0001:00026fe8       _TestDefaultCountry        04027fe8 f   LIBCMT:getqloc_downlevel.obj
 0001:0002700a       _TestDefaultLanguage       0402800a f   LIBCMT:getqloc_downlevel.obj
 0001:00027074       _TranslateName             04028074 f   LIBCMT:getqloc_downlevel.obj
 0001:00027e49       ___abstract_cw_sse2        04028e49 f   LIBCMT:ieee87.obj
 0001:00027ef2       ___abstract_sw_sse2        04028ef2 f   LIBCMT:ieee87.obj
 0001:00027f33       ___clearfp_sse2            04028f33 f   LIBCMT:ieee87.obj
 0001:0002829d       ___control87_sse2          0402929d f   LIBCMT:ieee87.obj
 0001:00028420       ___fpreset_sse2            04029420 f   LIBCMT:ieee87.obj
 0001:0002842c       ___hw_cw_sse2              0402942c f   LIBCMT:ieee87.obj
 0001:000284d5       ___statusfp_sse2           040294d5 f   LIBCMT:ieee87.obj
 0001:00028516       __abstract_cw              04029516 f   LIBCMT:ieee87.obj
 0001:000285b5       __abstract_sw              040295b5 f   LIBCMT:ieee87.obj
 0001:00028d1a       __hw_cw                    04029d1a f   LIBCMT:ieee87.obj
 0001:000292ff       @x64tow_s@24               0402a2ff f   LIBCMT:xtows.obj
 0001:000294d2       _xtow_s@20                 0402a4d2 f   LIBCMT:xtows.obj
 0001:00029bc8       ?wcstoxl@@YAKPB_WPAPB_WHH@Z 0402abc8 f   LIBCMT:wcstol.obj
 0001:00029e09       ?wcstoxq@@YA_KPAUlocaleinfo_struct@@PB_WPAPB_WHH@Z 0402ae09 f   LIBCMT:wcstoq.obj
 0001:0002af49       $LN323                     0402bf49     LIBCMT:wstrgtold.obj
 0001:0002b26a       @x64toa@20                 0402c26a f   LIBCMT:xtoa.obj
 0001:0002b390       _xtoa@16                   0402c390 f   LIBCMT:xtoa.obj
 0001:0002b3e0       $$000000                   0402c3e0     LIBCMT:_strnicm.obj
 0001:0002b450       __unwindfunclet$?CreateChatWindow@@YAXXZ$0 0402c450 f   MQ2ChatWnd.obj
 0001:0002b459       __unwindfunclet$?CreateChatWindow@@YAXXZ$1 0402c459 f   MQ2ChatWnd.obj
 0001:0002b464       __ehhandler$?CreateChatWindow@@YAXXZ 0402c464 f   MQ2ChatWnd.obj
 0001:0002b46e       __unwindfunclet$?DoMQ2ChatBind@@YAXPADH@Z$0 0402c46e f   MQ2ChatWnd.obj
 0001:0002b477       __ehhandler$?DoMQ2ChatBind@@YAXPADH@Z 0402c477 f   MQ2ChatWnd.obj
 0001:0002b490       __unwindfunclet$??0CCustomWnd@MQ2Internal@@QAE@PAVCXStr@EQClasses@@@Z$0 0402c490 f   MQ2ChatWnd.obj
 0001:0002b499       __ehhandler$??0CCustomWnd@MQ2Internal@@QAE@PAVCXStr@EQClasses@@@Z 0402c499 f   MQ2ChatWnd.obj
 0001:0002b4b0       __unwindfunclet$??0CMQChatWnd@@QAE@PAVCXStr@EQClasses@@@Z$2 0402c4b0 f   MQ2ChatWnd.obj
 0001:0002b4b9       __unwindfunclet$??0CMQChatWnd@@QAE@PAVCXStr@EQClasses@@@Z$0 0402c4b9 f   MQ2ChatWnd.obj
 0001:0002b4c1       __unwindfunclet$??0CMQChatWnd@@QAE@PAVCXStr@EQClasses@@@Z$1 0402c4c1 f   MQ2ChatWnd.obj
 0001:0002b4cf       __ehhandler$??0CMQChatWnd@@QAE@PAVCXStr@EQClasses@@@Z 0402c4cf f   MQ2ChatWnd.obj
 0001:0002b4e0       __unwindfunclet$?SetChatFont@CMQChatWnd@@QAEXH@Z$0 0402c4e0 f   MQ2ChatWnd.obj
 0001:0002b4e9       __ehhandler$?SetChatFont@CMQChatWnd@@QAEXH@Z 0402c4e9 f   MQ2ChatWnd.obj
 0001:0002b500       __unwindfunclet$?WndNotification@CMQChatWnd@@QAEHPAVCXWnd@EQClasses@@IPAX@Z$0 0402c500 f   MQ2ChatWnd.obj
 0001:0002b508       __unwindfunclet$?WndNotification@CMQChatWnd@@QAEHPAVCXWnd@EQClasses@@IPAX@Z$1 0402c508 f   MQ2ChatWnd.obj
 0001:0002b510       __unwindfunclet$?WndNotification@CMQChatWnd@@QAEHPAVCXWnd@EQClasses@@IPAX@Z$2 0402c510 f   MQ2ChatWnd.obj
 0001:0002b519       __unwindfunclet$?WndNotification@CMQChatWnd@@QAEHPAVCXWnd@EQClasses@@IPAX@Z$3 0402c519 f   MQ2ChatWnd.obj
 0001:0002b521       __unwindfunclet$?WndNotification@CMQChatWnd@@QAEHPAVCXWnd@EQClasses@@IPAX@Z$4 0402c521 f   MQ2ChatWnd.obj
 0001:0002b52a       __ehhandler$?WndNotification@CMQChatWnd@@QAEHPAVCXWnd@EQClasses@@IPAX@Z 0402c52a f   MQ2ChatWnd.obj
 0001:0002b540       __ehhandler$?_Copy@?$basic_string@DU?$char_traits@D@std@@V?$allocator@D@2@@std@@QAEXII@Z 0402c540 f   MQ2ChatWnd.obj
 0001:0002b550       __ehhandler$?_Reallocate@?$vector@V?$basic_string@DU?$char_traits@D@std@@V?$allocator@D@2@@std@@V?$allocator@V?$basic_string@DU?$char_traits@D@std@@V?$allocator@D@2@@std@@@2@@std@@IAEXI@Z 0402c550 f   MQ2ChatWnd.obj
 0001:0002b55a       __ehhandler$?CallUnexpected@@YAXPBU_s_ESTypeList@@@Z 0402c55a f   LIBCMT:frame.obj
 0001:0002b580       ??__F?_Generic_object@?$_Error_objects@H@std@@2V_Generic_error_category@2@A@@YAXXZ 0402c580 f   MQ2ChatWnd.obj
 0001:0002b590       ??__F?_Iostream_object@?$_Error_objects@H@std@@2V_Iostream_error_category@2@A@@YAXXZ 0402c590 f   MQ2ChatWnd.obj
 0001:0002b5a0       ??__F?_System_object@?$_Error_objects@H@std@@2V_System_error_category@2@A@@YAXXZ 0402c5a0 f   MQ2ChatWnd.obj
 0001:0002b5ab       ??__F?_Generic_object@?$_Error_objects@H@std@@2V_Generic_error_category@2@A@@YAXXZ 0402c5ab f   libcpmt:xthrow.obj
 0001:0002b5b6       ??__F?_Iostream_object@?$_Error_objects@H@std@@2V_Iostream_error_category@2@A@@YAXXZ 0402c5b6 f   libcpmt:xthrow.obj
 0001:0002b5c1       ??__F?_System_object@?$_Error_objects@H@std@@2V_System_error_category@2@A@@YAXXZ 0402c5c1 f   libcpmt:xthrow.obj
 0001:0002b5cc       ??__F?_Generic_object@?$_Error_objects@H@std@@2V_Generic_error_category@2@A@@YAXXZ 0402c5cc f   libcpmt:syserror.obj
 0001:0002b5d7       ??__F?_Iostream_object@?$_Error_objects@H@std@@2V_Iostream_error_category@2@A@@YAXXZ 0402c5d7 f   libcpmt:syserror.obj
 0001:0002b5e2       ??__F?_System_object@?$_Error_objects@H@std@@2V_System_error_category@2@A@@YAXXZ 0402c5e2 f   libcpmt:syserror.obj
 0002:0000022c       ?_Generic_object$initializer$@?$_Error_objects@H@std@@2P6AXXZA 0402d22c     MQ2ChatWnd.obj
 0002:00000230       ?_Iostream_object$initializer$@?$_Error_objects@H@std@@2P6AXXZA 0402d230     MQ2ChatWnd.obj
 0002:00000234       ?_System_object$initializer$@?$_Error_objects@H@std@@2P6AXXZA 0402d234     MQ2ChatWnd.obj
 0002:00000240       _pinit                     0402d240     LIBCMT:onexit.obj
 0002:00000244       _pinit                     0402d244     LIBCMT:cpu_disp.obj
 0002:00000248       _pinit                     0402d248     LIBCMT:mbctype.obj
 0002:0000024c       _pinit                     0402d24c     LIBCMT:_file.obj
 0002:00000258       _pterm                     0402d258     LIBCMT:wsetloca.obj
 0002:0000025c       _pterm                     0402d25c     LIBCMT:initcon.obj
 0002:00000260       _pterm                     0402d260     LIBCMT:_file.obj
 0002:000011d8       __Win_errtab               0402e1d8     libcpmt:syserror.obj
 0002:00001430       __Sys_errtab               0402e430     libcpmt:syserror.obj
 0002:00001f38       ?ExceptionTemplate@?1??_CxxThrowException@@9@8@4UEHExceptionRecord@@B 0402ef38     LIBCMT:throw.obj
 0002:000024d0       _GS_ExceptionPointers      0402f4d0     LIBCMT:gs_report.obj
 0002:00004590       _rterrs                    04031590     LIBCMT:crt0msg.obj
 0002:00005024       __mb_locale_names          04032024     LIBCMT:mbctype.obj
 0002:000054b0       __first_127char            040324b0     LIBCMT:wsetloca.obj
 0002:00005574       One                        04032574     LIBCMT:87disp.obj
 0002:0000557c       XAMtoTagTab                0403257c     LIBCMT:87disp.obj
 0002:00005590       One                        04032590     LIBCMT:common.obj
 0002:000055a4       DblMax                     040325a4     LIBCMT:common.obj
 0002:000055ac       DblMin                     040325ac     LIBCMT:common.obj
 0002:000055b4       IeeeAdjO                   040325b4     LIBCMT:common.obj
 0002:000055bc       IeeeAdjU                   040325bc     LIBCMT:common.obj
 0002:000055c4       _infinity                  040325c4     LIBCMT:common.obj
 0002:000055cc       _zero                      040325cc     LIBCMT:common.obj
 0002:000055d8       _tokenTable                040325d8     LIBCMT:undname.obj
 0002:00005610       _nameTable                 04032610     LIBCMT:undname.obj
 0002:00005750       _rttiTable                 04032750     LIBCMT:undname.obj
 0002:00007fd8       __catchsym$?_Copy@?$basic_string@DU?$char_traits@D@std@@V?$allocator@D@2@@std@@QAEXII@Z$5 04034fd8     MQ2ChatWnd.obj
 0002:00007fe8       __catchsym$?_Copy@?$basic_string@DU?$char_traits@D@std@@V?$allocator@D@2@@std@@QAEXII@Z$4 04034fe8     MQ2ChatWnd.obj
 0002:00007ff8       __unwindtable$?_Copy@?$basic_string@DU?$char_traits@D@std@@V?$allocator@D@2@@std@@QAEXII@Z 04034ff8     MQ2ChatWnd.obj
 0002:00008018       __ehfuncinfo$?_Copy@?$basic_string@DU?$char_traits@D@std@@V?$allocator@D@2@@std@@QAEXII@Z 04035018     MQ2ChatWnd.obj
 0002:0000803c       __tryblocktable$?_Copy@?$basic_string@DU?$char_traits@D@std@@V?$allocator@D@2@@std@@QAEXII@Z 0403503c     MQ2ChatWnd.obj
 0002:00008064       __unwindtable$??0CCustomWnd@MQ2Internal@@QAE@PAVCXStr@EQClasses@@@Z 04035064     MQ2ChatWnd.obj
 0002:0000806c       __ehfuncinfo$??0CCustomWnd@MQ2Internal@@QAE@PAVCXStr@EQClasses@@@Z 0403506c     MQ2ChatWnd.obj
 0002:00008090       __catchsym$?_Reallocate@?$vector@V?$basic_string@DU?$char_traits@D@std@@V?$allocator@D@2@@std@@V?$allocator@V?$basic_string@DU?$char_traits@D@std@@V?$allocator@D@2@@std@@@2@@std@@IAEXI@Z$2 04035090     MQ2ChatWnd.obj
 0002:000080a0       __unwindtable$?_Reallocate@?$vector@V?$basic_string@DU?$char_traits@D@std@@V?$allocator@D@2@@std@@V?$allocator@V?$basic_string@DU?$char_traits@D@std@@V?$allocator@D@2@@std@@@2@@std@@IAEXI@Z 040350a0     MQ2ChatWnd.obj
 0002:000080b0       __tryblocktable$?_Reallocate@?$vector@V?$basic_string@DU?$char_traits@D@std@@V?$allocator@D@2@@std@@V?$allocator@V?$basic_string@DU?$char_traits@D@std@@V?$allocator@D@2@@std@@@2@@std@@IAEXI@Z 040350b0     MQ2ChatWnd.obj
 0002:000080c4       __ehfuncinfo$?_Reallocate@?$vector@V?$basic_string@DU?$char_traits@D@std@@V?$allocator@D@2@@std@@V?$allocator@V?$basic_string@DU?$char_traits@D@std@@V?$allocator@D@2@@std@@@2@@std@@IAEXI@Z 040350c4     MQ2ChatWnd.obj
 0002:000080e8       __unwindtable$??0CMQChatWnd@@QAE@PAVCXStr@EQClasses@@@Z 040350e8     MQ2ChatWnd.obj
 0002:00008100       __ehfuncinfo$??0CMQChatWnd@@QAE@PAVCXStr@EQClasses@@@Z 04035100     MQ2ChatWnd.obj
 0002:00008124       __ehfuncinfo$?WndNotification@CMQChatWnd@@QAEHPAVCXWnd@EQClasses@@IPAX@Z 04035124     MQ2ChatWnd.obj
 0002:00008148       __unwindtable$?WndNotification@CMQChatWnd@@QAEHPAVCXWnd@EQClasses@@IPAX@Z 04035148     MQ2ChatWnd.obj
 0002:00008170       __unwindtable$?SetChatFont@CMQChatWnd@@QAEXH@Z 04035170     MQ2ChatWnd.obj
 0002:00008178       __ehfuncinfo$?SetChatFont@CMQChatWnd@@QAEXH@Z 04035178     MQ2ChatWnd.obj
 0002:0000819c       __unwindtable$?DoMQ2ChatBind@@YAXPADH@Z 0403519c     MQ2ChatWnd.obj
 0002:000081a4       __unwindtable$?CreateChatWindow@@YAXXZ 040351a4     MQ2ChatWnd.obj
 0002:000081b4       __ehfuncinfo$?DoMQ2ChatBind@@YAXPADH@Z 040351b4     MQ2ChatWnd.obj
 0002:000081d8       __ehfuncinfo$?CreateChatWindow@@YAXXZ 040351d8     MQ2ChatWnd.obj
 0002:00008408       __sehtable$__onexit        04035408     LIBCMT:onexit.obj
 0002:00008428       __sehtable$__CRT_INIT@12   04035428     LIBCMT:dllcrt0.obj
 0002:00008448       __sehtable$___DllMainCRTStartup 04035448     LIBCMT:dllcrt0.obj
 0002:00008468       __sehtable$_doexit         04035468     LIBCMT:crt0dat.obj
 0002:00008488       __sehtable$___set_fpsr_sse2 04035488     LIBCMT:fpctrl.obj
 0002:000084a8       __sehtable$__freefls@4     040354a8     LIBCMT:tidtable.obj
 0002:000084d0       __sehtable$__initptd       040354d0     LIBCMT:tidtable.obj
 0002:000084f8       __sehtable$?terminate@@YAXXZ 040354f8     LIBCMT:hooks.obj
 0002:00008518       __sehtable$?_inconsistency@@YAXXZ 04035518     LIBCMT:hooks.obj
 0002:00008538       __sehtable$___FrameUnwindToState 04035538     LIBCMT:frame.obj
 0002:00008560       __sehtable$?CallCatchBlock@@YAPAXPAUEHExceptionRecord@@PAUEHRegistrationNode@@PAU_CONTEXT@@PBU_s_FuncInfo@@PAXHK@Z 04035560     LIBCMT:frame.obj
 0002:00008588       __sehtable$___BuildCatchObject 04035588     LIBCMT:frame.obj
 0002:000085a8       __sehtable$___DestructExceptionObject 040355a8     LIBCMT:frame.obj
 0002:000085c4       __catchsym$?CallUnexpected@@YAXPBU_s_ESTypeList@@@Z$2 040355c4     LIBCMT:frame.obj
 0002:000085d4       __unwindtable$?CallUnexpected@@YAXPBU_s_ESTypeList@@@Z 040355d4     LIBCMT:frame.obj
 0002:000085e4       __tryblocktable$?CallUnexpected@@YAXPBU_s_ESTypeList@@@Z 040355e4     LIBCMT:frame.obj
 0002:000085f8       __ehfuncinfo$?CallUnexpected@@YAXPBU_s_ESTypeList@@@Z 040355f8     LIBCMT:frame.obj
 0002:00008620       __sehtable$___BuildCatchObjectHelper 04035620     LIBCMT:frame.obj
 0002:00008678       __sehtable$?_Name_base@type_info@@CAPBDPBV1@PAU__type_info_node@@@Z 04035678     LIBCMT:typname.obj
 0002:00008698       __sehtable$?_Type_info_dtor@type_info@@CAXPAV1@@Z 04035698     LIBCMT:typname.obj
 0002:000086b8       __sehtable$?_Name_base_internal@type_info@@CAPBDPBV1@PAU__type_info_node@@@Z 040356b8     LIBCMT:typname.obj
 0002:000086d8       __sehtable$?_Type_info_dtor_internal@type_info@@CAXPAV1@@Z 040356d8     LIBCMT:typname.obj
 0002:000086f8       __sehtable$___clean_type_info_names_internal 040356f8     LIBCMT:typname.obj
 0002:00008718       __sehtable$__ioinit        04035718     LIBCMT:ioinit.obj
 0002:00008738       __sehtable$_signal         04035738     LIBCMT:winsig.obj
 0002:00008758       __sehtable$_raise          04035758     LIBCMT:winsig.obj
 0002:00008778       __sehtable$_ctrlevent_capture@4 04035778     LIBCMT:winsig.obj
 0002:00008798       __sehtable$__mtinitlocknum 04035798     LIBCMT:mlock.obj
 0002:000087b8       __sehtable$__IsNonwritableInCurrentImage 040357b8     LIBCMT:pesect.obj
 0002:000087d8       __sehtable$___updatetmbcinfo 040357d8     LIBCMT:mbctype.obj
 0002:000087f8       __sehtable$__setmbcp       040357f8     LIBCMT:mbctype.obj
 0002:00008818       __sehtable$_ungetc         04035818     LIBCMT:ungetc.obj
 0002:00008838       __sehtable$___updatetlocinfo 04035838     LIBCMT:localref.obj
 0002:00008858       __sehtable$__write         04035858     LIBCMT:write.obj
 0002:00008878       __sehtable$__lseeki64      04035878     LIBCMT:lseeki64.obj
 0002:00008898       __sehtable$_printf         04035898     LIBCMT:printf.obj
 0002:000088b8       __sehtable$__get_current_locale 040358b8     LIBCMT:wsetloca.obj
 0002:000088e0       __sehtable$__free_locale   040358e0     LIBCMT:wsetloca.obj
 0002:00008908       __sehtable$__wsetlocale    04035908     LIBCMT:wsetloca.obj
 0002:00008940       __sehtable$__locterm       04035940     LIBCMT:wsetloca.obj
 0002:00008960       __sehtable$___unDName      04035960     LIBCMT:undname.obj
 0002:00008980       __sehtable$___unDNameEx    04035980     LIBCMT:undname.obj
 0002:000089a0       __sehtable$_fflush         040359a0     LIBCMT:fflush.obj
 0002:000089c0       __sehtable$_flsall         040359c0     LIBCMT:fflush.obj
 0002:000089e8       __sehtable$__read          040359e8     LIBCMT:read.obj
 0002:00008a08       __sehtable$__fcloseall     04035a08     LIBCMT:closeall.obj
 0002:00008a28       __sehtable$__alloc_osfhnd  04035a28     LIBCMT:osfinfo.obj
 0002:00008a50       __sehtable$___lock_fhandle 04035a50     LIBCMT:osfinfo.obj
 0002:00008a70       __sehtable$__open_osfhandle 04035a70     LIBCMT:osfinfo.obj
 0002:00008a90       __sehtable$__putwch        04035a90     LIBCMT:putwch.obj
 0002:00008ab0       __sehtable$_vprintf_helper 04035ab0     LIBCMT:vprintf.obj
 0002:00008ad0       __sehtable$__commit        04035ad0     LIBCMT:commit.obj
 0002:00008af0       __sehtable$_fclose         04035af0     LIBCMT:fclose.obj
 0002:00008b10       __sehtable$__close         04035b10     LIBCMT:close.obj
 0002:00008b30       .edata                     04035b30     MQ2ChatWnd.exp
 0002:00008b58       rgpv                       04035b58     MQ2ChatWnd.exp
 0002:00008b74       rgszName                   04035b74     MQ2ChatWnd.exp
 0002:00008b90       rgwOrd                     04035b90     MQ2ChatWnd.exp
 0002:00008b9e       szName                     04035b9e     MQ2ChatWnd.exp
 0002:00008bad       $N00001                    04035bad     MQ2ChatWnd.exp
 0002:00008bbe       $N00002                    04035bbe     MQ2ChatWnd.exp
 0002:00008bc8       $N00003                    04035bc8     MQ2ChatWnd.exp
 0002:00008bd0       $N00004                    04035bd0     MQ2ChatWnd.exp
 0002:00008bdb       $N00005                    04035bdb     MQ2ChatWnd.exp
 0002:00008bec       $N00006                    04035bec     MQ2ChatWnd.exp
 0002:00008bf9       $N00007                    04035bf9     MQ2ChatWnd.exp
 0002:00008ebe       .idata$6                   04035ebe     kernel32:KERNEL32.dll
 0002:000095ae       .idata$6                   040365ae     MQ2Main:MQ2Main.dll
 0003:00000000       _ClassInfo                 04037000     MQ2ChatWnd.obj
 0003:00000148       _errtable                  04037148     LIBCMT:dosmap.obj
 0003:000002b0       _ErrnoNoMem                040372b0     LIBCMT:dosmap.obj
 0003:000002b4       _DoserrorNoMem             040372b4     LIBCMT:dosmap.obj
 0003:000002c0       _NAME_                     040372c0     LIBCMT:sqrt.obj
 0003:000002f0       ?_names@?1??_get_fname@@9@9 040372f0     LIBCMT:fpexcept.obj
 0003:000003d8       _over                      040373d8     LIBCMT:fpctrl.obj
 0003:000003e4       _under                     040373e4     LIBCMT:fpctrl.obj
 0003:000003f0       ?__DAZ_ENABLED@?1??__set_fpsr_sse2@@9@9 040373f0     LIBCMT:fpctrl.obj
 0003:00000478       ?isPackaged@?1??__crtIsPackagedApp@@9@9 04037478     LIBCMT:winapisupp.obj
 0003:00000480       __locktable                04037480     LIBCMT:mlock.obj
 0003:000009c8       ___rgctypeflag             040379c8     LIBCMT:mbctype.obj
 0003:000009d0       ___rgcode_page_info        040379d0     LIBCMT:mbctype.obj
 0003:00000f80       __ctype_loc_style          04037f80     LIBCMT:wsetloca.obj
 0003:00001128       _DoubleFormat              04038128     LIBCMT:intrncvt.obj
 0003:00001140       _FloatFormat               04038140     LIBCMT:intrncvt.obj
 0003:00002064       __Tuple_alloc              04039064     MQ2ChatWnd.obj
 0003:00002065       _ignore                    04039065     MQ2ChatWnd.obj
 0003:00002066       _allocator_arg             04039066     MQ2ChatWnd.obj
 0003:00002067       _piecewise_construct       04039067     MQ2ChatWnd.obj
 0003:00002078       __Tuple_alloc              04039078     libcpmt:xthrow.obj
 0003:00002079       _ignore                    04039079     libcpmt:xthrow.obj
 0003:0000207a       _allocator_arg             0403907a     libcpmt:xthrow.obj
 0003:0000207b       _piecewise_construct       0403907b     libcpmt:xthrow.obj
 0003:0000207c       _allocator_arg             0403907c     libcpmt:syserror.obj
 0003:0000207d       _piecewise_construct       0403907d     libcpmt:syserror.obj
 0003:00002084       ___proc_attached           04039084     LIBCMT:dllcrt0.obj
 0003:000020e4       ___type_info_root_node     040390e4     LIBCMT:typname.obj
 0003:000021f0       ?_pgmname@?1??_setargv@@9@9 040391f0     LIBCMT:stdargv.obj
 0003:000022f8       _GS_ExceptionRecord        040392f8     LIBCMT:gs_report.obj
 0003:00002348       _GS_ContextRecord          04039348     LIBCMT:gs_report.obj
 0003:00002614       _DebuggerWasPresent        04039614     LIBCMT:gs_report.obj
 0003:00002618       _ctrlc_action              04039618     LIBCMT:winsig.obj
 0003:0000261c       _ctrlbreak_action          0403961c     LIBCMT:winsig.obj
 0003:00002620       _abort_action              04039620     LIBCMT:winsig.obj
 0003:00002624       _term_action               04039624     LIBCMT:winsig.obj
 0003:00002628       _ConsoleCtrlHandler_Installed 04039628     LIBCMT:winsig.obj
 0003:0000262c       ___crtCallProc             0403962c     LIBCMT:winapinls.obj
 0003:00002638       ?outmsg@?9??_NMSG_WRITE@@9@9 04039638     LIBCMT:crt0msg.obj
 0003:00002c68       _lclcritsects              04039c68     LIBCMT:mlock.obj
 0003:00002db8       _g_pfnRtlGenRandom         04039db8     LIBCMT:rand_s.obj
 0003:00002dd4       _fSystemSet                04039dd4     LIBCMT:mbctype.obj
 0003:00002de4       ___enable_percent_n        04039de4     LIBCMT:printf.obj
 0003:00002e14       _heap                      04039e14     LIBCMT:undname.obj
 0003:00002e64       ?pfnMessageBox@?1??__crtMessageBoxW@@9@9 04039e64     LIBCMT:crtmboxw.obj
 0003:00002e68       ?pfnGetActiveWindow@?1??__crtMessageBoxW@@9@9 04039e68     LIBCMT:crtmboxw.obj
 0003:00002e6c       ?pfnGetLastActivePopup@?1??__crtMessageBoxW@@9@9 04039e6c     LIBCMT:crtmboxw.obj
 0003:00002e70       ?pfnGetProcessWindowStation@?1??__crtMessageBoxW@@9@9 04039e70     LIBCMT:crtmboxw.obj
 0003:00002e74       ?pfnGetUserObjectInformation@?1??__crtMessageBoxW@@9@9 04039e74     LIBCMT:crtmboxw.obj
 0004:00000060       $R000000                   0403b060     * linker generated manifest res *

 Exports

  ordinal    name

        1    _InitializePlugin
               exported name: InitializePlugin
        2    _OnCleanUI
               exported name: OnCleanUI
        3    _OnPulse
               exported name: OnPulse
        4    _OnReloadUI
               exported name: OnReloadUI
        5    _OnWriteChatColor
               exported name: OnWriteChatColor
        6    _SetGameState
               exported name: SetGameState
        7    _ShutdownPlugin
               exported name: ShutdownPlugin
