 MQ2Main

 Timestamp is 556ff552 (Wed Jun 03 23:50:58 2015)

 Preferred load address is 03000000

 Start         Length     Name                   Class
 0001:00000000 00001cc4H .text                   CODE
 0001:00001cd0 00002693H .text$di                CODE
 0001:00004370 00084aadH .text$mn                CODE
 0001:00088e20 00000185H .text$x                 CODE
 0001:00088fb0 000009f4H .text$yd                CODE
 0002:00000000 000001c4H .idata$5                DATA
 0002:000001c4 00000004H .CRT$XCA                DATA
 0002:000001c8 00000838H .CRT$XCU                DATA
 0002:00000a00 00000004H .CRT$XCZ                DATA
 0002:00000a04 00000004H .CRT$XIA                DATA
 0002:00000a08 00000018H .CRT$XIC                DATA
 0002:00000a20 00000004H .CRT$XIZ                DATA
 0002:00000a24 00000004H .CRT$XPA                DATA
 0002:00000a28 00000008H .CRT$XPX                DATA
 0002:00000a30 00000004H .CRT$XPXA               DATA
 0002:00000a34 00000004H .CRT$XPZ                DATA
 0002:00000a38 00000004H .CRT$XTA                DATA
 0002:00000a3c 00000004H .CRT$XTZ                DATA
 0002:00000a40 00028c80H .rdata                  DATA
 0002:000296c0 00000068H .rdata$debug            DATA
 0002:00029728 000015b8H .rdata$r                DATA
 0002:0002ace0 00000078H .rdata$sxdata           DATA
 0002:0002ad58 00000004H .rtc$IAA                DATA
 0002:0002ad5c 00000004H .rtc$IZZ                DATA
 0002:0002ad60 00000004H .rtc$TAA                DATA
 0002:0002ad64 00000004H .rtc$TZZ                DATA
 0002:0002ad68 000013ecH .xdata$x                DATA
 0002:0002c160 0000c6a6H .edata                  DATA
 0002:00038808 00000050H .idata$2                DATA
 0002:00038858 00000014H .idata$3                DATA
 0002:0003886c 000001c4H .idata$4                DATA
 0002:00038a30 00000834H .idata$6                DATA
 0003:00000000 0000b690H .data                   DATA
 0003:0000b690 000008bfH .data$r                 DATA
 0003:0000bf60 000169a8H .bss                    DATA
 0004:00000000 00000058H .rsrc$01                DATA
 0004:00000060 00000180H .rsrc$02                DATA

  Address         Publics by Value              Rva+Base       Lib:Object

 0000:00000000       __except_list              00000000     <absolute>
 0000:00000000       ___guard_fids_table        00000000     <absolute>
 0000:00000000       ___guard_flags             00000000     <absolute>
 0000:00000000       ___guard_fids_count        00000000     <absolute>
 0000:0000001e       ___safe_se_handler_count   0000001e     <absolute>
 0000:00000000       ___ImageBase               03000000     <linker-defined>
 0001:00000000       _DetourRemove@8            03001000 f   detours:detours.obj
 0001:00000160       ??0CDetourEnableWriteOnCodePage@@QAE@PAEJ@Z 03001160 f i detours:detours.obj
 0001:000001e0       ??1CDetourEnableWriteOnCodePage@@QAE@XZ 030011e0 f i detours:detours.obj
 0001:00000250       _DetourFunction@8          03001250 f   detours:detours.obj
 0001:00000540       ?SetPermission@CDetourEnableWriteOnCodePage@@QAEHK@Z 03001540 f i detours:detours.obj
 0001:00000580       ?IsValid@CDetourEnableWriteOnCodePage@@QAEHXZ 03001580 f i detours:detours.obj
 0001:00000620       ?DetourGenJmp@@YAPAEPAE00@Z 03001620 f i detours:detours.obj
 0001:00000660       ?DetourGenBreak@@YAPAEPAE@Z 03001660 f i detours:detours.obj
 0001:00000680       _DetourFunctionWithEmptyTrampoline@12 03001680 f   detours:detours.obj
 0001:000006a0       _DetourFunctionWithEmptyTrampolineEx@24 030016a0 f   detours:detours.obj
 0001:00000750       _DetourFunctionWithTrampoline@8 03001750 f   detours:detours.obj
 0001:00000770       _DetourFunctionWithTrampolineEx@16 03001770 f   detours:detours.obj
 0001:00000860       ?DetourLoadImageHlp@@YAPAU_DETOUR_SYM_INFO@@XZ 03001860 f   detours:detours.obj
 0001:00000a20       _DetourGetFinalCode@8      03001a20 f   detours:detours.obj
 0001:00000a90       _DetourFindFunction@8      03001a90 f   detours:detours.obj
 0001:00000c30       _DetourEnumerateModules@4  03001c30 f   detours:detours.obj
 0001:00000d40       _DetourGetEntryPoint@4     03001d40 f   detours:detours.obj
 0001:00000e70       _DetourEnumerateExports@12 03001e70 f   detours:detours.obj
 0001:000010d0       _DetourGetSizeOfPayloads@4 030020d0 f   detours:detours.obj
 0001:00001380       _DetourFindPayload@12      03002380 f   detours:detours.obj
 0001:000014e0       _==                        030024e0 f i detours:detours.obj
 0001:00001500       _IsEqualGUID               03002500 f i detours:detours.obj
 0001:00001520       _DetourCopyInstructionEx@16 03002520 f   detours:disasm.obj
 0001:00001550       _DetourCopyInstruction@12  03002550 f   detours:disasm.obj
 0001:00001580       ??0CDetourDis@@QAE@PAPAEPAJ@Z 03002580 f   detours:disasm.obj
 0001:00001600       ?Set16BitOperand@CDetourDis@@IAEXXZ 03002600 f   detours:disasm.obj
 0001:00001620       ?Set32BitOperand@CDetourDis@@IAEXXZ 03002620 f   detours:disasm.obj
 0001:00001640       ?Set16BitAddress@CDetourDis@@IAEXXZ 03002640 f   detours:disasm.obj
 0001:00001660       ?Set32BitAddress@CDetourDis@@IAEXXZ 03002660 f   detours:disasm.obj
 0001:00001680       ?CopyInstruction@CDetourDis@@QAEPAEPAE0@Z 03002680 f   detours:disasm.obj
 0001:000016e0       ?CopyBytes@CDetourDis@@IAEPAEPBUCOPYENTRY@1@PAE1@Z 030026e0 f   detours:disasm.obj
 0001:000018b0       ?CopyBytesPrefix@CDetourDis@@IAEPAEPBUCOPYENTRY@1@PAE1@Z 030028b0 f   detours:disasm.obj
 0001:00001900       ?AdjustTarget@CDetourDis@@IAEPAEPAE0JJ@Z 03002900 f   detours:disasm.obj
 0001:000019e0       ?Invalid@CDetourDis@@IAEPAEPBUCOPYENTRY@1@PAE1@Z 030029e0 f   detours:disasm.obj
 0001:00001a00       ?Copy0F@CDetourDis@@IAEPAEPBUCOPYENTRY@1@PAE1@Z 03002a00 f   detours:disasm.obj
 0001:00001a50       ?Copy66@CDetourDis@@IAEPAEPBUCOPYENTRY@1@PAE1@Z 03002a50 f   detours:disasm.obj
 0001:00001a80       ?Copy67@CDetourDis@@IAEPAEPBUCOPYENTRY@1@PAE1@Z 03002a80 f   detours:disasm.obj
 0001:00001ab0       ?CopyF6@CDetourDis@@IAEPAEPBUCOPYENTRY@1@PAE1@Z 03002ab0 f   detours:disasm.obj
 0001:00001b10       ?CopyF7@CDetourDis@@IAEPAEPBUCOPYENTRY@1@PAE1@Z 03002b10 f   detours:disasm.obj
 0001:00001b70       ?CopyFF@CDetourDis@@IAEPAEPBUCOPYENTRY@1@PAE1@Z 03002b70 f   detours:disasm.obj
 0001:00001c20       ?SanityCheckSystem@CDetourDis@@SAHXZ 03002c20 f   detours:disasm.obj
 0001:00004370       ??1CXStr@EQClasses@@QAE@XZ 03005370 f   EQClasses.obj
 0001:00004380       ??0CXStr@EQClasses@@QAE@PBD@Z 03005380 f   EQClasses.obj
 0001:00004390       ??0CXStr@EQClasses@@QAE@ABV01@@Z 03005390 f   EQClasses.obj
 0001:000043a0       ??0CXStr@EQClasses@@QAE@XZ 030053a0 f   EQClasses.obj
 0001:000043b0       ??4CXStr@EQClasses@@QAEAAV01@PBD@Z 030053b0 f   EQClasses.obj
 0001:000043c0       ??4CXStr@EQClasses@@QAEAAV01@ABV01@@Z 030053c0 f   EQClasses.obj
 0001:000043d0       ??YCXStr@EQClasses@@QAEXPBD@Z 030053d0 f   EQClasses.obj
 0001:000043e0       ?GetType@CXWnd@EQClasses@@QAE?AW4UIType@EQUIStructs@@XZ 030053e0 f   EQClasses.obj
 0001:00004400       ?GetXMLData@CXWnd@EQClasses@@QAEPAVCXMLData@2@XZ 03005400 f   EQClasses.obj
 0001:00004430       ?GetChildItem@CXWnd@EQClasses@@QAEPAV12@PAD@Z 03005430 f   EQClasses.obj
 0001:00004450       ?IsActive@CXWnd@EQClasses@@QBE_NXZ 03005450 f   EQClasses.obj
 0001:00004460       ?IsDescendantOf@CXWnd@EQClasses@@QBE_NPBV12@@Z 03005460 f   EQClasses.obj
 0001:00004470       ?IsReallyVisible@CXWnd@EQClasses@@QBE_NXZ 03005470 f   EQClasses.obj
 0001:00004480       ?GetBorderFrame@CXWnd@EQClasses@@QBEPBVCTAFrameDraw@2@XZ 03005480 f   EQClasses.obj
 0001:00004490       ?GetClientClipRect@CXWnd@EQClasses@@QBE?AVCXRect@2@XZ 03005490 f   EQClasses.obj
 0001:000044a0       ?GetScreenClipRect@CXWnd@EQClasses@@QBE?AVCXRect@2@XZ 030054a0 f   EQClasses.obj
 0001:000044b0       ?GetScreenRect@CXWnd@EQClasses@@QBE?AVCXRect@2@XZ 030054b0 f   EQClasses.obj
 0001:000044c0       ?GetWindowTextA@CXWnd@EQClasses@@QBE?AVCXStr@2@XZ 030054c0 f   EQClasses.obj
 0001:000044d0       ?GetChildItem@CXWnd@EQClasses@@QAEPAV12@ABVCXStr@2@@Z 030054d0 f   EQClasses.obj
 0001:000044e0       ?GetChildWndAt@CXWnd@EQClasses@@QBEPAV12@VCXPoint@2@@Z 030054e0 f   EQClasses.obj
 0001:000044f0       ?SetFocus@CXWnd@EQClasses@@QAEPAV12@XZ 030054f0 f   EQClasses.obj
 0001:00004500       ?DoAllDrawing@CXWnd@EQClasses@@QBEHXZ 03005500 f   EQClasses.obj
 0001:00004510       ?DrawChildren@CXWnd@EQClasses@@QBEHXZ 03005510 f   EQClasses.obj
 0001:00004520       ?Move@CXWnd@EQClasses@@QAEHVCXPoint@2@@Z 03005520 f   EQClasses.obj
 0001:00004530       ?Move@CXWnd@EQClasses@@QAEHVCXRect@2@@Z 03005530 f   EQClasses.obj
 0001:00004540       ?ProcessTransition@CXWnd@EQClasses@@QAEHXZ 03005540 f   EQClasses.obj
 0001:00004550       ?Resize@CXWnd@EQClasses@@QAEHHH@Z 03005550 f   EQClasses.obj
 0001:00004560       ?Show@CXWnd@EQClasses@@QAEH_N00@Z 03005560 f   EQClasses.obj
 0001:00004570       ?GetTooltipRect@CXWnd@EQClasses@@SA?AVCXRect@2@VCXSize@2@@Z 03005570 f   EQClasses.obj
 0001:00004580       ?DrawColoredRect@CXWnd@EQClasses@@SAHVCXRect@2@K0@Z 03005580 f   EQClasses.obj
 0001:00004590       ?BringToTop@CXWnd@EQClasses@@QAEX_N@Z 03005590 f   EQClasses.obj
 0001:000045a0       ?Center@CXWnd@EQClasses@@QAEXXZ 030055a0 f   EQClasses.obj
 0001:000045b0       ?ClrFocus@CXWnd@EQClasses@@QAEXXZ 030055b0 f   EQClasses.obj
 0001:000045c0       ?DrawTooltipAtPoint@CXWnd@EQClasses@@QBEXVCXPoint@2@@Z 030055c0 f   EQClasses.obj
 0001:000045d0       ?Refade@CXWnd@EQClasses@@QAEXXZ 030055d0 f   EQClasses.obj
 0001:000045e0       ?Right@CXWnd@EQClasses@@QAEXXZ 030055e0 f   EQClasses.obj
 0001:000045f0       ?SetKeyTooltip@CXWnd@EQClasses@@QAEXHH@Z 030055f0 f   EQClasses.obj
 0001:00004600       ?SetMouseOver@CXWnd@EQClasses@@QAEX_N@Z 03005600 f   EQClasses.obj
 0001:00004610       ?StartFade@CXWnd@EQClasses@@QAEXEI@Z 03005610 f   EQClasses.obj
 0001:00004620       ?IsValid@CXWnd@EQClasses@@QBE_NXZ 03005620 f   EQClasses.obj
 0001:00004630       ?DrawTooltip@CXWnd@EQClasses@@QBEHPBV12@@Z 03005630 f   EQClasses.obj
 0001:00004640       ?HandleLButtonDown@CXWnd@EQClasses@@QAEHPAVCXPoint@2@I@Z 03005640 f   EQClasses.obj
 0001:00004650       ?HandleLButtonHeld@CXWnd@EQClasses@@QAEHPAVCXPoint@2@I@Z 03005650 f   EQClasses.obj
 0001:00004660       ?HandleLButtonUp@CXWnd@EQClasses@@QAEHPAVCXPoint@2@I@Z 03005660 f   EQClasses.obj
 0001:00004670       ?HandleLButtonUpAfterHeld@CXWnd@EQClasses@@QAEHPAVCXPoint@2@I@Z 03005670 f   EQClasses.obj
 0001:00004680       ?HandleRButtonDown@CXWnd@EQClasses@@QAEHPAVCXPoint@2@I@Z 03005680 f   EQClasses.obj
 0001:00004690       ?HandleRButtonHeld@CXWnd@EQClasses@@QAEHPAVCXPoint@2@I@Z 03005690 f   EQClasses.obj
 0001:000046a0       ?HandleRButtonUp@CXWnd@EQClasses@@QAEHPAVCXPoint@2@I@Z 030056a0 f   EQClasses.obj
 0001:000046b0       ?HandleRButtonUpAfterHeld@CXWnd@EQClasses@@QAEHPAVCXPoint@2@I@Z 030056b0 f   EQClasses.obj
 0001:000046c0       ?OnMinimizeBox@CXWnd@EQClasses@@QAEHXZ 030056c0 f   EQClasses.obj
 0001:000046d0       ?OnResize@CXWnd@EQClasses@@QAEHHH@Z 030056d0 f   EQClasses.obj
 0001:000046e0       ?SetVScrollPos@CXWnd@EQClasses@@QAEHH@Z 030056e0 f   EQClasses.obj
 0001:000046f0       ?WndNotification@CXWnd@EQClasses@@QAEHPAV12@IPAX@Z 030056f0 f   EQClasses.obj
 0001:00004700       ?SetWindowTextA@CXWnd@EQClasses@@QAEXAAVCXStr@2@@Z 03005700 f   EQClasses.obj
 0001:00004710       ?SetFont@CXWnd@EQClasses@@QAEHPAX@Z 03005710 f   EQClasses.obj
 0001:00004720       ?GetType@CSidlScreenWnd@EQClasses@@QAE?AW4UIType@EQUIStructs@@XZ 03005720 f   EQClasses.obj
 0001:00004740       ?GetXMLData@CSidlScreenWnd@EQClasses@@QAEPAVCXMLData@2@XZ 03005740 f   EQClasses.obj
 0001:00004770       ?GetChildItem@CSidlScreenWnd@EQClasses@@QAEPAVCXWnd@2@PAD@Z 03005770 f   EQClasses.obj
 0001:00004790       ??0CSidlScreenWnd@EQClasses@@QAE@PAVCXWnd@1@VCXStr@1@@Z 03005790 f   EQClasses.obj
 0001:000047b0       ??0CSidlScreenWnd@EQClasses@@QAE@PAVCXWnd@1@PAVCXStr@1@HHPAD@Z 030057b0 f   EQClasses.obj
 0001:000047c0       ?GetSidlPiece@CSidlScreenWnd@EQClasses@@QBEPAVCScreenPieceTemplate@2@PAVCXStr@2@H@Z 030057c0 f   EQClasses.obj
 0001:000047d0       ?GetChildItem@CSidlScreenWnd@EQClasses@@QAEPAVCXWnd@2@ABVCXStr@2@@Z 030057d0 f   EQClasses.obj
 0001:000047e0       ?DrawSidlPiece@CSidlScreenWnd@EQClasses@@QBEHPAVCScreenPieceTemplate@2@VCXRect@2@1@Z 030057e0 f   EQClasses.obj
 0001:000047f0       ?CalculateHSBRange@CSidlScreenWnd@EQClasses@@QAEXXZ 030057f0 f   EQClasses.obj
 0001:00004800       ?CalculateVSBRange@CSidlScreenWnd@EQClasses@@QAEXXZ 03005800 f   EQClasses.obj
 0001:00004810       ?CreateChildrenFromSidl@CSidlScreenWnd@EQClasses@@QAEXXZ 03005810 f   EQClasses.obj
 0001:00004820       ?EnableIniStorage@CSidlScreenWnd@EQClasses@@QAEXHPAD@Z 03005820 f   EQClasses.obj
 0001:00004830       ?Init@CSidlScreenWnd@EQClasses@@QAEXHPAVCXStr@2@HHH@Z 03005830 f   EQClasses.obj
 0001:00004840       ?LoadIniListWnd@CSidlScreenWnd@EQClasses@@QAEXPAVCListWnd@2@PAD@Z 03005840 f   EQClasses.obj
 0001:00004850       ?StoreIniVis@CSidlScreenWnd@EQClasses@@QAEXXZ 03005850 f   EQClasses.obj
 0001:00004860       ??1CSidlScreenWnd@EQClasses@@QAE@XZ 03005860 f   EQClasses.obj
 0001:00004870       ?WndNotification@CSidlScreenWnd@EQClasses@@QAEHPAVCXWnd@2@IPAX@Z 03005870 f   EQClasses.obj
 0001:00004880       ?ConvertToRes@CSidlScreenWnd@EQClasses@@QAEHHHHH@Z 03005880 f   EQClasses.obj
 0001:00004890       ?LoadSidlScreen@CSidlScreenWnd@EQClasses@@QAEXXZ 03005890 f   EQClasses.obj
 0001:000048a0       ?IsAbilityReady@AltAdvManager@EQClasses@@QAE_NPAVEQ_PC@2@PAU_ALTABILITY@EQData@@PAHH@Z 030058a0 f   EQClasses.obj
 0001:000048b0       ?GetCalculatedTimer@AltAdvManager@EQClasses@@QAEKPAVEQ_PC@2@PAU_ALTABILITY@EQData@@@Z 030058b0 f   EQClasses.obj
 0001:000048c0       ?GetAltAbility@AltAdvManager@EQClasses@@QAEPAU_ALTABILITY@EQData@@H@Z 030058c0 f   EQClasses.obj
 0001:000048d0       ?GetNumBankSlots@CBankWnd@EQClasses@@QBEHXZ 030058d0 f   EQClasses.obj
 0001:000048e0       ?HandleBazaarMsg@CBazaarSearchWnd@EQClasses@@QAEXPADH@Z 030058e0 f   EQClasses.obj
 0001:000048f0       ?SetCheck@CButtonWnd@EQClasses@@QAEX_N@Z 030058f0 f   EQClasses.obj
 0001:00004900       ?InitContextMenu@CChatManager@EQClasses@@QAEHPAVCChatWindow@2@@Z 03005900 f   EQClasses.obj
 0001:00004910       ?GetRGBAFromIndex@CChatManager@EQClasses@@QAEKH@Z 03005910 f   EQClasses.obj
 0001:00004920       ??0CChatWindow@EQClasses@@QAE@PAVCXWnd@1@@Z 03005920 f   EQClasses.obj
 0001:00004930       ?Clear@CChatWindow@EQClasses@@QAEXXZ 03005930 f   EQClasses.obj
 0001:00004940       ?WndNotification@CChatWindow@EQClasses@@QAEHPAVCXWnd@2@IPAX@Z 03005940 f   EQClasses.obj
 0001:00004950       ??_VCChatWindow@EQClasses@@SAXPAX@Z 03005950 f   EQClasses.obj
 0001:00004960       ?GetListRect@CComboWnd@EQClasses@@QBE?AVCXRect@2@XZ 03005960 f   EQClasses.obj
 0001:00004970       ?GetTextRect@CComboWnd@EQClasses@@QBE?AVCXRect@2@XZ 03005970 f   EQClasses.obj
 0001:00004980       ?GetCurChoice@CComboWnd@EQClasses@@QBEHXZ 03005980 f   EQClasses.obj
 0001:00004990       ?DeleteAll@CComboWnd@EQClasses@@QAEXXZ 03005990 f   EQClasses.obj
 0001:000049a0       ?InsertChoice@CComboWnd@EQClasses@@QAEXPAVCXStr@2@K@Z 030059a0 f   EQClasses.obj
 0001:000049b0       ?InsertChoice@CComboWnd@EQClasses@@QAEXPAD@Z 030059b0 f   EQClasses.obj
 0001:000049e0       ?SetChoice@CComboWnd@EQClasses@@QAEXH@Z 030059e0 f   EQClasses.obj
 0001:000049f0       ?SetColors@CComboWnd@EQClasses@@QAEXKKK@Z 030059f0 f   EQClasses.obj
 0001:00004a00       ?HandleCombine@CContainerWnd@EQClasses@@QAEXXZ 03005a00 f   EQClasses.obj
 0001:00004a10       ?GetWorldFilePath@CDisplay@EQClasses@@QAE?B_NPADPBD@Z 03005a10 f   EQClasses.obj
 0001:00004a20       ?WriteTextHD2@CDisplay@EQClasses@@SAHPBDHHH@Z 03005a20 f   EQClasses.obj
 0001:00004a30       ?GetUserDefinedColor@CDisplay@EQClasses@@SAKH@Z 03005a30 f   EQClasses.obj
 0001:00004a40       ?GetClickedActor@CDisplay@EQClasses@@QAEPAUT3D_tagACTORINSTANCE@2@KKKPAX0@Z 03005a40 f   EQClasses.obj
 0001:00004a50       ?ReloadUI@CDisplay@EQClasses@@QAEX_N@Z 03005a50 f   EQClasses.obj
 0001:00004a60       ?CleanGameUI@CDisplay@EQClasses@@QAEXXZ 03005a60 f   EQClasses.obj
 0001:00004a70       ?SetMaxChars@CEditBaseWnd@EQClasses@@QAEXH@Z 03005a70 f   EQClasses.obj
 0001:00004ac0       ?SetSel@CEditBaseWnd@EQClasses@@QAEXHH@Z 03005ac0 f   EQClasses.obj
 0001:00004ad0       ?GetCharIndexPt@CEditWnd@EQClasses@@QBE?AVCXPoint@2@H@Z 03005ad0 f   EQClasses.obj
 0001:00004ae0       ?GetSelStartPt@CEditWnd@EQClasses@@QBE?AVCXPoint@2@XZ 03005ae0 f   EQClasses.obj
 0001:00004af0       ?GetSTMLSafeText@CEditWnd@EQClasses@@QAE?AVCXStr@2@XZ 03005af0 f   EQClasses.obj
 0001:00004b00       ?GetLineForPrintableChar@CEditWnd@EQClasses@@QBEHH@Z 03005b00 f   EQClasses.obj
 0001:00004b10       ?SelectableCharFromPoint@CEditWnd@EQClasses@@QBEHVCXPoint@2@@Z 03005b10 f   EQClasses.obj
 0001:00004b20       ?SetEditable@CEditWnd@EQClasses@@QAEX_N@Z 03005b20 f   EQClasses.obj
 0001:00004b30       ?GetBodyTypeDesc@CEverQuest@EQClasses@@QAEPADH@Z 03005b30 f   EQClasses.obj
 0001:00004b40       ?GetClassDesc@CEverQuest@EQClasses@@QAEPADH@Z 03005b40 f   EQClasses.obj
 0001:00004b50       ?GetClassThreeLetterCode@CEverQuest@EQClasses@@QAEPADH@Z 03005b50 f   EQClasses.obj
 0001:00004b60       ?GetDeityDesc@CEverQuest@EQClasses@@QAEPADH@Z 03005b60 f   EQClasses.obj
 0001:00004b70       ?GetLangDesc@CEverQuest@EQClasses@@QAEPADH@Z 03005b70 f   EQClasses.obj
 0001:00004b80       ?GetRaceDesc@CEverQuest@EQClasses@@QAEPADH@Z 03005b80 f   EQClasses.obj
 0001:00004b90       ?ClickedPlayer@CEverQuest@EQClasses@@QAEPAVEQPlayer@2@HH@Z 03005b90 f   EQClasses.obj
 0001:00004ba0       ?doLoot@CEverQuest@EQClasses@@QAEXXZ 03005ba0 f   EQClasses.obj
 0001:00004bb0       ?DoTellWindow@CEverQuest@EQClasses@@QAEXPAD00PAXH_N@Z 03005bb0 f   EQClasses.obj
 0001:00004bc0       ?DropHeldItemOnGround@CEverQuest@EQClasses@@QAEXH@Z 03005bc0 f   EQClasses.obj
 0001:00004bd0       ?dsp_chat@CEverQuest@EQClasses@@QAEXPBDH_N1@Z 03005bd0 f   EQClasses.obj
 0001:00004be0       ?dsp_chat@CEverQuest@EQClasses@@QAEXPBDH_N@Z 03005be0 f   EQClasses.obj
 0001:00004c00       ?Emote@CEverQuest@EQClasses@@QAEXXZ 03005c00 f   EQClasses.obj
 0001:00004c10       ?EnterZone@CEverQuest@EQClasses@@QAEXPAUHWND__@@@Z 03005c10 f   EQClasses.obj
 0001:00004c20       ?InterpretCmd@CEverQuest@EQClasses@@QAEXPAVEQPlayer@2@PAD@Z 03005c20 f   EQClasses.obj
 0001:00004c30       ?LeftClickedOnPlayer@CEverQuest@EQClasses@@QAEXPAVEQPlayer@2@@Z 03005c30 f   EQClasses.obj
 0001:00004c40       ?LMouseUp@CEverQuest@EQClasses@@QAEXHH@Z 03005c40 f   EQClasses.obj
 0001:00004c50       ?RightClickedOnPlayer@CEverQuest@EQClasses@@QAEXPAVEQPlayer@2@H@Z 03005c50 f   EQClasses.obj
 0001:00004c60       ?RMouseUp@CEverQuest@EQClasses@@QAEXHH@Z 03005c60 f   EQClasses.obj
 0001:00004c70       ?SetGameState@CEverQuest@EQClasses@@QAEXH@Z 03005c70 f   EQClasses.obj
 0001:00004c80       ?CalcFillRect@CGaugeWnd@EQClasses@@QBE?AVCXRect@2@PAV32@H@Z 03005c80 f   EQClasses.obj
 0001:00004c90       ?CalcLinesFillRect@CGaugeWnd@EQClasses@@QBE?AVCXRect@2@PAV32@H@Z 03005c90 f   EQClasses.obj
 0001:00004ca0       ?FindMemberByName@CGuild@EQClasses@@QAEPAVGuildMember@2@PAD@Z 03005ca0 f   EQClasses.obj
 0001:00004cb0       ?DoHotButton@CHotButtonWnd@EQClasses@@QAEXHH@Z 03005cb0 f   EQClasses.obj
 0001:00004cc0       ?HandleRButtonUp@CInvSlot@EQClasses@@QAEXPAVCXPoint@2@@Z 03005cc0 f   EQClasses.obj
 0001:00004cd0       ?SliderComplete@CInvSlot@EQClasses@@QAEXH@Z 03005cd0 f   EQClasses.obj
 0001:00004ce0       ?GetItemBase@CInvSlot@EQClasses@@QAEXPAPAU_CONTENTS@EQData@@@Z 03005ce0 f   EQClasses.obj
 0001:00004cf0       ?FindInvSlot@CInvSlotMgr@EQClasses@@QAEPAVCInvSlot@2@HH@Z 03005cf0 f   EQClasses.obj
 0001:00004d00       ?MoveItem@CInvSlotMgr@EQClasses@@QAE_NPAVCMoveItemData@2@0HHHH@Z 03005d00 f   EQClasses.obj
 0001:00004d10       ?DrawTooltip@CInvSlotWnd@EQClasses@@QBEHPBVCXWnd@2@@Z 03005d10 f   EQClasses.obj
 0001:00004d20       ?SetSpell@CItemDisplayWnd@EQClasses@@QAEXH_NH@Z 03005d20 f   EQClasses.obj
 0001:00004d30       ?UpdateStrings@CItemDisplayWnd@EQClasses@@QAEXXZ 03005d30 f   EQClasses.obj
 0001:00004d40       ?GetItemIcon@CListWnd@EQClasses@@QBEPBVCTextureAnimation@2@HH@Z 03005d40 f   EQClasses.obj
 0001:00004d50       ?GetItemRect@CListWnd@EQClasses@@QBE?AVCXRect@2@HH@Z 03005d50 f   EQClasses.obj
 0001:00004d60       ?GetSeparatorRect@CListWnd@EQClasses@@QBE?AVCXRect@2@H@Z 03005d60 f   EQClasses.obj
 0001:00004d70       ?GetItemText@CListWnd@EQClasses@@QBEPAVCXStr@2@PAV32@HH@Z 03005d70 f   EQClasses.obj
 0001:00004d80       ?AddColumn@CListWnd@EQClasses@@QAEHVCXStr@2@PAVCTextureAnimation@2@HII11@Z 03005d80 f   EQClasses.obj
 0001:00004da0       ?AddColumn@CListWnd@EQClasses@@QAEHVCXStr@2@HII@Z 03005da0 f   EQClasses.obj
 0001:00004dc0       ?AddLine@CListWnd@EQClasses@@QAEHPBVSListWndLine@2@@Z 03005dc0 f   EQClasses.obj
 0001:00004dd0       ?AddString@CListWnd@EQClasses@@QAEHPAVCXStr@2@KIPBVCTextureAnimation@2@PBD@Z 03005dd0 f   EQClasses.obj
 0001:00004de0       ?AddString@CListWnd@EQClasses@@QAEHPADKIPBVCTextureAnimation@2@PBD@Z 03005de0 f   EQClasses.obj
 0001:00004e20       ?GetColumnMinWidth@CListWnd@EQClasses@@QBEHH@Z 03005e20 f   EQClasses.obj
 0001:00004e30       ?GetColumnWidth@CListWnd@EQClasses@@QBEHH@Z 03005e30 f   EQClasses.obj
 0001:00004e40       ?GetCurSel@CListWnd@EQClasses@@QBEHXZ 03005e40 f   EQClasses.obj
 0001:00004e50       ?GetItemAtPoint@CListWnd@EQClasses@@QBEHVCXPoint@2@@Z 03005e50 f   EQClasses.obj
 0001:00004e60       ?GetItemHeight@CListWnd@EQClasses@@QBEHH@Z 03005e60 f   EQClasses.obj
 0001:00004e70       ?GetItemData@CListWnd@EQClasses@@QBEIH@Z 03005e70 f   EQClasses.obj
 0001:00004e80       ?CalculateFirstVisibleLine@CListWnd@EQClasses@@QAEXXZ 03005e80 f   EQClasses.obj
 0001:00004e90       ?CalculateVSBRange@CListWnd@EQClasses@@QAEXXZ 03005e90 f   EQClasses.obj
 0001:00004ea0       ?ClearAllSel@CListWnd@EQClasses@@QAEXXZ 03005ea0 f   EQClasses.obj
 0001:00004eb0       ?CloseAndUpdateEditWindow@CListWnd@EQClasses@@QAEXXZ 03005eb0 f   EQClasses.obj
 0001:00004ec0       ?EnsureVisible@CListWnd@EQClasses@@QAEXH@Z 03005ec0 f   EQClasses.obj
 0001:00004ed0       ?ExtendSel@CListWnd@EQClasses@@QAEXH@Z 03005ed0 f   EQClasses.obj
 0001:00004ee0       ?GetItemAtPoint@CListWnd@EQClasses@@QBEXVCXPoint@2@PAH1@Z 03005ee0 f   EQClasses.obj
 0001:00004ef0       ?RemoveLine@CListWnd@EQClasses@@QAEXH@Z 03005ef0 f   EQClasses.obj
 0001:00004f00       ?SetColors@CListWnd@EQClasses@@QAEXKKK@Z 03005f00 f   EQClasses.obj
 0001:00004f10       ?SetColumnJustification@CListWnd@EQClasses@@QAEXHH@Z 03005f10 f   EQClasses.obj
 0001:00004f20       ?SetColumnWidth@CListWnd@EQClasses@@QAEXHH@Z 03005f20 f   EQClasses.obj
 0001:00004f30       ?SetCurSel@CListWnd@EQClasses@@QAEXH@Z 03005f30 f   EQClasses.obj
 0001:00004f40       ?SetItemColor@CListWnd@EQClasses@@QAEXHHK@Z 03005f40 f   EQClasses.obj
 0001:00004f50       ?SetItemData@CListWnd@EQClasses@@QAEXHI@Z 03005f50 f   EQClasses.obj
 0001:00004f60       ?SetItemText@CListWnd@EQClasses@@QAEXHHPAVCXStr@2@@Z 03005f60 f   EQClasses.obj
 0001:00004f70       ?ShiftColumnSeparator@CListWnd@EQClasses@@QAEXHH@Z 03005f70 f   EQClasses.obj
 0001:00004f80       ?ToggleSel@CListWnd@EQClasses@@QAEXH@Z 03005f80 f   EQClasses.obj
 0001:00004f90       ?DeleteAll@CListWnd@EQClasses@@QAEXXZ 03005f90 f   EQClasses.obj
 0001:00004fa0       ??0CMapViewWnd@EQClasses@@QAE@PAVCXWnd@1@@Z 03005fa0 f   EQClasses.obj
 0001:00004fb0       ?SelectBuySellSlot@CMerchantWnd@EQClasses@@QAEXHPAVCTextureAnimation@2@@Z 03005fb0 f   EQClasses.obj
 0001:00004fc0       ?DisplayBuyOrSellPrice@CMerchantWnd@EQClasses@@QAEX_NPAVEQ_Item@2@@Z 03005fc0 f   EQClasses.obj
 0001:00004fd0       ?RequestBuyItem@CMerchantWnd@EQClasses@@QAEXH@Z 03005fd0 f   EQClasses.obj
 0001:00004fe0       ?RequestSellItem@CMerchantWnd@EQClasses@@QAEXH@Z 03005fe0 f   EQClasses.obj
 0001:00004ff0       ?FindScreenPieceTemplate@CSidlManager@EQClasses@@QBEPAVCScreenPieceTemplate@2@PAVCXStr@2@@Z 03005ff0 f   EQClasses.obj
 0001:00005000       ?FindScreenPieceTemplate@CSidlManager@EQClasses@@QAEPAVCScreenPieceTemplate@2@PAD@Z 03006000 f   EQClasses.obj
 0001:00005030       ?GetValue@CSliderWnd@EQClasses@@QBEHXZ 03006030 f   EQClasses.obj
 0001:00005040       ?SetNumTicks@CSliderWnd@EQClasses@@QAEXH@Z 03006040 f   EQClasses.obj
 0001:00005050       ?SetValue@CSliderWnd@EQClasses@@QAEXH@Z 03006050 f   EQClasses.obj
 0001:00005060       ?MemorizeSet@CSpellBookWnd@EQClasses@@QAEXPAHH@Z 03006060 f   EQClasses.obj
 0001:00005070       ?AppendSTML@CStmlWnd@EQClasses@@QAE?AVCXSize@2@VCXStr@2@@Z 03006070 f   EQClasses.obj
 0001:00005090       ?GetSTMLText@CStmlWnd@EQClasses@@QBE?AVCXStr@2@XZ 03006090 f   EQClasses.obj
 0001:000050a0       ?GetVisibleText@CStmlWnd@EQClasses@@QBE?AVCXStr@2@AAV32@VCXRect@2@@Z 030060a0 f   EQClasses.obj
 0001:000050b0       ?MakeStmlColorTag@CStmlWnd@EQClasses@@SA?AVCXStr@2@K@Z 030060b0 f   EQClasses.obj
 0001:000050c0       ?MakeWndNotificationTag@CStmlWnd@EQClasses@@SA?AVCXStr@2@IAAV32@0@Z 030060c0 f   EQClasses.obj
 0001:000050d0       ?ForceParseNow@CStmlWnd@EQClasses@@QAEXXZ 030060d0 f   EQClasses.obj
 0001:000050e0       ?SetSTMLText@CStmlWnd@EQClasses@@QAEXVCXStr@2@_NPAVSLinkInfo@2@@Z 030060e0 f   EQClasses.obj
 0001:000050f0       ?CanBreakAtCharacter@CStmlWnd@EQClasses@@SA_NG@Z 030060f0 f   EQClasses.obj
 0001:00005100       ?FastForwardToEndOfTag@CStmlWnd@EQClasses@@QAEGAAVCXStr@2@PAV32@PAHD@Z 03006100 f   EQClasses.obj
 0001:00005110       ?GetNextTagPiece@CStmlWnd@EQClasses@@QAEGAAVCXStr@2@PAV32@PAHP6A_NG@Z_N@Z 03006110 f   EQClasses.obj
 0001:00005120       ?CalculateHSBRange@CStmlWnd@EQClasses@@QAEXH@Z 03006120 f   EQClasses.obj
 0001:00005130       ?CalculateVSBRange@CStmlWnd@EQClasses@@QAEXH@Z 03006130 f   EQClasses.obj
 0001:00005140       ?InitializeWindowVariables@CStmlWnd@EQClasses@@QAEXXZ 03006140 f   EQClasses.obj
 0001:00005150       ?StripFirstSTMLLines@CStmlWnd@EQClasses@@QAEXH@Z 03006150 f   EQClasses.obj
 0001:00005160       ?UpdateHistoryString@CStmlWnd@EQClasses@@QAEXHAAVCXStr@2@@Z 03006160 f   EQClasses.obj
 0001:00005170       ?GetCurrentPage@CTabWnd@EQClasses@@QBEPAVCPageWnd@2@XZ 03006170 f   EQClasses.obj
 0001:00005180       ?GetPageInnerRect@CTabWnd@EQClasses@@QBE?AVCXRect@2@XZ 03006180 f   EQClasses.obj
 0001:00005190       ?GetTabInnerRect@CTabWnd@EQClasses@@QBE?AVCXRect@2@H@Z 03006190 f   EQClasses.obj
 0001:000051a0       ?GetTabRect@CTabWnd@EQClasses@@QBE?AVCXRect@2@H@Z 030061a0 f   EQClasses.obj
 0001:000051b0       ?InsertPage@CTabWnd@EQClasses@@QAEXPAVCPageWnd@2@H@Z 030061b0 f   EQClasses.obj
 0001:000051c0       ?SetPage@CTabWnd@EQClasses@@QAEXH_N@Z 030061c0 f   EQClasses.obj
 0001:000051d0       ?SetPageRect@CTabWnd@EQClasses@@QAEXVCXRect@2@@Z 030061d0 f   EQClasses.obj
 0001:000051e0       ?UpdatePage@CTabWnd@EQClasses@@QAEXXZ 030061e0 f   EQClasses.obj
 0001:000051f0       ?DrawCurrentPage@CTabWnd@EQClasses@@QBEHXZ 030061f0 f   EQClasses.obj
 0001:00005200       ?DrawTab@CTabWnd@EQClasses@@QBEHH@Z 03006200 f   EQClasses.obj
 0001:00005210       ?DrawWrappedText@CTextureFont@EQClasses@@QBEHPAVCXStr@2@HHHPAVCXRect@2@KGH@Z 03006210 f   EQClasses.obj
 0001:00005220       ?GetXMLData@CXMLDataManager@EQClasses@@QAEPAVCXMLData@2@HH@Z 03006220 f   EQClasses.obj
 0001:00005230       ?XMLRead@CXMLSOMDocumentBase@EQClasses@@QAE_NPAVCXStr@2@00@Z 03006230 f   EQClasses.obj
 0001:00005240       ?CenterPoint@CXRect@EQClasses@@QBE?AVCXPoint@2@XZ 03006240 f   EQClasses.obj
 0001:00005270       ?DrawCursor@CXWndManager@EQClasses@@QBEHXZ 03006270 f   EQClasses.obj
 0001:00005280       ?DrawWindows@CXWndManager@EQClasses@@QBEHXZ 03006280 f   EQClasses.obj
 0001:00005290       ?HandleKeyboardMsg@CXWndManager@EQClasses@@QAEHI_N@Z 03006290 f   EQClasses.obj
 0001:000052a0       ?RemoveWnd@CXWndManager@EQClasses@@QAEHPAVCXWnd@2@@Z 030062a0 f   EQClasses.obj
 0001:000052b0       ?GetKeyboardFlags@CXWndManager@EQClasses@@QBEIXZ 030062b0 f   EQClasses.obj
 0001:000052c0       ?Cur_HP@EQ_Character1@EQClasses@@QAEHHE@Z 030062c0 f   EQClasses.obj
 0001:000052d0       ?Max_Endurance@EQ_Character1@EQClasses@@QAEHH@Z 030062d0 f   EQClasses.obj
 0001:000052e0       ?Max_HP@EQ_Character1@EQClasses@@QAEHHH@Z 030062e0 f   EQClasses.obj
 0001:000052f0       ?Max_Mana@EQ_Character1@EQClasses@@QAEHH@Z 030062f0 f   EQClasses.obj
 0001:00005300       ?GetAACastingTimeModifier@EQ_Character1@EQClasses@@QAE?BHPBVEQ_Spell@2@@Z 03006300 f   EQClasses.obj
 0001:00005310       ?GetFocusCastingTimeModifier@EQ_Character1@EQClasses@@QAE?BHPBVEQ_Spell@2@PAPAVEQ_Equipment@2@H@Z 03006310 f   EQClasses.obj
 0001:00005320       ?CastSpell@EQ_Character1@EQClasses@@QAEEEHPAPAVEQ_Item@2@HHHHHH_NH@Z 03006320 f   EQClasses.obj
 0001:00005330       ?UseSkill@EQ_Character1@EQClasses@@QAEXEPAVEQPlayer@2@@Z 03006330 f   EQClasses.obj
 0001:00005340       ?GetFocusRangeModifier@EQ_Character1@EQClasses@@QAE?BHPBVEQ_Spell@2@PAPAVEQ_Equipment@2@@Z 03006340 f   EQClasses.obj
 0001:00005350       ?IsExpansionFlag@EQ_Character1@EQClasses@@QAEHH@Z 03006350 f   EQClasses.obj
 0001:00005360       ?TotalEffect@EQ_Character1@EQClasses@@QAEHH_NH00@Z 03006360 f   EQClasses.obj
 0001:00005370       ?DoCombatAbility@EQ_Character@EQClasses@@QAE_NHH@Z 03006370 f   EQClasses.obj
 0001:00005380       ?GetConLevel@EQ_Character@EQClasses@@QAEKPAVEQPlayer@2@@Z 03006380 f   EQClasses.obj
 0001:00005390       ?IsStackable@EQ_Item@EQClasses@@QAE_NXZ 03006390 f   EQClasses.obj
 0001:000053a0       ?CreateItemTagString@EQ_Item@EQClasses@@QAEPADPADH@Z 030063a0 f   EQClasses.obj
 0001:000053b0       ?CanDrop@EQ_Item@EQClasses@@QAEH_NHHH@Z 030063b0 f   EQClasses.obj
 0001:000053c0       ?SetProgressBar@EQ_LoadingS@EQClasses@@QAEXHPBD@Z 030063c0 f   EQClasses.obj
 0001:000053d0       ?GetAltAbilityIndex@EQ_PC@EQClasses@@QAEHH@Z 030063d0 f   EQClasses.obj
 0001:000053e0       ?GetCombatAbility@EQ_PC@EQClasses@@QAEHH@Z 030063e0 f   EQClasses.obj
 0001:000053f0       ?DestroyHeldItemOrMoney@EQ_PC@EQClasses@@QAEXXZ 030063f0 f   EQClasses.obj
 0001:00005400       ?GetCombatAbilityTimer@EQ_PC@EQClasses@@QAEKH@Z 03006400 f   EQClasses.obj
 0001:00005410       ?GetItemTimerValue@EQ_PC@EQClasses@@QAEKPAVEQ_Item@2@@Z 03006410 f   EQClasses.obj
 0001:00005420       ?HasLoreItem@EQ_PC@EQClasses@@QAEKPAVEQ_Item@2@@Z 03006420 f   EQClasses.obj
 0001:00005430       ??0EQItemList@EQClasses@@QAE@XZ 03006430 f   EQClasses.obj
 0001:00005440       ??1EQPlayer@EQClasses@@QAE@XZ 03006440 f   EQClasses.obj
 0001:00005450       ??0EQPlayer@EQClasses@@QAE@PAV01@EIEPAD@Z 03006450 f   EQClasses.obj
 0001:00005460       ?SetNameSpriteTint@EQPlayer@EQClasses@@QAE_NXZ 03006460 f   EQClasses.obj
 0001:00005470       ?DoAttack@EQPlayer@EQClasses@@QAEHEEPAV12@@Z 03006470 f   EQClasses.obj
 0001:00005480       ?SetNameSpriteState@EQPlayer@EQClasses@@QAEH_N@Z 03006480 f   EQClasses.obj
 0001:00005490       ?IsBodyType@EQPlayer@EQClasses@@QAE_NIHH@Z 03006490 f   EQClasses.obj
 0001:000054a0       ?ChangeBoneStringSprite@EQPlayer@EQClasses@@QAEPAUS3D_STRINGSPRITE@2@PAUT3D_DAG@2@PAD@Z 030064a0 f   EQClasses.obj
 0001:000054b0       ?GetSpawnByID@EQPlayerManager@EQClasses@@QAEPAVEQPlayer@2@H@Z 030064b0 f   EQClasses.obj
 0001:000054c0       ?GetSpawnByName@EQPlayerManager@EQClasses@@QAEPAVEQPlayer@2@PAD@Z 030064c0 f   EQClasses.obj
 0001:000054d0       ?AttachAltKeyToEqCommand@KeypressHandler@EQClasses@@QAE_NABVKeyCombo@2@I@Z 030064d0 f   EQClasses.obj
 0001:000054e0       ?AttachKeyToEqCommand@KeypressHandler@EQClasses@@QAE_NABVKeyCombo@2@I@Z 030064e0 f   EQClasses.obj
 0001:000054f0       ?HandleKeyDown@KeypressHandler@EQClasses@@QAE_NABVKeyCombo@2@@Z 030064f0 f   EQClasses.obj
 0001:00005500       ?HandleKeyUp@KeypressHandler@EQClasses@@QAE_NABVKeyCombo@2@@Z 03006500 f   EQClasses.obj
 0001:00005510       ?ClearCommandStateArray@KeypressHandler@EQClasses@@QAEXXZ 03006510 f   EQClasses.obj
 0001:00005520       ?SaveKeymapping@KeypressHandler@EQClasses@@QAEXIABVKeyCombo@2@H@Z 03006520 f   EQClasses.obj
 0001:00005530       ?Clear@MapViewMap@EQClasses@@QAEXXZ 03006530 f   EQClasses.obj
 0001:00005540       ?SaveEx@MapViewMap@EQClasses@@QAEXPADH@Z 03006540 f   EQClasses.obj
 0001:00005550       ?getString@StringTable@EQClasses@@QAEPADKPA_N@Z 03006550 f   EQClasses.obj
 0001:00005560       ?DisplayText@CTextOverlay@EQClasses@@QAEXPADHHHHHH@Z 03006560 f   EQClasses.obj
 0001:00005570       ?GetString@CDBStr@EQClasses@@QAEPADHHPAH@Z 03006570 f   EQClasses.obj
 0001:00005580       ?GetActiveFavorCost@EQMisc@EQClasses@@QAEHXZ 03006580 f   EQClasses.obj
 0001:00005590       ?GetSkillCap@CSkillMgr@EQClasses@@QAEKPAVEQ_Character@2@HHH_N11@Z 03006590 f   EQClasses.obj
 0001:000055a0       ?IsAvailable@CSkillMgr@EQClasses@@QAE_NH@Z 030065a0 f   EQClasses.obj
 0001:000055b0       ?GetNumberOfFriends@CChatService@EQClasses@@QAEHXZ 030065b0 f   EQClasses.obj
 0001:000055c0       ?GetFriendName@CChatService@EQClasses@@QAEPADH@Z 030065c0 f   EQClasses.obj
 0001:000055d0       ?GetAltCurrency@PlayerPointManager@EQClasses@@QAEKKK@Z 030065d0 f   EQClasses.obj
 0001:000055e0       ?HasSkill@CharacterZoneClient@@QAE_NH@Z 030065e0 f   EQClasses.obj
 0001:000055f0       ?GetPcSkillLimit@PcZoneClient@@QAEHH@Z 030065f0 f   EQClasses.obj
 0001:00005600       ?RecurseAndFindName@@YAPAVCXWnd@EQClasses@@PAV12@PAD@Z 03006600 f   EQClasses.obj
 0001:000056e0       ??$_Allocate@D@std@@YAPADIPAD@Z 030066e0 f i EQClasses.obj
 0001:00005710       ??$addressof@D@std@@YAPADAAD@Z 03006710 f i EQClasses.obj
 0001:00005720       ??$construct@PADAAPAD@?$_Wrap_alloc@V?$allocator@D@std@@@std@@QAEXPAPADAAPAD@Z 03006720 f i EQClasses.obj
 0001:00005740       ??$construct@PADAAPAD@?$allocator@D@std@@QAEXPAPADAAPAD@Z 03006740 f i EQClasses.obj
 0001:00005760       ??$construct@PADAAPAD@?$allocator_traits@V?$allocator@D@std@@@std@@SAXAAV?$allocator@D@1@PAPADAAPAD@Z 03006760 f i EQClasses.obj
 0001:00005780       ??$destroy@PAD@?$_Wrap_alloc@V?$allocator@D@std@@@std@@QAEXPAPAD@Z 03006780 f i EQClasses.obj
 0001:00005790       ??$destroy@PAD@?$allocator@D@std@@QAEXPAPAD@Z 03006790 f i EQClasses.obj
 0001:000057a0       ??$destroy@PAD@?$allocator_traits@V?$allocator@D@std@@@std@@SAXAAV?$allocator@D@1@PAPAD@Z 030067a0 f i EQClasses.obj
 0001:000057b0       ??$forward@AAPAD@std@@YAAAPADAAPAD@Z 030067b0 f i EQClasses.obj
 0001:000057c0       ??0?$_String_alloc@$0A@U?$_String_base_types@DV?$allocator@D@std@@@std@@@std@@QAE@ABV?$allocator@D@1@@Z 030067c0 f i EQClasses.obj
 0001:000057e0       ??0?$_String_val@U?$_Simple_types@D@std@@@std@@QAE@XZ 030067e0 f i EQClasses.obj
 0001:00005800       ??0?$_Wrap_alloc@V?$allocator@D@std@@@std@@QAE@XZ 03006800 f i EQClasses.obj
 0001:00005810       ??0?$allocator@D@std@@QAE@XZ 03006810 f i EQClasses.obj
 0001:00005820       ??0?$basic_string@DU?$char_traits@D@std@@V?$allocator@D@2@@std@@QAE@PBD@Z 03006820 f i EQClasses.obj
 0001:00005880       ??0CSidlScreenWnd@EQClasses@@QAE@XZ 03006880 f i EQClasses.obj
 0001:00005890       ??0CXRect@EQClasses@@QAE@HHHH@Z 03006890 f i EQClasses.obj
 0001:000058b0       ??0CXRect@EQClasses@@QAE@XZ 030068b0 f i EQClasses.obj
 0001:000058c0       ??0KeyCombo@EQClasses@@QAE@E_N00@Z 030068c0 f i EQClasses.obj
 0001:000058e0       ??0KeyCombo@EQClasses@@QAE@XZ 030068e0 f i EQClasses.obj
 0001:000058f0       ??0_Generic_error_category@std@@QAE@XZ 030068f0 f i EQClasses.obj
 0001:00005900       ??0_Ignore@std@@QAE@XZ     03006900 f i EQClasses.obj
 0001:00005910       ??0_Iostream_error_category@std@@QAE@XZ 03006910 f i EQClasses.obj
 0001:00005920       ??0_System_error_category@std@@QAE@XZ 03006920 f i EQClasses.obj
 0001:00005930       ??0error_category@std@@QAE@XZ 03006930 f i EQClasses.obj
 0001:00005940       ??0error_condition@std@@QAE@HABVerror_category@1@@Z 03006940 f i EQClasses.obj
 0001:00005960       ??0id@locale@std@@QAE@I@Z  03006960 f i EQClasses.obj
 0001:00005970       ??1?$basic_string@DU?$char_traits@D@std@@V?$allocator@D@2@@std@@QAE@XZ 03006970 f i EQClasses.obj
 0001:000059a0       ??1_Generic_error_category@std@@UAE@XZ 030069a0 f i EQClasses.obj
 0001:000059b0       ??1_Iostream_error_category@std@@UAE@XZ 030069b0 f i EQClasses.obj
 0001:000059c0       ??1_System_error_category@std@@UAE@XZ 030069c0 f i EQClasses.obj
 0001:000059d0       ??1error_category@std@@UAE@XZ 030069d0 f i EQClasses.obj
 0001:000059e0       ??2@YAPAXIPAX@Z            030069e0 f i EQClasses.obj
 0001:000059f0       ??8KeyCombo@EQClasses@@QAEHABV01@@Z 030069f0 f i EQClasses.obj
 0001:00005a10       ??8error_category@std@@QBE_NABV01@@Z 03006a10 f i EQClasses.obj
 0001:00005a20       ??8error_condition@std@@QBE_NABV01@@Z 03006a20 f i EQClasses.obj
 0001:00005a40       ??_E_Generic_error_category@std@@UAEPAXI@Z 03006a40 f i EQClasses.obj
 0001:00005a40       ??_G_Generic_error_category@std@@UAEPAXI@Z 03006a40 f i EQClasses.obj
 0001:00005a70       ??_G_Iostream_error_category@std@@UAEPAXI@Z 03006a70 f i EQClasses.obj
 0001:00005a70       ??_E_Iostream_error_category@std@@UAEPAXI@Z 03006a70 f i EQClasses.obj
 0001:00005aa0       ??_E_System_error_category@std@@UAEPAXI@Z 03006aa0 f i EQClasses.obj
 0001:00005aa0       ??_G_System_error_category@std@@UAEPAXI@Z 03006aa0 f i EQClasses.obj
 0001:00005ad0       ??_Eerror_category@std@@UAEPAXI@Z 03006ad0 f i EQClasses.obj
 0001:00005ad0       ??_Gerror_category@std@@UAEPAXI@Z 03006ad0 f i EQClasses.obj
 0001:00005b00       ??_I@YGXPAXIHP6EX0@Z@Z     03006b00 f i EQClasses.obj
 0001:00005b40       ?Clear@KeyCombo@EQClasses@@QAEXXZ 03006b40 f i EQClasses.obj
 0001:00005b50       ?GetKey@KeyCombo@EQClasses@@QBEIXZ 03006b50 f i EQClasses.obj
 0001:00005b60       ?UsesAlt@KeyCombo@EQClasses@@QBE_NXZ 03006b60 f i EQClasses.obj
 0001:00005b70       ?UsesCtrl@KeyCombo@EQClasses@@QBE_NXZ 03006b70 f i EQClasses.obj
 0001:00005b80       ?UsesShift@KeyCombo@EQClasses@@QBE_NXZ 03006b80 f i EQClasses.obj
 0001:00005b90       ?_Copy@?$basic_string@DU?$char_traits@D@std@@V?$allocator@D@2@@std@@QAEXII@Z 03006b90 f i EQClasses.obj
 0001:00005cd0       ?_Eos@?$basic_string@DU?$char_traits@D@std@@V?$allocator@D@2@@std@@QAEXI@Z 03006cd0 f i EQClasses.obj
 0001:00005d00       ?_Getal@?$_String_alloc@$0A@U?$_String_base_types@DV?$allocator@D@std@@@std@@@std@@QBE?AU?$_Wrap_alloc@V?$allocator@D@std@@@2@XZ 03006d00 f i EQClasses.obj
 0001:00005d10       ?_Grow@?$basic_string@DU?$char_traits@D@std@@V?$allocator@D@2@@std@@QAE_NI_N@Z 03006d10 f i EQClasses.obj
 0001:00005dd0       ?_Inside@?$basic_string@DU?$char_traits@D@std@@V?$allocator@D@2@@std@@QAE_NPBD@Z 03006dd0 f i EQClasses.obj
 0001:00005e10       ?_Myptr@?$_String_val@U?$_Simple_types@D@std@@@std@@QAEPADXZ 03006e10 f i EQClasses.obj
 0001:00005e20       ?_Myptr@?$_String_val@U?$_Simple_types@D@std@@@std@@QBEPBDXZ 03006e20 f i EQClasses.obj
 0001:00005e30       ?_Tidy@?$basic_string@DU?$char_traits@D@std@@V?$allocator@D@2@@std@@QAEX_NI@Z 03006e30 f i EQClasses.obj
 0001:00005e80       ?_Xlen@?$basic_string@DU?$char_traits@D@std@@V?$allocator@D@2@@std@@QBEXXZ 03006e80 f i EQClasses.obj
 0001:00005e90       ?_Xran@?$basic_string@DU?$char_traits@D@std@@V?$allocator@D@2@@std@@QBEXXZ 03006e90 f i EQClasses.obj
 0001:00005ea0       ?allocate@?$_Wrap_alloc@V?$allocator@D@std@@@std@@QAEPADI@Z 03006ea0 f i EQClasses.obj
 0001:00005ed0       ?allocate@?$allocator@D@std@@QAEPADI@Z 03006ed0 f i EQClasses.obj
 0001:00005f00       ?assign@?$basic_string@DU?$char_traits@D@std@@V?$allocator@D@2@@std@@QAEAAV12@ABV12@II@Z 03006f00 f i EQClasses.obj
 0001:00006030       ?assign@?$basic_string@DU?$char_traits@D@std@@V?$allocator@D@2@@std@@QAEAAV12@PBD@Z 03007030 f i EQClasses.obj
 0001:00006070       ?assign@?$basic_string@DU?$char_traits@D@std@@V?$allocator@D@2@@std@@QAEAAV12@PBDI@Z 03007070 f i EQClasses.obj
 0001:00006170       ?assign@?$char_traits@D@std@@SAXAADABD@Z 03007170 f i EQClasses.obj
 0001:00006180       ?category@error_code@std@@QBEABVerror_category@2@XZ 03007180 f i EQClasses.obj
 0001:00006190       ?category@error_condition@std@@QBEABVerror_category@2@XZ 03007190 f i EQClasses.obj
 0001:000061a0       ?copy@?$char_traits@D@std@@SAPADPADPBDI@Z 030071a0 f i EQClasses.obj
 0001:000061c0       ?deallocate@?$_Wrap_alloc@V?$allocator@D@std@@@std@@QAEXPADI@Z 030071c0 f i EQClasses.obj
 0001:000061e0       ?deallocate@?$allocator@D@std@@QAEXPADI@Z 030071e0 f i EQClasses.obj
 0001:00006200       ?default_error_condition@_System_error_category@std@@UBE?AVerror_condition@2@H@Z 03007200 f i EQClasses.obj
 0001:00006240       ?default_error_condition@error_category@std@@UBE?AVerror_condition@2@H@Z 03007240 f i EQClasses.obj
 0001:00006260       ?equivalent@error_category@std@@UBE_NABVerror_code@2@H@Z 03007260 f i EQClasses.obj
 0001:00006280       ?equivalent@error_category@std@@UBE_NHABVerror_condition@2@@Z 03007280 f i EQClasses.obj
 0001:000062c0       ?erase@?$basic_string@DU?$char_traits@D@std@@V?$allocator@D@2@@std@@QAEAAV12@I@Z 030072c0 f i EQClasses.obj
 0001:00006300       ?erase@?$basic_string@DU?$char_traits@D@std@@V?$allocator@D@2@@std@@QAEAAV12@II@Z 03007300 f i EQClasses.obj
 0001:000063a0       ?generic_category@std@@YAABVerror_category@1@XZ 030073a0 f i EQClasses.obj
 0001:000063b0       ?length@?$char_traits@D@std@@SAIPBD@Z 030073b0 f i EQClasses.obj
 0001:000063d0       ?max_size@?$_Wrap_alloc@V?$allocator@D@std@@@std@@QBEIXZ 030073d0 f i EQClasses.obj
 0001:000063e0       ?max_size@?$allocator@D@std@@QBEIXZ 030073e0 f i EQClasses.obj
 0001:000063f0       ?max_size@?$allocator_traits@V?$allocator@D@std@@@std@@SAIABV?$allocator@D@2@@Z 030073f0 f i EQClasses.obj
 0001:00006400       ?max_size@?$basic_string@DU?$char_traits@D@std@@V?$allocator@D@2@@std@@QBEIXZ 03007400 f i EQClasses.obj
 0001:00006410       ?message@_Generic_error_category@std@@UBE?AV?$basic_string@DU?$char_traits@D@std@@V?$allocator@D@2@@2@H@Z 03007410 f i EQClasses.obj
 0001:00006480       ?message@_Iostream_error_category@std@@UBE?AV?$basic_string@DU?$char_traits@D@std@@V?$allocator@D@2@@2@H@Z 03007480 f i EQClasses.obj
 0001:000064d0       ?message@_System_error_category@std@@UBE?AV?$basic_string@DU?$char_traits@D@std@@V?$allocator@D@2@@2@H@Z 030074d0 f i EQClasses.obj
 0001:00006540       ?move@?$char_traits@D@std@@SAPADPADPBDI@Z 03007540 f i EQClasses.obj
 0001:00006560       ?name@_Generic_error_category@std@@UBEPBDXZ 03007560 f i EQClasses.obj
 0001:00006570       ?name@_Iostream_error_category@std@@UBEPBDXZ 03007570 f i EQClasses.obj
 0001:00006580       ?name@_System_error_category@std@@UBEPBDXZ 03007580 f i EQClasses.obj
 0001:00006590       ?size@?$basic_string@DU?$char_traits@D@std@@V?$allocator@D@2@@std@@QBEIXZ 03007590 f i EQClasses.obj
 0001:000065a0       ?system_category@std@@YAABVerror_category@1@XZ 030075a0 f i EQClasses.obj
 0001:000065b0       ?value@error_code@std@@QBEHXZ 030075b0 f i EQClasses.obj
 0001:000065c0       ?value@error_condition@std@@QBEHXZ 030075c0 f i EQClasses.obj
 0001:000065d0       _hypot                     030075d0 f i EQClasses.obj
 0001:00006600       _lqKlbG_ADfLemNlfDKpfBbpyLSm 03007600 f   MQ2Auth.obj
 0001:00006620       _ACUHnpPbhTViOBoAzGUx_uiIRSA 03007620 f   MQ2Auth.obj
 0001:00006640       ?proc@@YGJHIJ@Z            03007640 f   MQ2Auth.obj
 0001:00006660       _ShutdownMQ2Benchmarks     03007660 f   MQ2Benchmarks.obj
 0001:00006700       _InitializeMQ2Benchmarks   03007700 f   MQ2Benchmarks.obj
 0001:00006770       _GetMQ2Benchmark           03007770 f   MQ2Benchmarks.obj
 0001:000067d0       _ExitMQ2Benchmark          030077d0 f   MQ2Benchmarks.obj
 0001:00006860       _EnterMQ2Benchmark         03007860 f   MQ2Benchmarks.obj
 0001:00006890       _RemoveMQ2Benchmark        03007890 f   MQ2Benchmarks.obj
 0001:000068e0       _AddMQ2Benchmark           030078e0 f   MQ2Benchmarks.obj
 0001:00006990       ?SpewMQ2BenchmarksToChat@@YAXPAU_SPAWNINFO@EQData@@PAD@Z 03007990 f   MQ2Benchmarks.obj
 0001:00006b20       ?SpewMQ2Benchmarks@@YAXXZ  03007b20 f   MQ2Benchmarks.obj
 0001:00006be0       ??0?$CIndex@PAU_MQBENCH@MQ2Internal@@@MQ2Internal@@QAE@K@Z 03007be0 f i MQ2Benchmarks.obj
 0001:00006c10       ??0CAutoLock@MQ2Internal@@QAE@PAU_RTL_CRITICAL_SECTION@@@Z 03007c10 f i MQ2Benchmarks.obj
 0001:00006c40       ??1?$CIndex@PAU_MQBENCH@MQ2Internal@@@MQ2Internal@@QAE@XZ 03007c40 f i MQ2Benchmarks.obj
 0001:00006c80       ??1CAutoLock@MQ2Internal@@QAE@XZ 03007c80 f i MQ2Benchmarks.obj
 0001:00006ca0       ??A?$CIndex@PAU_MQBENCH@MQ2Internal@@@MQ2Internal@@QAEAAPAU_MQBENCH@1@K@Z 03007ca0 f i MQ2Benchmarks.obj
 0001:00006cb0       ??_G?$CIndex@PAU_MQBENCH@MQ2Internal@@@MQ2Internal@@QAEPAXI@Z 03007cb0 f i MQ2Benchmarks.obj
 0001:00006d10       ?Cleanup@?$CIndex@PAU_MQBENCH@MQ2Internal@@@MQ2Internal@@QAEXXZ 03007d10 f i MQ2Benchmarks.obj
 0001:00006d50       ?GetUnused@?$CIndex@PAU_MQBENCH@MQ2Internal@@@MQ2Internal@@QAEKXZ 03007d50 f i MQ2Benchmarks.obj
 0001:00006da0       ?Lock@CAutoLock@MQ2Internal@@QAEXXZ 03007da0 f i MQ2Benchmarks.obj
 0001:00006dc0       ?Resize@?$CIndex@PAU_MQBENCH@MQ2Internal@@@MQ2Internal@@QAEXK@Z 03007dc0 f i MQ2Benchmarks.obj
 0001:00006e70       ?Unlock@CAutoLock@MQ2Internal@@QAEXXZ 03007e70 f i MQ2Benchmarks.obj
 0001:00006e90       _InitializeChatHook        03007e90 f   MQ2ChatHook.obj
 0001:00006f50       _ShutdownChatHook          03007f50 f   MQ2ChatHook.obj
 0001:00007000       _dsp_chat_no_events        03008000 f   MQ2ChatHook.obj
 0001:00007030       ?Trampoline@CChatHook@@QAEXPADK_N1@Z 03008030 f   MQ2ChatHook.obj
 0001:00007050       ?TellWnd_Trampoline@CChatHook@@QAEXPAD00PAXH_N@Z 03008050 f   MQ2ChatHook.obj
 0001:00007070       ?UPCNotificationFlush_Trampoline@CChatHook@@QAEXXZ 03008070 f   MQ2ChatHook.obj
 0001:00007090       ?MQ2DataVariableLookup@@YGIPAD0@Z 03008090 f   MQ2ChatHook.obj
 0001:000070f0       ??$_Allocate@U?$_Tree_node@U?$pair@$$CBIPAU_BLECHEVENT@@@std@@PAX@std@@@std@@YAPAU?$_Tree_node@U?$pair@$$CBIPAU_BLECHEVENT@@@std@@PAX@0@IPAU10@@Z 030080f0 f i MQ2ChatHook.obj
 0001:00007130       ??$_Move@AAD@std@@YA$$QADAAD@Z 03008130 f i MQ2ChatHook.obj
 0001:00007140       ??$addressof@PAU?$_Tree_node@U?$pair@$$CBIPAU_BLECHEVENT@@@std@@PAX@std@@@std@@YAPAPAU?$_Tree_node@U?$pair@$$CBIPAU_BLECHEVENT@@@std@@PAX@0@AAPAU10@@Z 03008140 f i MQ2ChatHook.obj
 0001:00007150       ??$addressof@U?$pair@$$CBIPAU_BLECHEVENT@@@std@@@std@@YAPAU?$pair@$$CBIPAU_BLECHEVENT@@@0@AAU10@@Z 03008150 f i MQ2ChatHook.obj
 0001:00007160       ??$construct@PAU?$_Tree_node@U?$pair@$$CBIPAU_BLECHEVENT@@@std@@PAX@std@@AAPAU12@@?$_Wrap_alloc@V?$allocator@U?$_Tree_node@U?$pair@$$CBIPAU_BLECHEVENT@@@std@@PAX@std@@@std@@@std@@QAEXPAPAU?$_Tree_node@U?$pair@$$CBIPAU_BLECHEVENT@@@std@@PAX@1@AAPAU21@@Z 03008160 f i MQ2ChatHook.obj
 0001:00007180       ??$construct@PAU?$_Tree_node@U?$pair@$$CBIPAU_BLECHEVENT@@@std@@PAX@std@@AAPAU12@@?$allocator@U?$_Tree_node@U?$pair@$$CBIPAU_BLECHEVENT@@@std@@PAX@std@@@std@@QAEXPAPAU?$_Tree_node@U?$pair@$$CBIPAU_BLECHEVENT@@@std@@PAX@1@AAPAU21@@Z 03008180 f i MQ2ChatHook.obj
 0001:000071a0       ??$construct@PAU?$_Tree_node@U?$pair@$$CBIPAU_BLECHEVENT@@@std@@PAX@std@@AAPAU12@@?$allocator_traits@V?$allocator@U?$_Tree_node@U?$pair@$$CBIPAU_BLECHEVENT@@@std@@PAX@std@@@std@@@std@@SAXAAV?$allocator@U?$_Tree_node@U?$pair@$$CBIPAU_BLECHEVENT@@@std@@PAX@std@@@1@PAPAU?$_Tree_node@U?$pair@$$CBIPAU_BLECHEVENT@@@std@@PAX@1@AAPAU31@@Z 030081a0 f i MQ2ChatHook.obj
 0001:000071c0       ??$destroy@PAU?$_Tree_node@U?$pair@$$CBIPAU_BLECHEVENT@@@std@@PAX@std@@@?$_Wrap_alloc@V?$allocator@U?$_Tree_node@U?$pair@$$CBIPAU_BLECHEVENT@@@std@@PAX@std@@@std@@@std@@QAEXPAPAU?$_Tree_node@U?$pair@$$CBIPAU_BLECHEVENT@@@std@@PAX@1@@Z 030081c0 f i MQ2ChatHook.obj
 0001:000071d0       ??$destroy@PAU?$_Tree_node@U?$pair@$$CBIPAU_BLECHEVENT@@@std@@PAX@std@@@?$allocator@U?$_Tree_node@U?$pair@$$CBIPAU_BLECHEVENT@@@std@@PAX@std@@@std@@QAEXPAPAU?$_Tree_node@U?$pair@$$CBIPAU_BLECHEVENT@@@std@@PAX@1@@Z 030081d0 f i MQ2ChatHook.obj
 0001:000071e0       ??$destroy@PAU?$_Tree_node@U?$pair@$$CBIPAU_BLECHEVENT@@@std@@PAX@std@@@?$allocator_traits@V?$allocator@U?$_Tree_node@U?$pair@$$CBIPAU_BLECHEVENT@@@std@@PAX@std@@@std@@@std@@SAXAAV?$allocator@U?$_Tree_node@U?$pair@$$CBIPAU_BLECHEVENT@@@std@@PAX@std@@@1@PAPAU?$_Tree_node@U?$pair@$$CBIPAU_BLECHEVENT@@@std@@PAX@1@@Z 030081e0 f i MQ2ChatHook.obj
 0001:000071f0       ??$destroy@U?$pair@$$CBIPAU_BLECHEVENT@@@std@@@?$_Wrap_alloc@V?$allocator@U?$_Tree_node@U?$pair@$$CBIPAU_BLECHEVENT@@@std@@PAX@std@@@std@@@std@@QAEXPAU?$pair@$$CBIPAU_BLECHEVENT@@@1@@Z 030081f0 f i MQ2ChatHook.obj
 0001:00007200       ??$destroy@U?$pair@$$CBIPAU_BLECHEVENT@@@std@@@?$allocator@U?$_Tree_node@U?$pair@$$CBIPAU_BLECHEVENT@@@std@@PAX@std@@@std@@QAEXPAU?$pair@$$CBIPAU_BLECHEVENT@@@1@@Z 03008200 f i MQ2ChatHook.obj
 0001:00007210       ??$destroy@U?$pair@$$CBIPAU_BLECHEVENT@@@std@@@?$allocator_traits@V?$allocator@U?$_Tree_node@U?$pair@$$CBIPAU_BLECHEVENT@@@std@@PAX@std@@@std@@@std@@SAXAAV?$allocator@U?$_Tree_node@U?$pair@$$CBIPAU_BLECHEVENT@@@std@@PAX@std@@@1@PAU?$pair@$$CBIPAU_BLECHEVENT@@@1@@Z 03008210 f i MQ2ChatHook.obj
 0001:00007220       ??$forward@AAPAU?$_Tree_node@U?$pair@$$CBIPAU_BLECHEVENT@@@std@@PAX@std@@@std@@YAAAPAU?$_Tree_node@U?$pair@$$CBIPAU_BLECHEVENT@@@std@@PAX@0@AAPAU10@@Z 03008220 f i MQ2ChatHook.obj
 0001:00007230       ??$swap@D@std@@YAXAAD0@Z   03008230 f i MQ2ChatHook.obj
 0001:00007250       ??0?$_Tree@V?$_Tmap_traits@IPAU_BLECHEVENT@@U?$less@I@std@@V?$allocator@U?$pair@$$CBIPAU_BLECHEVENT@@@std@@@3@$0A@@std@@@std@@QAE@ABU?$less@I@1@ABV?$allocator@U?$pair@$$CBIPAU_BLECHEVENT@@@std@@@1@@Z 03008250 f i MQ2ChatHook.obj
 0001:00007270       ??0?$_Tree_alloc@$0A@U?$_Tree_base_types@U?$pair@$$CBIPAU_BLECHEVENT@@@std@@V?$allocator@U?$pair@$$CBIPAU_BLECHEVENT@@@std@@@2@@std@@@std@@QAE@ABV?$allocator@U?$pair@$$CBIPAU_BLECHEVENT@@@std@@@1@@Z 03008270 f i MQ2ChatHook.obj
 0001:00007290       ??0?$_Tree_buy@U?$pair@$$CBIPAU_BLECHEVENT@@@std@@V?$allocator@U?$pair@$$CBIPAU_BLECHEVENT@@@std@@@2@@std@@QAE@ABV?$allocator@U?$pair@$$CBIPAU_BLECHEVENT@@@std@@@1@@Z 03008290 f i MQ2ChatHook.obj
 0001:000072b0       ??0?$_Tree_comp@$0A@V?$_Tmap_traits@IPAU_BLECHEVENT@@U?$less@I@std@@V?$allocator@U?$pair@$$CBIPAU_BLECHEVENT@@@std@@@3@$0A@@std@@@std@@QAE@ABU?$less@I@1@ABV?$allocator@U?$pair@$$CBIPAU_BLECHEVENT@@@std@@@1@@Z 030082b0 f i MQ2ChatHook.obj
 0001:000072d0       ??0?$_Tree_const_iterator@V?$_Tree_val@U?$_Tree_simple_types@U?$pair@$$CBIPAU_BLECHEVENT@@@std@@@std@@@std@@@std@@QAE@PAU?$_Tree_node@U?$pair@$$CBIPAU_BLECHEVENT@@@std@@PAX@1@PBV?$_Tree_val@U?$_Tree_simple_types@U?$pair@$$CBIPAU_BLECHEVENT@@@std@@@std@@@1@@Z 030082d0 f i MQ2ChatHook.obj
 0001:000072e0       ??0?$_Tree_iterator@V?$_Tree_val@U?$_Tree_simple_types@U?$pair@$$CBIPAU_BLECHEVENT@@@std@@@std@@@std@@@std@@QAE@PAU?$_Tree_node@U?$pair@$$CBIPAU_BLECHEVENT@@@std@@PAX@1@PBV?$_Tree_val@U?$_Tree_simple_types@U?$pair@$$CBIPAU_BLECHEVENT@@@std@@@std@@@1@@Z 030082e0 f i MQ2ChatHook.obj
 0001:000072f0       ??0?$_Tree_unchecked_const_iterator@V?$_Tree_val@U?$_Tree_simple_types@U?$pair@$$CBIPAU_BLECHEVENT@@@std@@@std@@@std@@U_Iterator_base0@2@@std@@QAE@PAU?$_Tree_node@U?$pair@$$CBIPAU_BLECHEVENT@@@std@@PAX@1@PBV?$_Tree_val@U?$_Tree_simple_types@U?$pair@$$CBIPAU_BLECHEVENT@@@std@@@std@@@1@@Z 030082f0 f i MQ2ChatHook.obj
 0001:00007300       ??0?$_Tree_val@U?$_Tree_simple_types@U?$pair@$$CBIPAU_BLECHEVENT@@@std@@@std@@@std@@QAE@XZ 03008300 f i MQ2ChatHook.obj
 0001:00007310       ??0?$_Wrap_alloc@V?$allocator@U?$_Tree_node@U?$pair@$$CBIPAU_BLECHEVENT@@@std@@PAX@std@@@std@@@std@@QAE@XZ 03008310 f i MQ2ChatHook.obj
 0001:00007320       ??0?$allocator@U?$_Tree_node@U?$pair@$$CBIPAU_BLECHEVENT@@@std@@PAX@std@@@std@@QAE@XZ 03008320 f i MQ2ChatHook.obj
 0001:00007330       ??0?$allocator@U?$pair@$$CBIPAU_BLECHEVENT@@@std@@@std@@QAE@XZ 03008330 f i MQ2ChatHook.obj
 0001:00007340       ??0?$map@IPAU_BLECHEVENT@@U?$less@I@std@@V?$allocator@U?$pair@$$CBIPAU_BLECHEVENT@@@std@@@3@@std@@QAE@XZ 03008340 f i MQ2ChatHook.obj
 0001:00007360       ??0Blech@@QAE@DDP6GIPAD0@Z@Z 03008360 f i MQ2ChatHook.obj
 0001:000073e0       ??1?$_Tree@V?$_Tmap_traits@IPAU_BLECHEVENT@@U?$less@I@std@@V?$allocator@U?$pair@$$CBIPAU_BLECHEVENT@@@std@@@3@$0A@@std@@@std@@QAE@XZ 030083e0 f i MQ2ChatHook.obj
 0001:00007410       ??1?$_Tree_alloc@$0A@U?$_Tree_base_types@U?$pair@$$CBIPAU_BLECHEVENT@@@std@@V?$allocator@U?$pair@$$CBIPAU_BLECHEVENT@@@std@@@2@@std@@@std@@QAE@XZ 03008410 f i MQ2ChatHook.obj
 0001:00007420       ??1?$_Tree_buy@U?$pair@$$CBIPAU_BLECHEVENT@@@std@@V?$allocator@U?$pair@$$CBIPAU_BLECHEVENT@@@std@@@2@@std@@QAE@XZ 03008420 f i MQ2ChatHook.obj
 0001:00007430       ??1?$_Tree_comp@$0A@V?$_Tmap_traits@IPAU_BLECHEVENT@@U?$less@I@std@@V?$allocator@U?$pair@$$CBIPAU_BLECHEVENT@@@std@@@3@$0A@@std@@@std@@QAE@XZ 03008430 f i MQ2ChatHook.obj
 0001:00007440       ??1?$map@IPAU_BLECHEVENT@@U?$less@I@std@@V?$allocator@U?$pair@$$CBIPAU_BLECHEVENT@@@std@@@3@@std@@QAE@XZ 03008440 f i MQ2ChatHook.obj
 0001:00007470       ??1Blech@@QAE@XZ           03008470 f i MQ2ChatHook.obj
 0001:000074b0       ??1BlechNode@@QAE@XZ       030084b0 f i MQ2ChatHook.obj
 0001:00007560       ??8?$_Tree_const_iterator@V?$_Tree_val@U?$_Tree_simple_types@U?$pair@$$CBIPAU_BLECHEVENT@@@std@@@std@@@std@@@std@@QBE_NABV01@@Z 03008560 f i MQ2ChatHook.obj
 0001:00007580       ??9?$_Tree_const_iterator@V?$_Tree_val@U?$_Tree_simple_types@U?$pair@$$CBIPAU_BLECHEVENT@@@std@@@std@@@std@@@std@@QBE_NABV01@@Z 03008580 f i MQ2ChatHook.obj
 0001:000075a0       ??C?$_Tree_iterator@V?$_Tree_val@U?$_Tree_simple_types@U?$pair@$$CBIPAU_BLECHEVENT@@@std@@@std@@@std@@@std@@QBEPAU?$pair@$$CBIPAU_BLECHEVENT@@@1@XZ 030085a0 f i MQ2ChatHook.obj
 0001:000075b0       ??D?$_Tree_const_iterator@V?$_Tree_val@U?$_Tree_simple_types@U?$pair@$$CBIPAU_BLECHEVENT@@@std@@@std@@@std@@@std@@QBEABU?$pair@$$CBIPAU_BLECHEVENT@@@1@XZ 030085b0 f i MQ2ChatHook.obj
 0001:000075c0       ??D?$_Tree_iterator@V?$_Tree_val@U?$_Tree_simple_types@U?$pair@$$CBIPAU_BLECHEVENT@@@std@@@std@@@std@@@std@@QBEAAU?$pair@$$CBIPAU_BLECHEVENT@@@1@XZ 030085c0 f i MQ2ChatHook.obj
 0001:000075d0       ??E?$_Tree_const_iterator@V?$_Tree_val@U?$_Tree_simple_types@U?$pair@$$CBIPAU_BLECHEVENT@@@std@@@std@@@std@@@std@@QAE?AV01@H@Z 030085d0 f i MQ2ChatHook.obj
 0001:000075f0       ??E?$_Tree_const_iterator@V?$_Tree_val@U?$_Tree_simple_types@U?$pair@$$CBIPAU_BLECHEVENT@@@std@@@std@@@std@@@std@@QAEAAV01@XZ 030085f0 f i MQ2ChatHook.obj
 0001:00007600       ??E?$_Tree_iterator@V?$_Tree_val@U?$_Tree_simple_types@U?$pair@$$CBIPAU_BLECHEVENT@@@std@@@std@@@std@@@std@@QAE?AV01@H@Z 03008600 f i MQ2ChatHook.obj
 0001:00007620       ??E?$_Tree_iterator@V?$_Tree_val@U?$_Tree_simple_types@U?$pair@$$CBIPAU_BLECHEVENT@@@std@@@std@@@std@@@std@@QAEAAV01@XZ 03008620 f i MQ2ChatHook.obj
 0001:00007630       ??E?$_Tree_unchecked_const_iterator@V?$_Tree_val@U?$_Tree_simple_types@U?$pair@$$CBIPAU_BLECHEVENT@@@std@@@std@@@std@@U_Iterator_base0@2@@std@@QAEAAV01@XZ 03008630 f i MQ2ChatHook.obj
 0001:00007680       ??_GBlech@@QAEPAXI@Z       03008680 f i MQ2ChatHook.obj
 0001:000076d0       ??_GBlechNode@@QAEPAXI@Z   030086d0 f i MQ2ChatHook.obj
 0001:00007700       ?Cleanup@Blech@@AAEXXZ     03008700 f i MQ2ChatHook.obj
 0001:000077f0       ?Detour@CChatHook@@QAEXPADK_N1@Z 030087f0 f i MQ2ChatHook.obj
 0001:000078d0       ?Initialize@Blech@@AAEXXZ  030088d0 f i MQ2ChatHook.obj
 0001:00007900       ?TellWnd_Detour@CChatHook@@QAEXPAD00PAXH_N@Z 03008900 f i MQ2ChatHook.obj
 0001:000079a0       ?UPCNotificationFlush_Detour@CChatHook@@QAEXXZ 030089a0 f i MQ2ChatHook.obj
 0001:00007a90       ?_Adopt@_Iterator_base0@std@@QAEXPBX@Z 03008a90 f i MQ2ChatHook.obj
 0001:00007aa0       ?_Buyheadnode@?$_Tree_alloc@$0A@U?$_Tree_base_types@U?$pair@$$CBIPAU_BLECHEVENT@@@std@@V?$allocator@U?$pair@$$CBIPAU_BLECHEVENT@@@std@@@2@@std@@@std@@QAEPAU?$_Tree_node@U?$pair@$$CBIPAU_BLECHEVENT@@@std@@PAX@2@XZ 03008aa0 f i MQ2ChatHook.obj
 0001:00007b30       ?_Color@?$_Tree_val@U?$_Tree_simple_types@U?$pair@$$CBIPAU_BLECHEVENT@@@std@@@std@@@std@@SAAADPAU?$_Tree_node@U?$pair@$$CBIPAU_BLECHEVENT@@@std@@PAX@2@@Z 03008b30 f i MQ2ChatHook.obj
 0001:00007b40       ?_Erase@?$_Tree@V?$_Tmap_traits@IPAU_BLECHEVENT@@U?$less@I@std@@V?$allocator@U?$pair@$$CBIPAU_BLECHEVENT@@@std@@@3@$0A@@std@@@std@@IAEXPAU?$_Tree_node@U?$pair@$$CBIPAU_BLECHEVENT@@@std@@PAX@2@@Z 03008b40 f i MQ2ChatHook.obj
 0001:00007b80       ?_Freeheadnode@?$_Tree_alloc@$0A@U?$_Tree_base_types@U?$pair@$$CBIPAU_BLECHEVENT@@@std@@V?$allocator@U?$pair@$$CBIPAU_BLECHEVENT@@@std@@@2@@std@@@std@@QAEXPAU?$_Tree_node@U?$pair@$$CBIPAU_BLECHEVENT@@@std@@PAX@2@@Z 03008b80 f i MQ2ChatHook.obj
 0001:00007ba0       ?_Getal@?$_Tree_alloc@$0A@U?$_Tree_base_types@U?$pair@$$CBIPAU_BLECHEVENT@@@std@@V?$allocator@U?$pair@$$CBIPAU_BLECHEVENT@@@std@@@2@@std@@@std@@QBE?AU?$_Wrap_alloc@V?$allocator@U?$_Tree_node@U?$pair@$$CBIPAU_BLECHEVENT@@@std@@PAX@std@@@std@@@2@XZ 03008ba0 f i MQ2ChatHook.obj
 0001:00007bb0       ?_Isnil@?$_Tree_val@U?$_Tree_simple_types@U?$pair@$$CBIPAU_BLECHEVENT@@@std@@@std@@@std@@SAAADPAU?$_Tree_node@U?$pair@$$CBIPAU_BLECHEVENT@@@std@@PAX@2@@Z 03008bb0 f i MQ2ChatHook.obj
 0001:00007bc0       ?_Left@?$_Tree_val@U?$_Tree_simple_types@U?$pair@$$CBIPAU_BLECHEVENT@@@std@@@std@@@std@@SAAAPAU?$_Tree_node@U?$pair@$$CBIPAU_BLECHEVENT@@@std@@PAX@2@PAU32@@Z 03008bc0 f i MQ2ChatHook.obj
 0001:00007bd0       ?_Lmost@?$_Tree@V?$_Tmap_traits@IPAU_BLECHEVENT@@U?$less@I@std@@V?$allocator@U?$pair@$$CBIPAU_BLECHEVENT@@@std@@@3@$0A@@std@@@std@@IBEAAPAU?$_Tree_node@U?$pair@$$CBIPAU_BLECHEVENT@@@std@@PAX@2@XZ 03008bd0 f i MQ2ChatHook.obj
 0001:00007be0       ?_Lrotate@?$_Tree@V?$_Tmap_traits@IPAU_BLECHEVENT@@U?$less@I@std@@V?$allocator@U?$pair@$$CBIPAU_BLECHEVENT@@@std@@@3@$0A@@std@@@std@@IAEXPAU?$_Tree_node@U?$pair@$$CBIPAU_BLECHEVENT@@@std@@PAX@2@@Z 03008be0 f i MQ2ChatHook.obj
 0001:00007c40       ?_Max@?$_Tree_val@U?$_Tree_simple_types@U?$pair@$$CBIPAU_BLECHEVENT@@@std@@@std@@@std@@SAPAU?$_Tree_node@U?$pair@$$CBIPAU_BLECHEVENT@@@std@@PAX@2@PAU32@@Z 03008c40 f i MQ2ChatHook.obj
 0001:00007c60       ?_Min@?$_Tree_val@U?$_Tree_simple_types@U?$pair@$$CBIPAU_BLECHEVENT@@@std@@@std@@@std@@SAPAU?$_Tree_node@U?$pair@$$CBIPAU_BLECHEVENT@@@std@@PAX@2@PAU32@@Z 03008c60 f i MQ2ChatHook.obj
 0001:00007c80       ?_Mynode@?$_Tree_unchecked_const_iterator@V?$_Tree_val@U?$_Tree_simple_types@U?$pair@$$CBIPAU_BLECHEVENT@@@std@@@std@@@std@@U_Iterator_base0@2@@std@@QBEPAU?$_Tree_node@U?$pair@$$CBIPAU_BLECHEVENT@@@std@@PAX@2@XZ 03008c80 f i MQ2ChatHook.obj
 0001:00007c90       ?_Myval@?$_Tree_val@U?$_Tree_simple_types@U?$pair@$$CBIPAU_BLECHEVENT@@@std@@@std@@@std@@SAAAU?$pair@$$CBIPAU_BLECHEVENT@@@2@PAU?$_Tree_node@U?$pair@$$CBIPAU_BLECHEVENT@@@std@@PAX@2@@Z 03008c90 f i MQ2ChatHook.obj
 0001:00007ca0       ?_Parent@?$_Tree_val@U?$_Tree_simple_types@U?$pair@$$CBIPAU_BLECHEVENT@@@std@@@std@@@std@@SAAAPAU?$_Tree_node@U?$pair@$$CBIPAU_BLECHEVENT@@@std@@PAX@2@PAU32@@Z 03008ca0 f i MQ2ChatHook.obj
 0001:00007cb0       ?_Right@?$_Tree_val@U?$_Tree_simple_types@U?$pair@$$CBIPAU_BLECHEVENT@@@std@@@std@@@std@@SAAAPAU?$_Tree_node@U?$pair@$$CBIPAU_BLECHEVENT@@@std@@PAX@2@PAU32@@Z 03008cb0 f i MQ2ChatHook.obj
 0001:00007cc0       ?_Rmost@?$_Tree@V?$_Tmap_traits@IPAU_BLECHEVENT@@U?$less@I@std@@V?$allocator@U?$pair@$$CBIPAU_BLECHEVENT@@@std@@@3@$0A@@std@@@std@@IBEAAPAU?$_Tree_node@U?$pair@$$CBIPAU_BLECHEVENT@@@std@@PAX@2@XZ 03008cc0 f i MQ2ChatHook.obj
 0001:00007cd0       ?_Root@?$_Tree@V?$_Tmap_traits@IPAU_BLECHEVENT@@U?$less@I@std@@V?$allocator@U?$pair@$$CBIPAU_BLECHEVENT@@@std@@@3@$0A@@std@@@std@@IBEAAPAU?$_Tree_node@U?$pair@$$CBIPAU_BLECHEVENT@@@std@@PAX@2@XZ 03008cd0 f i MQ2ChatHook.obj
 0001:00007ce0       ?_Rrotate@?$_Tree@V?$_Tmap_traits@IPAU_BLECHEVENT@@U?$less@I@std@@V?$allocator@U?$pair@$$CBIPAU_BLECHEVENT@@@std@@@3@$0A@@std@@@std@@IAEXPAU?$_Tree_node@U?$pair@$$CBIPAU_BLECHEVENT@@@std@@PAX@2@@Z 03008ce0 f i MQ2ChatHook.obj
 0001:00007d40       ?_Tidy@?$_Tree@V?$_Tmap_traits@IPAU_BLECHEVENT@@U?$less@I@std@@V?$allocator@U?$pair@$$CBIPAU_BLECHEVENT@@@std@@@3@$0A@@std@@@std@@IAEXXZ 03008d40 f i MQ2ChatHook.obj
 0001:00007d60       ?allocate@?$_Wrap_alloc@V?$allocator@U?$_Tree_node@U?$pair@$$CBIPAU_BLECHEVENT@@@std@@PAX@std@@@std@@@std@@QAEPAU?$_Tree_node@U?$pair@$$CBIPAU_BLECHEVENT@@@std@@PAX@2@I@Z 03008d60 f i MQ2ChatHook.obj
 0001:00007da0       ?allocate@?$allocator@U?$_Tree_node@U?$pair@$$CBIPAU_BLECHEVENT@@@std@@PAX@std@@@std@@QAEPAU?$_Tree_node@U?$pair@$$CBIPAU_BLECHEVENT@@@std@@PAX@2@I@Z 03008da0 f i MQ2ChatHook.obj
 0001:00007de0       ?begin@?$_Tree@V?$_Tmap_traits@IPAU_BLECHEVENT@@U?$less@I@std@@V?$allocator@U?$pair@$$CBIPAU_BLECHEVENT@@@std@@@3@$0A@@std@@@std@@QAE?AV?$_Tree_iterator@V?$_Tree_val@U?$_Tree_simple_types@U?$pair@$$CBIPAU_BLECHEVENT@@@std@@@std@@@std@@@2@XZ 03008de0 f i MQ2ChatHook.obj
 0001:00007df0       ?clear@?$_Tree@V?$_Tmap_traits@IPAU_BLECHEVENT@@U?$less@I@std@@V?$allocator@U?$pair@$$CBIPAU_BLECHEVENT@@@std@@@3@$0A@@std@@@std@@QAEXXZ 03008df0 f i MQ2ChatHook.obj
 0001:00007e40       ?deallocate@?$_Wrap_alloc@V?$allocator@U?$_Tree_node@U?$pair@$$CBIPAU_BLECHEVENT@@@std@@PAX@std@@@std@@@std@@QAEXPAU?$_Tree_node@U?$pair@$$CBIPAU_BLECHEVENT@@@std@@PAX@2@I@Z 03008e40 f i MQ2ChatHook.obj
 0001:00007e60       ?deallocate@?$allocator@U?$_Tree_node@U?$pair@$$CBIPAU_BLECHEVENT@@@std@@PAX@std@@@std@@QAEXPAU?$_Tree_node@U?$pair@$$CBIPAU_BLECHEVENT@@@std@@PAX@2@I@Z 03008e60 f i MQ2ChatHook.obj
 0001:00007e80       ?end@?$_Tree@V?$_Tmap_traits@IPAU_BLECHEVENT@@U?$less@I@std@@V?$allocator@U?$pair@$$CBIPAU_BLECHEVENT@@@std@@@3@$0A@@std@@@std@@QAE?AV?$_Tree_iterator@V?$_Tree_val@U?$_Tree_simple_types@U?$pair@$$CBIPAU_BLECHEVENT@@@std@@@std@@@std@@@2@XZ 03008e80 f i MQ2ChatHook.obj
 0001:00007e90       ?erase@?$_Tree@V?$_Tmap_traits@IPAU_BLECHEVENT@@U?$less@I@std@@V?$allocator@U?$pair@$$CBIPAU_BLECHEVENT@@@std@@@3@$0A@@std@@@std@@QAE?AV?$_Tree_iterator@V?$_Tree_val@U?$_Tree_simple_types@U?$pair@$$CBIPAU_BLECHEVENT@@@std@@@std@@@std@@@2@V?$_Tree_const_iterator@V?$_Tree_val@U?$_Tree_simple_types@U?$pair@$$CBIPAU_BLECHEVENT@@@std@@@std@@@std@@@2@0@Z 03008e90 f i MQ2ChatHook.obj
 0001:00007f30       ?erase@?$_Tree@V?$_Tmap_traits@IPAU_BLECHEVENT@@U?$less@I@std@@V?$allocator@U?$pair@$$CBIPAU_BLECHEVENT@@@std@@@3@$0A@@std@@@std@@QAE?AV?$_Tree_iterator@V?$_Tree_val@U?$_Tree_simple_types@U?$pair@$$CBIPAU_BLECHEVENT@@@std@@@std@@@std@@@2@V?$_Tree_const_iterator@V?$_Tree_val@U?$_Tree_simple_types@U?$pair@$$CBIPAU_BLECHEVENT@@@std@@@std@@@std@@@2@@Z 03008f30 f i MQ2ChatHook.obj
 0001:000081a0       ?pointer_to@?$pointer_traits@PAU?$pair@$$CBIPAU_BLECHEVENT@@@std@@@std@@SAPAU?$pair@$$CBIPAU_BLECHEVENT@@@2@AAU32@@Z 030091a0 f i MQ2ChatHook.obj
 0001:000081b0       ?strstr@@YAPADPADPBD@Z     030091b0 f i MQ2ChatHook.obj
 0001:000081c0       _InitializeDisplayHook     030091c0 f   MQ2CleanUI.obj
 0001:00008250       _ShutdownDisplayHook       03009250 f   MQ2CleanUI.obj
 0001:00008290       _DrawHUD                   03009290 f   MQ2CleanUI.obj
 0001:00008340       _DrawHUDText               03009340 f   MQ2CleanUI.obj
 0001:000083d0       ?CleanUI_Trampoline@CDisplayHook@@QAEXXZ 030093d0 f   MQ2CleanUI.obj
 0001:000083f0       ?ReloadUI_Trampoline@CDisplayHook@@QAEXH@Z 030093f0 f   MQ2CleanUI.obj
 0001:00008410       ?DrawHUD_Trampoline@@YAKKKKK@Z 03009410 f   MQ2CleanUI.obj
 0001:00008430       ?DrawHUD_Detour@@YAKKKKK@Z 03009430 f   MQ2CleanUI.obj
 0001:000084c0       ?SetProgressBar_Trampoline@EQ_LoadingSHook@@QAEXHPBD@Z 030094c0 f   MQ2CleanUI.obj
 0001:000084e0       ?CleanUI_Detour@CDisplayHook@@QAEXXZ 030094e0 f i MQ2CleanUI.obj
 0001:00008510       ?ReloadUI_Detour@CDisplayHook@@QAEXH@Z 03009510 f i MQ2CleanUI.obj
 0001:00008540       ?SetProgressBar_Detour@EQ_LoadingSHook@@QAEXHPBD@Z 03009540 f i MQ2CleanUI.obj
 0001:00008570       _InitializeMQ2Commands     03009570 f   MQ2CommandAPI.obj
 0001:00009900       _ShutdownMQ2Commands       0300a900 f   MQ2CommandAPI.obj
 0001:000099e0       _AddCommand                0300a9e0 f   MQ2CommandAPI.obj
 0001:00009aa0       _AddAlias                  0300aaa0 f   MQ2CommandAPI.obj
 0001:00009c50       _RemoveAlias               0300ac50 f   MQ2CommandAPI.obj
 0001:00009cc0       _AddSubstitute             0300acc0 f   MQ2CommandAPI.obj
 0001:00009e70       _RemoveSubstitute          0300ae70 f   MQ2CommandAPI.obj
 0001:00009ee0       _RemoveCommand             0300aee0 f   MQ2CommandAPI.obj
 0001:00009f70       _DoTimedCommands           0300af70 f   MQ2CommandAPI.obj
 0001:00009fd0       _TimedCommand              0300afd0 f   MQ2CommandAPI.obj
 0001:0000a060       _HideDoCommand             0300b060 f   MQ2CommandAPI.obj
 0001:0000a4b0       ?Trampoline@CCommandHook@@QAEXPAU_SPAWNINFO@EQData@@PAD@Z 0300b4b0 f   MQ2CommandAPI.obj
 0001:0000a4d0       ??4?$basic_string@DU?$char_traits@D@std@@V?$allocator@D@2@@std@@QAEAAV01@PBD@Z 0300b4d0 f i MQ2CommandAPI.obj
 0001:0000a510       ?Detour@CCommandHook@@QAEXPAU_SPAWNINFO@EQData@@PAD@Z 0300b510 f i MQ2CommandAPI.obj
 0001:0000aa90       ?c_str@?$basic_string@DU?$char_traits@D@std@@V?$allocator@D@2@@std@@QBEPBDXZ 0300ba90 f i MQ2CommandAPI.obj
 0001:0000aaa0       ?replace@?$basic_string@DU?$char_traits@D@std@@V?$allocator@D@2@@std@@QAEAAV12@IIABV12@II@Z 0300baa0 f i MQ2CommandAPI.obj
 0001:0000adf0       ?replace@?$basic_string@DU?$char_traits@D@std@@V?$allocator@D@2@@std@@QAEAAV12@IIPBD@Z 0300bdf0 f i MQ2CommandAPI.obj
 0001:0000ae40       ?replace@?$basic_string@DU?$char_traits@D@std@@V?$allocator@D@2@@std@@QAEAAV12@IIPBDI@Z 0300be40 f i MQ2CommandAPI.obj
 0001:0000aff0       _Echo                      0300bff0 f   MQ2Commands.obj
 0001:0000b270       _NoModKeyCmd               0300c270 f   MQ2Commands.obj
 0001:0000b2c0       _NoParseCmd                0300c2c0 f   MQ2Commands.obj
 0001:0000b300       _CaptionCmd                0300c300 f   MQ2Commands.obj
 0001:0000b6b0       _HudCmd                    0300c6b0 f   MQ2Commands.obj
 0001:0000b7b0       _DropCmd                   0300c7b0 f   MQ2Commands.obj
 0001:0000b800       _CombineCmd                0300c800 f   MQ2Commands.obj
 0001:0000b860       _ClearErrorsCmd            0300c860 f   MQ2Commands.obj
 0001:0000b880       _DoTimedCmd                0300c880 f   MQ2Commands.obj
 0001:0000b910       _DoShiftCmd                0300c910 f   MQ2Commands.obj
 0001:0000b970       _DoCtrlCmd                 0300c970 f   MQ2Commands.obj
 0001:0000b9c0       _DoAltCmd                  0300c9c0 f   MQ2Commands.obj
 0001:0000ba10       _DoCommandCmd              0300ca10 f   MQ2Commands.obj
 0001:0000ba40       _SquelchCommand            0300ca40 f   MQ2Commands.obj
 0001:0000ba90       _DumpBindsCommand          0300ca90 f   MQ2Commands.obj
 0001:0000baf0       _LoadCfgCommand            0300caf0 f   MQ2Commands.obj
 0001:0000bb30       _do_ranged                 0300cb30 f   MQ2Commands.obj
 0001:0000bb90       _DoMappable                0300cb90 f   MQ2Commands.obj
 0001:0000bd80       _MultilineCommand          0300cd80 f   MQ2Commands.obj
 0001:0000be70       _PluginCommand             0300ce70 f   MQ2Commands.obj
 0001:0000c0d0       _Alert                     0300d0d0 f   MQ2Commands.obj
 0001:0000c580       _Alias                     0300d580 f   MQ2Commands.obj
 0001:0000c7d0       _AltAbility                0300d7d0 f   MQ2Commands.obj
 0001:0000cee0       _BankList                  0300dee0 f   MQ2Commands.obj
 0001:0000d080       _BuyItem                   0300e080 f   MQ2Commands.obj
 0001:0000d120       _CharInfo                  0300e120 f   MQ2Commands.obj
 0001:0000d200       _Cast                      0300e200 f   MQ2Commands.obj
 0001:0000d560       _DebugSpewFile             0300e560 f   MQ2Commands.obj
 0001:0000d630       _EQDestroyHeldItemOrMoney  0300e630 f   MQ2Commands.obj
 0001:0000d640       _DisplayLoginName          0300e640 f   MQ2Commands.obj
 0001:0000d680       _DoAbility                 0300e680 f   MQ2Commands.obj
 0001:0000da40       _DoSocial                  0300ea40 f   MQ2Commands.obj
 0001:0000dcb0       _Doors                     0300ecb0 f   MQ2Commands.obj
 0001:0000df10       _DoorTarget                0300ef10 f   MQ2Commands.obj
 0001:0000e360       _Exec                      0300f360 f   MQ2Commands.obj
 0001:0000e5b0       _Face                      0300f5b0 f   MQ2Commands.obj
 0001:0000ee50       _Filter                    0300fe50 f   MQ2Commands.obj
 0001:0000fda0       _Help                      03010da0 f   MQ2Commands.obj
 0001:0000ff20       _Identify                  03010f20 f   MQ2Commands.obj
 0001:00010a50       _IniOutput                 03011a50 f   MQ2Commands.obj
 0001:00010cb0       _Items                     03011cb0 f   MQ2Commands.obj
 0001:00010f10       _ItemTarget                03011f10 f   MQ2Commands.obj
 0001:00011240       _KeepKeys                  03012240 f   MQ2Commands.obj
 0001:000113a0       _WindowState               030123a0 f   MQ2Commands.obj
 0001:00011570       _ListMacros                03012570 f   MQ2Commands.obj
 0001:000117d0       _LoadSpells                030127d0 f   MQ2Commands.obj
 0001:00011a90       _Location                  03012a90 f   MQ2Commands.obj
 0001:00011b70       _Look                      03012b70 f   MQ2Commands.obj
 0001:00011c20       _LootAll                   03012c20 f   MQ2Commands.obj
 0001:00011c40       _MacroBeep                 03012c40 f   MQ2Commands.obj
 0001:00011cc0       _MacroLog                  03012cc0 f   MQ2Commands.obj
 0001:00011ea0       _MacroPause                03012ea0 f   MQ2Commands.obj
 0001:00012100       _MemSpell                  03013100 f   MQ2Commands.obj
 0001:000122d0       _MQMsgBox                  030132d0 f   MQ2Commands.obj
 0001:00012350       _SellItem                  03013350 f   MQ2Commands.obj
 0001:000123f0       _SetAutoRun                030133f0 f   MQ2Commands.obj
 0001:00012490       _SetError                  03013490 f   MQ2Commands.obj
 0001:000124e0       _Skills                    030134e0 f   MQ2Commands.obj
 0001:000126f0       _Substitute                030136f0 f   MQ2Commands.obj
 0001:00012940       _SuperWho                  03013940 f   MQ2Commands.obj
 0001:00012c00       _SuperWhoTarget            03013c00 f   MQ2Commands.obj
 0001:00012c80       _SWhoFilter                03013c80 f   MQ2Commands.obj
 0001:00013130       _Target                    03014130 f   MQ2Commands.obj
 0001:00013470       _Unload                    03014470 f   MQ2Commands.obj
 0001:000134c0       _UpdateItemInfo            030144c0 f   MQ2Commands.obj
 0001:00013a30       _Where                     03014a30 f   MQ2Commands.obj
 0001:00013d20       _PopupText                 03014d20 f   MQ2Commands.obj
 0001:00013d50       _PluginCmdSort             03014d50 f   MQ2Commands.obj
 0001:00013da0       ?CmdCmd@@YAXPAU_SPAWNINFO@EQData@@PAD@Z 03014da0 f   MQ2Commands.obj
 0001:00013db0       ??$?0$$QAV?$basic_string@DU?$char_traits@D@std@@V?$allocator@D@2@@std@@$$$V@?$pair@$$CBV?$basic_string@DU?$char_traits@D@std@@V?$allocator@D@2@@std@@K@std@@QAE@Upiecewise_construct_t@1@V?$tuple@$$QAV?$basic_string@DU?$char_traits@D@std@@V?$allocator@D@2@@std@@@1@V?$tuple@$$$V@1@@Z 03014db0 f i MQ2Commands.obj
 0001:00013e20       ??$?0$$QAV?$basic_string@DU?$char_traits@D@std@@V?$allocator@D@2@@std@@PAPAX@?$tuple@$$QAV?$basic_string@DU?$char_traits@D@std@@V?$allocator@D@2@@std@@@std@@QAE@$$QAV01@@Z 03014e20 f i MQ2Commands.obj
 0001:00013e30       ??$?0AAV?$_Tree_iterator@V?$_Tree_val@U?$_Tree_simple_types@U?$pair@$$CBV?$basic_string@DU?$char_traits@D@std@@V?$allocator@D@2@@std@@K@std@@@std@@@std@@@std@@_NX@?$pair@V?$_Tree_iterator@V?$_Tree_val@U?$_Tree_simple_types@U?$pair@$$CBV?$basic_string@DU?$char_traits@D@std@@V?$allocator@D@2@@std@@K@std@@@std@@@std@@@std@@_N@std@@QAE@AAV?$_Tree_iterator@V?$_Tree_val@U?$_Tree_simple_types@U?$pair@$$CBV?$basic_string@DU?$char_traits@D@std@@V?$allocator@D@2@@std@@K@std@@@std@@@std@@@1@$$QA_N@Z 03014e30 f i MQ2Commands.obj
 0001:00013e50       ??$?0V?$_Tree_iterator@V?$_Tree_val@U?$_Tree_simple_types@U?$pair@$$CBV?$basic_string@DU?$char_traits@D@std@@V?$allocator@D@2@@std@@K@std@@@std@@@std@@@std@@_NX@?$pair@V?$_Tree_iterator@V?$_Tree_val@U?$_Tree_simple_types@U?$pair@$$CBV?$basic_string@DU?$char_traits@D@std@@V?$allocator@D@2@@std@@K@std@@@std@@@std@@@std@@_N@std@@QAE@$$QAV?$_Tree_iterator@V?$_Tree_val@U?$_Tree_simple_types@U?$pair@$$CBV?$basic_string@DU?$char_traits@D@std@@V?$allocator@D@2@@std@@K@std@@@std@@@std@@@1@$$QA_N@Z 03014e50 f i MQ2Commands.obj
 0001:00013e70       ??$?0V?$basic_string@DU?$char_traits@D@std@@V?$allocator@D@2@@std@@$$$VPAPAX@?$tuple@$$QAV?$basic_string@DU?$char_traits@D@std@@V?$allocator@D@2@@std@@@std@@QAE@$$QAV?$basic_string@DU?$char_traits@D@std@@V?$allocator@D@2@@1@@Z 03014e70 f i MQ2Commands.obj
 0001:00013e80       ??$?0V?$basic_string@DU?$char_traits@D@std@@V?$allocator@D@2@@std@@@?$_Tuple_val@$$QAV?$basic_string@DU?$char_traits@D@std@@V?$allocator@D@2@@std@@@std@@QAE@$$QAV?$basic_string@DU?$char_traits@D@std@@V?$allocator@D@2@@1@@Z 03014e80 f i MQ2Commands.obj
 0001:00013e90       ??$?0V?$tuple@$$QAV?$basic_string@DU?$char_traits@D@std@@V?$allocator@D@2@@std@@@std@@V?$tuple@$$$V@1@$0A@$S@?$pair@$$CBV?$basic_string@DU?$char_traits@D@std@@V?$allocator@D@2@@std@@K@std@@QAE@AAV?$tuple@$$QAV?$basic_string@DU?$char_traits@D@std@@V?$allocator@D@2@@std@@@1@AAV?$tuple@$$$V@1@U?$_Arg_idx@$0A@@1@U?$_Arg_idx@$S@1@@Z 03014e90 f i MQ2Commands.obj
 0001:00013f00       ??$?MDU?$char_traits@D@std@@V?$allocator@D@1@@std@@YA_NABV?$basic_string@DU?$char_traits@D@std@@V?$allocator@D@2@@0@0@Z 03014f00 f i MQ2Commands.obj
 0001:00013f30       ??$_Allocate@U?$_Tree_node@U?$pair@$$CBV?$basic_string@DU?$char_traits@D@std@@V?$allocator@D@2@@std@@K@std@@PAX@std@@@std@@YAPAU?$_Tree_node@U?$pair@$$CBV?$basic_string@DU?$char_traits@D@std@@V?$allocator@D@2@@std@@K@std@@PAX@0@IPAU10@@Z 03014f30 f i MQ2Commands.obj
 0001:00013f60       ??$_Buynode@ABUpiecewise_construct_t@std@@V?$tuple@$$QAV?$basic_string@DU?$char_traits@D@std@@V?$allocator@D@2@@std@@@2@V?$tuple@$$$V@2@@?$_Tree_buy@U?$pair@$$CBV?$basic_string@DU?$char_traits@D@std@@V?$allocator@D@2@@std@@K@std@@V?$allocator@U?$pair@$$CBV?$basic_string@DU?$char_traits@D@std@@V?$allocator@D@2@@std@@K@std@@@2@@std@@QAEPAU?$_Tree_node@U?$pair@$$CBV?$basic_string@DU?$char_traits@D@std@@V?$allocator@D@2@@std@@K@std@@PAX@1@ABUpiecewise_construct_t@1@$$QAV?$tuple@$$QAV?$basic_string@DU?$char_traits@D@std@@V?$allocator@D@2@@std@@@1@$$QAV?$tuple@$$$V@1@@Z 03014f60 f i MQ2Commands.obj
 0001:00013fe0       ??$_Buynode_if_nil@AAU?$pair@$$CBV?$basic_string@DU?$char_traits@D@std@@V?$allocator@D@2@@std@@K@std@@@?$_Tree@V?$_Tmap_traits@V?$basic_string@DU?$char_traits@D@std@@V?$allocator@D@2@@std@@KU?$less@V?$basic_string@DU?$char_traits@D@std@@V?$allocator@D@2@@std@@@2@V?$allocator@U?$pair@$$CBV?$basic_string@DU?$char_traits@D@std@@V?$allocator@D@2@@std@@K@std@@@2@$0A@@std@@@std@@IAEPAU?$_Tree_node@U?$pair@$$CBV?$basic_string@DU?$char_traits@D@std@@V?$allocator@D@2@@std@@K@std@@PAX@1@PAU21@AAU?$pair@$$CBV?$basic_string@DU?$char_traits@D@std@@V?$allocator@D@2@@std@@K@1@@Z 03014fe0 f i MQ2Commands.obj
 0001:00013ff0       ??$_Insert_at@AAU?$pair@$$CBV?$basic_string@DU?$char_traits@D@std@@V?$allocator@D@2@@std@@K@std@@PAU?$_Tree_node@U?$pair@$$CBV?$basic_string@DU?$char_traits@D@std@@V?$allocator@D@2@@std@@K@std@@PAX@2@@?$_Tree@V?$_Tmap_traits@V?$basic_string@DU?$char_traits@D@std@@V?$allocator@D@2@@std@@KU?$less@V?$basic_string@DU?$char_traits@D@std@@V?$allocator@D@2@@std@@@2@V?$allocator@U?$pair@$$CBV?$basic_string@DU?$char_traits@D@std@@V?$allocator@D@2@@std@@K@std@@@2@$0A@@std@@@std@@IAE?AV?$_Tree_iterator@V?$_Tree_val@U?$_Tree_simple_types@U?$pair@$$CBV?$basic_string@DU?$char_traits@D@std@@V?$allocator@D@2@@std@@K@std@@@std@@@std@@@1@_NPAU?$_Tree_node@U?$pair@$$CBV?$basic_string@DU?$char_traits@D@std@@V?$allocator@D@2@@std@@K@std@@PAX@1@AAU?$pair@$$CBV?$basic_string@DU?$char_traits@D@std@@V?$allocator@D@2@@std@@K@1@1@Z 03014ff0 f i MQ2Commands.obj
 0001:00014230       ??$_Insert_hint@AAU?$pair@$$CBV?$basic_string@DU?$char_traits@D@std@@V?$allocator@D@2@@std@@K@std@@PAU?$_Tree_node@U?$pair@$$CBV?$basic_string@DU?$char_traits@D@std@@V?$allocator@D@2@@std@@K@std@@PAX@2@@?$_Tree@V?$_Tmap_traits@V?$basic_string@DU?$char_traits@D@std@@V?$allocator@D@2@@std@@KU?$less@V?$basic_string@DU?$char_traits@D@std@@V?$allocator@D@2@@std@@@2@V?$allocator@U?$pair@$$CBV?$basic_string@DU?$char_traits@D@std@@V?$allocator@D@2@@std@@K@std@@@2@$0A@@std@@@std@@IAE?AV?$_Tree_iterator@V?$_Tree_val@U?$_Tree_simple_types@U?$pair@$$CBV?$basic_string@DU?$char_traits@D@std@@V?$allocator@D@2@@std@@K@std@@@std@@@std@@@1@V?$_Tree_const_iterator@V?$_Tree_val@U?$_Tree_simple_types@U?$pair@$$CBV?$basic_string@DU?$char_traits@D@std@@V?$allocator@D@2@@std@@K@std@@@std@@@std@@@1@AAU?$pair@$$CBV?$basic_string@DU?$char_traits@D@std@@V?$allocator@D@2@@std@@K@1@PAU?$_Tree_node@U?$pair@$$CBV?$basic_string@DU?$char_traits@D@std@@V?$allocator@D@2@@std@@K@std@@PAX@1@@Z 03015230 f i MQ2Commands.obj
 0001:000143e0       ??$_Insert_nohint@AAU?$pair@$$CBV?$basic_string@DU?$char_traits@D@std@@V?$allocator@D@2@@std@@K@std@@PAU?$_Tree_node@U?$pair@$$CBV?$basic_string@DU?$char_traits@D@std@@V?$allocator@D@2@@std@@K@std@@PAX@2@@?$_Tree@V?$_Tmap_traits@V?$basic_string@DU?$char_traits@D@std@@V?$allocator@D@2@@std@@KU?$less@V?$basic_string@DU?$char_traits@D@std@@V?$allocator@D@2@@std@@@2@V?$allocator@U?$pair@$$CBV?$basic_string@DU?$char_traits@D@std@@V?$allocator@D@2@@std@@K@std@@@2@$0A@@std@@@std@@IAE?AU?$pair@V?$_Tree_iterator@V?$_Tree_val@U?$_Tree_simple_types@U?$pair@$$CBV?$basic_string@DU?$char_traits@D@std@@V?$allocator@D@2@@std@@K@std@@@std@@@std@@@std@@_N@1@_NAAU?$pair@$$CBV?$basic_string@DU?$char_traits@D@std@@V?$allocator@D@2@@std@@K@1@PAU?$_Tree_node@U?$pair@$$CBV?$basic_string@DU?$char_traits@D@std@@V?$allocator@D@2@@std@@K@std@@PAX@1@@Z 030153e0 f i MQ2Commands.obj
 0001:000144f0       ??$_Kfn@$$CBV?$basic_string@DU?$char_traits@D@std@@V?$allocator@D@2@@std@@K@?$_Tmap_traits@V?$basic_string@DU?$char_traits@D@std@@V?$allocator@D@2@@std@@KU?$less@V?$basic_string@DU?$char_traits@D@std@@V?$allocator@D@2@@std@@@2@V?$allocator@U?$pair@$$CBV?$basic_string@DU?$char_traits@D@std@@V?$allocator@D@2@@std@@K@std@@@2@$0A@@std@@SAABV?$basic_string@DU?$char_traits@D@std@@V?$allocator@D@2@@1@ABU?$pair@$$CBV?$basic_string@DU?$char_traits@D@std@@V?$allocator@D@2@@std@@K@1@@Z 030154f0 f i MQ2Commands.obj
 0001:00014500       ??$addressof@PAU?$_Tree_node@U?$pair@$$CBV?$basic_string@DU?$char_traits@D@std@@V?$allocator@D@2@@std@@K@std@@PAX@std@@@std@@YAPAPAU?$_Tree_node@U?$pair@$$CBV?$basic_string@DU?$char_traits@D@std@@V?$allocator@D@2@@std@@K@std@@PAX@0@AAPAU10@@Z 03015500 f i MQ2Commands.obj
 0001:00014510       ??$addressof@U?$pair@$$CBV?$basic_string@DU?$char_traits@D@std@@V?$allocator@D@2@@std@@K@std@@@std@@YAPAU?$pair@$$CBV?$basic_string@DU?$char_traits@D@std@@V?$allocator@D@2@@std@@K@0@AAU10@@Z 03015510 f i MQ2Commands.obj
 0001:00014520       ??$construct@PAU?$_Tree_node@U?$pair@$$CBV?$basic_string@DU?$char_traits@D@std@@V?$allocator@D@2@@std@@K@std@@PAX@std@@AAPAU12@@?$_Wrap_alloc@V?$allocator@U?$_Tree_node@U?$pair@$$CBV?$basic_string@DU?$char_traits@D@std@@V?$allocator@D@2@@std@@K@std@@PAX@std@@@std@@@std@@QAEXPAPAU?$_Tree_node@U?$pair@$$CBV?$basic_string@DU?$char_traits@D@std@@V?$allocator@D@2@@std@@K@std@@PAX@1@AAPAU21@@Z 03015520 f i MQ2Commands.obj
 0001:00014540       ??$construct@PAU?$_Tree_node@U?$pair@$$CBV?$basic_string@DU?$char_traits@D@std@@V?$allocator@D@2@@std@@K@std@@PAX@std@@AAPAU12@@?$allocator@U?$_Tree_node@U?$pair@$$CBV?$basic_string@DU?$char_traits@D@std@@V?$allocator@D@2@@std@@K@std@@PAX@std@@@std@@QAEXPAPAU?$_Tree_node@U?$pair@$$CBV?$basic_string@DU?$char_traits@D@std@@V?$allocator@D@2@@std@@K@std@@PAX@1@AAPAU21@@Z 03015540 f i MQ2Commands.obj
 0001:00014560       ??$construct@PAU?$_Tree_node@U?$pair@$$CBV?$basic_string@DU?$char_traits@D@std@@V?$allocator@D@2@@std@@K@std@@PAX@std@@AAPAU12@@?$allocator_traits@V?$allocator@U?$_Tree_node@U?$pair@$$CBV?$basic_string@DU?$char_traits@D@std@@V?$allocator@D@2@@std@@K@std@@PAX@std@@@std@@@std@@SAXAAV?$allocator@U?$_Tree_node@U?$pair@$$CBV?$basic_string@DU?$char_traits@D@std@@V?$allocator@D@2@@std@@K@std@@PAX@std@@@1@PAPAU?$_Tree_node@U?$pair@$$CBV?$basic_string@DU?$char_traits@D@std@@V?$allocator@D@2@@std@@K@std@@PAX@1@AAPAU31@@Z 03015560 f i MQ2Commands.obj
 0001:00014580       ??$construct@U?$pair@$$CBV?$basic_string@DU?$char_traits@D@std@@V?$allocator@D@2@@std@@K@std@@ABUpiecewise_construct_t@2@V?$tuple@$$QAV?$basic_string@DU?$char_traits@D@std@@V?$allocator@D@2@@std@@@2@V?$tuple@$$$V@2@@?$_Wrap_alloc@V?$allocator@U?$_Tree_node@U?$pair@$$CBV?$basic_string@DU?$char_traits@D@std@@V?$allocator@D@2@@std@@K@std@@PAX@std@@@std@@@std@@QAEXPAU?$pair@$$CBV?$basic_string@DU?$char_traits@D@std@@V?$allocator@D@2@@std@@K@1@ABUpiecewise_construct_t@1@$$QAV?$tuple@$$QAV?$basic_string@DU?$char_traits@D@std@@V?$allocator@D@2@@std@@@1@$$QAV?$tuple@$$$V@1@@Z 03015580 f i MQ2Commands.obj
 0001:000145b0       ??$construct@U?$pair@$$CBV?$basic_string@DU?$char_traits@D@std@@V?$allocator@D@2@@std@@K@std@@ABUpiecewise_construct_t@2@V?$tuple@$$QAV?$basic_string@DU?$char_traits@D@std@@V?$allocator@D@2@@std@@@2@V?$tuple@$$$V@2@@?$allocator@U?$_Tree_node@U?$pair@$$CBV?$basic_string@DU?$char_traits@D@std@@V?$allocator@D@2@@std@@K@std@@PAX@std@@@std@@QAEXPAU?$pair@$$CBV?$basic_string@DU?$char_traits@D@std@@V?$allocator@D@2@@std@@K@1@ABUpiecewise_construct_t@1@$$QAV?$tuple@$$QAV?$basic_string@DU?$char_traits@D@std@@V?$allocator@D@2@@std@@@1@$$QAV?$tuple@$$$V@1@@Z 030155b0 f i MQ2Commands.obj
 0001:000145e0       ??$construct@U?$pair@$$CBV?$basic_string@DU?$char_traits@D@std@@V?$allocator@D@2@@std@@K@std@@ABUpiecewise_construct_t@2@V?$tuple@$$QAV?$basic_string@DU?$char_traits@D@std@@V?$allocator@D@2@@std@@@2@V?$tuple@$$$V@2@@?$allocator_traits@V?$allocator@U?$_Tree_node@U?$pair@$$CBV?$basic_string@DU?$char_traits@D@std@@V?$allocator@D@2@@std@@K@std@@PAX@std@@@std@@@std@@SAXAAV?$allocator@U?$_Tree_node@U?$pair@$$CBV?$basic_string@DU?$char_traits@D@std@@V?$allocator@D@2@@std@@K@std@@PAX@std@@@1@PAU?$pair@$$CBV?$basic_string@DU?$char_traits@D@std@@V?$allocator@D@2@@std@@K@1@ABUpiecewise_construct_t@1@$$QAV?$tuple@$$QAV?$basic_string@DU?$char_traits@D@std@@V?$allocator@D@2@@std@@@1@$$QAV?$tuple@$$$V@1@@Z 030155e0 f i MQ2Commands.obj
 0001:00014610       ??$destroy@PAU?$_Tree_node@U?$pair@$$CBV?$basic_string@DU?$char_traits@D@std@@V?$allocator@D@2@@std@@K@std@@PAX@std@@@?$_Wrap_alloc@V?$allocator@U?$_Tree_node@U?$pair@$$CBV?$basic_string@DU?$char_traits@D@std@@V?$allocator@D@2@@std@@K@std@@PAX@std@@@std@@@std@@QAEXPAPAU?$_Tree_node@U?$pair@$$CBV?$basic_string@DU?$char_traits@D@std@@V?$allocator@D@2@@std@@K@std@@PAX@1@@Z 03015610 f i MQ2Commands.obj
 0001:00014620       ??$destroy@PAU?$_Tree_node@U?$pair@$$CBV?$basic_string@DU?$char_traits@D@std@@V?$allocator@D@2@@std@@K@std@@PAX@std@@@?$allocator@U?$_Tree_node@U?$pair@$$CBV?$basic_string@DU?$char_traits@D@std@@V?$allocator@D@2@@std@@K@std@@PAX@std@@@std@@QAEXPAPAU?$_Tree_node@U?$pair@$$CBV?$basic_string@DU?$char_traits@D@std@@V?$allocator@D@2@@std@@K@std@@PAX@1@@Z 03015620 f i MQ2Commands.obj
 0001:00014630       ??$destroy@PAU?$_Tree_node@U?$pair@$$CBV?$basic_string@DU?$char_traits@D@std@@V?$allocator@D@2@@std@@K@std@@PAX@std@@@?$allocator_traits@V?$allocator@U?$_Tree_node@U?$pair@$$CBV?$basic_string@DU?$char_traits@D@std@@V?$allocator@D@2@@std@@K@std@@PAX@std@@@std@@@std@@SAXAAV?$allocator@U?$_Tree_node@U?$pair@$$CBV?$basic_string@DU?$char_traits@D@std@@V?$allocator@D@2@@std@@K@std@@PAX@std@@@1@PAPAU?$_Tree_node@U?$pair@$$CBV?$basic_string@DU?$char_traits@D@std@@V?$allocator@D@2@@std@@K@std@@PAX@1@@Z 03015630 f i MQ2Commands.obj
 0001:00014640       ??$destroy@U?$pair@$$CBV?$basic_string@DU?$char_traits@D@std@@V?$allocator@D@2@@std@@K@std@@@?$_Wrap_alloc@V?$allocator@U?$_Tree_node@U?$pair@$$CBV?$basic_string@DU?$char_traits@D@std@@V?$allocator@D@2@@std@@K@std@@PAX@std@@@std@@@std@@QAEXPAU?$pair@$$CBV?$basic_string@DU?$char_traits@D@std@@V?$allocator@D@2@@std@@K@1@@Z 03015640 f i MQ2Commands.obj
 0001:00014670       ??$destroy@U?$pair@$$CBV?$basic_string@DU?$char_traits@D@std@@V?$allocator@D@2@@std@@K@std@@@?$allocator@U?$_Tree_node@U?$pair@$$CBV?$basic_string@DU?$char_traits@D@std@@V?$allocator@D@2@@std@@K@std@@PAX@std@@@std@@QAEXPAU?$pair@$$CBV?$basic_string@DU?$char_traits@D@std@@V?$allocator@D@2@@std@@K@1@@Z 03015670 f i MQ2Commands.obj
 0001:000146a0       ??$destroy@U?$pair@$$CBV?$basic_string@DU?$char_traits@D@std@@V?$allocator@D@2@@std@@K@std@@@?$allocator_traits@V?$allocator@U?$_Tree_node@U?$pair@$$CBV?$basic_string@DU?$char_traits@D@std@@V?$allocator@D@2@@std@@K@std@@PAX@std@@@std@@@std@@SAXAAV?$allocator@U?$_Tree_node@U?$pair@$$CBV?$basic_string@DU?$char_traits@D@std@@V?$allocator@D@2@@std@@K@std@@PAX@std@@@1@PAU?$pair@$$CBV?$basic_string@DU?$char_traits@D@std@@V?$allocator@D@2@@std@@K@1@@Z 030156a0 f i MQ2Commands.obj
 0001:000146d0       ??$emplace_hint@ABUpiecewise_construct_t@std@@V?$tuple@$$QAV?$basic_string@DU?$char_traits@D@std@@V?$allocator@D@2@@std@@@2@V?$tuple@$$$V@2@@?$_Tree@V?$_Tmap_traits@V?$basic_string@DU?$char_traits@D@std@@V?$allocator@D@2@@std@@KU?$less@V?$basic_string@DU?$char_traits@D@std@@V?$allocator@D@2@@std@@@2@V?$allocator@U?$pair@$$CBV?$basic_string@DU?$char_traits@D@std@@V?$allocator@D@2@@std@@K@std@@@2@$0A@@std@@@std@@QAE?AV?$_Tree_iterator@V?$_Tree_val@U?$_Tree_simple_types@U?$pair@$$CBV?$basic_string@DU?$char_traits@D@std@@V?$allocator@D@2@@std@@K@std@@@std@@@std@@@1@V?$_Tree_const_iterator@V?$_Tree_val@U?$_Tree_simple_types@U?$pair@$$CBV?$basic_string@DU?$char_traits@D@std@@V?$allocator@D@2@@std@@K@std@@@std@@@std@@@1@ABUpiecewise_construct_t@1@$$QAV?$tuple@$$QAV?$basic_string@DU?$char_traits@D@std@@V?$allocator@D@2@@std@@@1@$$QAV?$tuple@$$$V@1@@Z 030156d0 f i MQ2Commands.obj
 0001:00014700       ??$forward@$$QAV?$basic_string@DU?$char_traits@D@std@@V?$allocator@D@2@@std@@@std@@YA$$QAV?$basic_string@DU?$char_traits@D@std@@V?$allocator@D@2@@0@AAV10@@Z 03015700 f i MQ2Commands.obj
 0001:00014710       ??$forward@AAPAU?$_Tree_node@U?$pair@$$CBV?$basic_string@DU?$char_traits@D@std@@V?$allocator@D@2@@std@@K@std@@PAX@std@@@std@@YAAAPAU?$_Tree_node@U?$pair@$$CBV?$basic_string@DU?$char_traits@D@std@@V?$allocator@D@2@@std@@K@std@@PAX@0@AAPAU10@@Z 03015710 f i MQ2Commands.obj
 0001:00014720       ??$forward@AAU?$pair@$$CBV?$basic_string@DU?$char_traits@D@std@@V?$allocator@D@2@@std@@K@std@@@std@@YAAAU?$pair@$$CBV?$basic_string@DU?$char_traits@D@std@@V?$allocator@D@2@@std@@K@0@AAU10@@Z 03015720 f i MQ2Commands.obj
 0001:00014730       ??$forward@AAV?$_Tree_iterator@V?$_Tree_val@U?$_Tree_simple_types@U?$pair@$$CBV?$basic_string@DU?$char_traits@D@std@@V?$allocator@D@2@@std@@K@std@@@std@@@std@@@std@@@std@@YAAAV?$_Tree_iterator@V?$_Tree_val@U?$_Tree_simple_types@U?$pair@$$CBV?$basic_string@DU?$char_traits@D@std@@V?$allocator@D@2@@std@@K@std@@@std@@@std@@@0@AAV10@@Z 03015730 f i MQ2Commands.obj
 0001:00014740       ??$forward@ABUpiecewise_construct_t@std@@@std@@YAABUpiecewise_construct_t@0@ABU10@@Z 03015740 f i MQ2Commands.obj
 0001:00014750       ??$forward@V?$_Tree_iterator@V?$_Tree_val@U?$_Tree_simple_types@U?$pair@$$CBV?$basic_string@DU?$char_traits@D@std@@V?$allocator@D@2@@std@@K@std@@@std@@@std@@@std@@@std@@YA$$QAV?$_Tree_iterator@V?$_Tree_val@U?$_Tree_simple_types@U?$pair@$$CBV?$basic_string@DU?$char_traits@D@std@@V?$allocator@D@2@@std@@K@std@@@std@@@std@@@0@AAV10@@Z 03015750 f i MQ2Commands.obj
 0001:00014760       ??$forward@V?$basic_string@DU?$char_traits@D@std@@V?$allocator@D@2@@std@@@std@@YA$$QAV?$basic_string@DU?$char_traits@D@std@@V?$allocator@D@2@@0@AAV10@@Z 03015760 f i MQ2Commands.obj
 0001:00014770       ??$forward@V?$tuple@$$$V@std@@@std@@YA$$QAV?$tuple@$$$V@0@AAV10@@Z 03015770 f i MQ2Commands.obj
 0001:00014780       ??$forward@V?$tuple@$$QAV?$basic_string@DU?$char_traits@D@std@@V?$allocator@D@2@@std@@@std@@@std@@YA$$QAV?$tuple@$$QAV?$basic_string@DU?$char_traits@D@std@@V?$allocator@D@2@@std@@@0@AAV10@@Z 03015780 f i MQ2Commands.obj
 0001:00014790       ??$forward@_N@std@@YA$$QA_NAA_N@Z 03015790 f i MQ2Commands.obj
 0001:000147a0       ??$forward_as_tuple@V?$basic_string@DU?$char_traits@D@std@@V?$allocator@D@2@@std@@@std@@YA?AV?$tuple@$$QAV?$basic_string@DU?$char_traits@D@std@@V?$allocator@D@2@@std@@@0@$$QAV?$basic_string@DU?$char_traits@D@std@@V?$allocator@D@2@@0@@Z 030157a0 f i MQ2Commands.obj
 0001:000147b0       ??$get@$0A@$$QAV?$basic_string@DU?$char_traits@D@std@@V?$allocator@D@2@@std@@@std@@YA$$QAV?$basic_string@DU?$char_traits@D@std@@V?$allocator@D@2@@0@$$QAV?$tuple@$$QAV?$basic_string@DU?$char_traits@D@std@@V?$allocator@D@2@@std@@@0@@Z 030157b0 f i MQ2Commands.obj
 0001:000147c0       ??$move@AAV?$basic_string@DU?$char_traits@D@std@@V?$allocator@D@2@@std@@@std@@YA$$QAV?$basic_string@DU?$char_traits@D@std@@V?$allocator@D@2@@0@AAV10@@Z 030157c0 f i MQ2Commands.obj
 0001:000147d0       ??$move@AAV?$tuple@$$QAV?$basic_string@DU?$char_traits@D@std@@V?$allocator@D@2@@std@@@std@@@std@@YA$$QAV?$tuple@$$QAV?$basic_string@DU?$char_traits@D@std@@V?$allocator@D@2@@std@@@0@AAV10@@Z 030157d0 f i MQ2Commands.obj
 0001:000147e0       ??0?$CIndex@PAU_MQ2TypeMember@MQ2Internal@@@MQ2Internal@@QAE@XZ 030157e0 f i MQ2Commands.obj
 0001:00014800       ??0?$_Tree@V?$_Tmap_traits@V?$basic_string@DU?$char_traits@D@std@@V?$allocator@D@2@@std@@KU?$less@V?$basic_string@DU?$char_traits@D@std@@V?$allocator@D@2@@std@@@2@V?$allocator@U?$pair@$$CBV?$basic_string@DU?$char_traits@D@std@@V?$allocator@D@2@@std@@K@std@@@2@$0A@@std@@@std@@QAE@ABU?$less@V?$basic_string@DU?$char_traits@D@std@@V?$allocator@D@2@@std@@@1@ABV?$allocator@U?$pair@$$CBV?$basic_string@DU?$char_traits@D@std@@V?$allocator@D@2@@std@@K@std@@@1@@Z 03015800 f i MQ2Commands.obj
 0001:00014820       ??0?$_Tree_alloc@$0A@U?$_Tree_base_types@U?$pair@$$CBV?$basic_string@DU?$char_traits@D@std@@V?$allocator@D@2@@std@@K@std@@V?$allocator@U?$pair@$$CBV?$basic_string@DU?$char_traits@D@std@@V?$allocator@D@2@@std@@K@std@@@2@@std@@@std@@QAE@ABV?$allocator@U?$pair@$$CBV?$basic_string@DU?$char_traits@D@std@@V?$allocator@D@2@@std@@K@std@@@1@@Z 03015820 f i MQ2Commands.obj
 0001:00014840       ??0?$_Tree_buy@U?$pair@$$CBV?$basic_string@DU?$char_traits@D@std@@V?$allocator@D@2@@std@@K@std@@V?$allocator@U?$pair@$$CBV?$basic_string@DU?$char_traits@D@std@@V?$allocator@D@2@@std@@K@std@@@2@@std@@QAE@ABV?$allocator@U?$pair@$$CBV?$basic_string@DU?$char_traits@D@std@@V?$allocator@D@2@@std@@K@std@@@1@@Z 03015840 f i MQ2Commands.obj
 0001:00014860       ??0?$_Tree_comp@$0A@V?$_Tmap_traits@V?$basic_string@DU?$char_traits@D@std@@V?$allocator@D@2@@std@@KU?$less@V?$basic_string@DU?$char_traits@D@std@@V?$allocator@D@2@@std@@@2@V?$allocator@U?$pair@$$CBV?$basic_string@DU?$char_traits@D@std@@V?$allocator@D@2@@std@@K@std@@@2@$0A@@std@@@std@@QAE@ABU?$less@V?$basic_string@DU?$char_traits@D@std@@V?$allocator@D@2@@std@@@1@ABV?$allocator@U?$pair@$$CBV?$basic_string@DU?$char_traits@D@std@@V?$allocator@D@2@@std@@K@std@@@1@@Z 03015860 f i MQ2Commands.obj
 0001:00014880       ??0?$_Tree_const_iterator@V?$_Tree_val@U?$_Tree_simple_types@U?$pair@$$CBV?$basic_string@DU?$char_traits@D@std@@V?$allocator@D@2@@std@@K@std@@@std@@@std@@@std@@QAE@PAU?$_Tree_node@U?$pair@$$CBV?$basic_string@DU?$char_traits@D@std@@V?$allocator@D@2@@std@@K@std@@PAX@1@PBV?$_Tree_val@U?$_Tree_simple_types@U?$pair@$$CBV?$basic_string@DU?$char_traits@D@std@@V?$allocator@D@2@@std@@K@std@@@std@@@1@@Z 03015880 f i MQ2Commands.obj
 0001:00014890       ??0?$_Tree_const_iterator@V?$_Tree_val@U?$_Tree_simple_types@U?$pair@$$CBV?$basic_string@DU?$char_traits@D@std@@V?$allocator@D@2@@std@@K@std@@@std@@@std@@@std@@QAE@XZ 03015890 f i MQ2Commands.obj
 0001:000148a0       ??0?$_Tree_iterator@V?$_Tree_val@U?$_Tree_simple_types@U?$pair@$$CBV?$basic_string@DU?$char_traits@D@std@@V?$allocator@D@2@@std@@K@std@@@std@@@std@@@std@@QAE@PAU?$_Tree_node@U?$pair@$$CBV?$basic_string@DU?$char_traits@D@std@@V?$allocator@D@2@@std@@K@std@@PAX@1@PBV?$_Tree_val@U?$_Tree_simple_types@U?$pair@$$CBV?$basic_string@DU?$char_traits@D@std@@V?$allocator@D@2@@std@@K@std@@@std@@@1@@Z 030158a0 f i MQ2Commands.obj
 0001:000148b0       ??0?$_Tree_unchecked_const_iterator@V?$_Tree_val@U?$_Tree_simple_types@U?$pair@$$CBV?$basic_string@DU?$char_traits@D@std@@V?$allocator@D@2@@std@@K@std@@@std@@@std@@U_Iterator_base0@2@@std@@QAE@PAU?$_Tree_node@U?$pair@$$CBV?$basic_string@DU?$char_traits@D@std@@V?$allocator@D@2@@std@@K@std@@PAX@1@PBV?$_Tree_val@U?$_Tree_simple_types@U?$pair@$$CBV?$basic_string@DU?$char_traits@D@std@@V?$allocator@D@2@@std@@K@std@@@std@@@1@@Z 030158b0 f i MQ2Commands.obj
 0001:000148c0       ??0?$_Tree_unchecked_const_iterator@V?$_Tree_val@U?$_Tree_simple_types@U?$pair@$$CBV?$basic_string@DU?$char_traits@D@std@@V?$allocator@D@2@@std@@K@std@@@std@@@std@@U_Iterator_base0@2@@std@@QAE@XZ 030158c0 f i MQ2Commands.obj
 0001:000148d0       ??0?$_Tree_val@U?$_Tree_simple_types@U?$pair@$$CBV?$basic_string@DU?$char_traits@D@std@@V?$allocator@D@2@@std@@K@std@@@std@@@std@@QAE@XZ 030158d0 f i MQ2Commands.obj
 0001:000148e0       ??0?$_Wrap_alloc@V?$allocator@U?$_Tree_node@U?$pair@$$CBV?$basic_string@DU?$char_traits@D@std@@V?$allocator@D@2@@std@@K@std@@PAX@std@@@std@@@std@@QAE@XZ 030158e0 f i MQ2Commands.obj
 0001:000148f0       ??0?$allocator@U?$_Tree_node@U?$pair@$$CBV?$basic_string@DU?$char_traits@D@std@@V?$allocator@D@2@@std@@K@std@@PAX@std@@@std@@QAE@XZ 030158f0 f i MQ2Commands.obj
 0001:00014900       ??0?$allocator@U?$pair@$$CBV?$basic_string@DU?$char_traits@D@std@@V?$allocator@D@2@@std@@K@std@@@std@@QAE@XZ 03015900 f i MQ2Commands.obj
 0001:00014910       ??0?$basic_string@DU?$char_traits@D@std@@V?$allocator@D@2@@std@@QAE@$$QAV01@@Z 03015910 f i MQ2Commands.obj
 0001:00014980       ??0?$map@V?$basic_string@DU?$char_traits@D@std@@V?$allocator@D@2@@std@@KU?$less@V?$basic_string@DU?$char_traits@D@std@@V?$allocator@D@2@@std@@@2@V?$allocator@U?$pair@$$CBV?$basic_string@DU?$char_traits@D@std@@V?$allocator@D@2@@std@@K@std@@@2@@std@@QAE@XZ 03015980 f i MQ2Commands.obj
 0001:000149a0       ??0?$tuple@$$$V@std@@QAE@ABV01@@Z 030159a0 f i MQ2Commands.obj
 0001:000149b0       ??0?$tuple@$$$V@std@@QAE@XZ 030159b0 f i MQ2Commands.obj
 0001:000149c0       ??0MQ2TicksType@@QAE@XZ    030159c0 f i MQ2Commands.obj
 0001:00014a50       ??0MQ2Type@MQ2Internal@@QAE@PAD@Z 03015a50 f i MQ2Commands.obj
 0001:00014ac0       ??1?$CIndex@PAU_MQ2TypeMember@MQ2Internal@@@MQ2Internal@@QAE@XZ 03015ac0 f i MQ2Commands.obj
 0001:00014b00       ??1?$_Tree@V?$_Tmap_traits@V?$basic_string@DU?$char_traits@D@std@@V?$allocator@D@2@@std@@KU?$less@V?$basic_string@DU?$char_traits@D@std@@V?$allocator@D@2@@std@@@2@V?$allocator@U?$pair@$$CBV?$basic_string@DU?$char_traits@D@std@@V?$allocator@D@2@@std@@K@std@@@2@$0A@@std@@@std@@QAE@XZ 03015b00 f i MQ2Commands.obj
 0001:00014b30       ??1?$_Tree_alloc@$0A@U?$_Tree_base_types@U?$pair@$$CBV?$basic_string@DU?$char_traits@D@std@@V?$allocator@D@2@@std@@K@std@@V?$allocator@U?$pair@$$CBV?$basic_string@DU?$char_traits@D@std@@V?$allocator@D@2@@std@@K@std@@@2@@std@@@std@@QAE@XZ 03015b30 f i MQ2Commands.obj
 0001:00014b40       ??1?$_Tree_buy@U?$pair@$$CBV?$basic_string@DU?$char_traits@D@std@@V?$allocator@D@2@@std@@K@std@@V?$allocator@U?$pair@$$CBV?$basic_string@DU?$char_traits@D@std@@V?$allocator@D@2@@std@@K@std@@@2@@std@@QAE@XZ 03015b40 f i MQ2Commands.obj
 0001:00014b50       ??1?$_Tree_comp@$0A@V?$_Tmap_traits@V?$basic_string@DU?$char_traits@D@std@@V?$allocator@D@2@@std@@KU?$less@V?$basic_string@DU?$char_traits@D@std@@V?$allocator@D@2@@std@@@2@V?$allocator@U?$pair@$$CBV?$basic_string@DU?$char_traits@D@std@@V?$allocator@D@2@@std@@K@std@@@2@$0A@@std@@@std@@QAE@XZ 03015b50 f i MQ2Commands.obj
 0001:00014b60       ??1?$map@V?$basic_string@DU?$char_traits@D@std@@V?$allocator@D@2@@std@@KU?$less@V?$basic_string@DU?$char_traits@D@std@@V?$allocator@D@2@@std@@@2@V?$allocator@U?$pair@$$CBV?$basic_string@DU?$char_traits@D@std@@V?$allocator@D@2@@std@@K@std@@@2@@std@@QAE@XZ 03015b60 f i MQ2Commands.obj
 0001:00014b90       ??1?$pair@$$CBV?$basic_string@DU?$char_traits@D@std@@V?$allocator@D@2@@std@@K@std@@QAE@XZ 03015b90 f i MQ2Commands.obj
 0001:00014bc0       ??1MQ2TicksType@@QAE@XZ    03015bc0 f i MQ2Commands.obj
 0001:00014bd0       ??1MQ2Type@MQ2Internal@@QAE@XZ 03015bd0 f i MQ2Commands.obj
 0001:00014c70       ??8?$_Tree_const_iterator@V?$_Tree_val@U?$_Tree_simple_types@U?$pair@$$CBV?$basic_string@DU?$char_traits@D@std@@V?$allocator@D@2@@std@@K@std@@@std@@@std@@@std@@QBE_NABV01@@Z 03015c70 f i MQ2Commands.obj
 0001:00014c90       ??9?$_Tree_const_iterator@V?$_Tree_val@U?$_Tree_simple_types@U?$pair@$$CBV?$basic_string@DU?$char_traits@D@std@@V?$allocator@D@2@@std@@K@std@@@std@@@std@@@std@@QBE_NABV01@@Z 03015c90 f i MQ2Commands.obj
 0001:00014cb0       ??A?$CIndex@PAU_MQ2TypeMember@MQ2Internal@@@MQ2Internal@@QAEAAPAU_MQ2TypeMember@1@K@Z 03015cb0 f i MQ2Commands.obj
 0001:00014cc0       ??A?$map@V?$basic_string@DU?$char_traits@D@std@@V?$allocator@D@2@@std@@KU?$less@V?$basic_string@DU?$char_traits@D@std@@V?$allocator@D@2@@std@@@2@V?$allocator@U?$pair@$$CBV?$basic_string@DU?$char_traits@D@std@@V?$allocator@D@2@@std@@K@std@@@2@@std@@QAEAAK$$QAV?$basic_string@DU?$char_traits@D@std@@V?$allocator@D@2@@1@@Z 03015cc0 f i MQ2Commands.obj
 0001:00014d40       ??C?$_Tree_iterator@V?$_Tree_val@U?$_Tree_simple_types@U?$pair@$$CBV?$basic_string@DU?$char_traits@D@std@@V?$allocator@D@2@@std@@K@std@@@std@@@std@@@std@@QBEPAU?$pair@$$CBV?$basic_string@DU?$char_traits@D@std@@V?$allocator@D@2@@std@@K@1@XZ 03015d40 f i MQ2Commands.obj
 0001:00014d50       ??D?$_Tree_const_iterator@V?$_Tree_val@U?$_Tree_simple_types@U?$pair@$$CBV?$basic_string@DU?$char_traits@D@std@@V?$allocator@D@2@@std@@K@std@@@std@@@std@@@std@@QBEABU?$pair@$$CBV?$basic_string@DU?$char_traits@D@std@@V?$allocator@D@2@@std@@K@1@XZ 03015d50 f i MQ2Commands.obj
 0001:00014d60       ??D?$_Tree_iterator@V?$_Tree_val@U?$_Tree_simple_types@U?$pair@$$CBV?$basic_string@DU?$char_traits@D@std@@V?$allocator@D@2@@std@@K@std@@@std@@@std@@@std@@QBEAAU?$pair@$$CBV?$basic_string@DU?$char_traits@D@std@@V?$allocator@D@2@@std@@K@1@XZ 03015d60 f i MQ2Commands.obj
 0001:00014d70       ??E?$_Tree_const_iterator@V?$_Tree_val@U?$_Tree_simple_types@U?$pair@$$CBV?$basic_string@DU?$char_traits@D@std@@V?$allocator@D@2@@std@@K@std@@@std@@@std@@@std@@QAE?AV01@H@Z 03015d70 f i MQ2Commands.obj
 0001:00014d90       ??E?$_Tree_const_iterator@V?$_Tree_val@U?$_Tree_simple_types@U?$pair@$$CBV?$basic_string@DU?$char_traits@D@std@@V?$allocator@D@2@@std@@K@std@@@std@@@std@@@std@@QAEAAV01@XZ 03015d90 f i MQ2Commands.obj
 0001:00014da0       ??E?$_Tree_unchecked_const_iterator@V?$_Tree_val@U?$_Tree_simple_types@U?$pair@$$CBV?$basic_string@DU?$char_traits@D@std@@V?$allocator@D@2@@std@@K@std@@@std@@@std@@U_Iterator_base0@2@@std@@QAEAAV01@XZ 03015da0 f i MQ2Commands.obj
 0001:00014df0       ??F?$_Tree_const_iterator@V?$_Tree_val@U?$_Tree_simple_types@U?$pair@$$CBV?$basic_string@DU?$char_traits@D@std@@V?$allocator@D@2@@std@@K@std@@@std@@@std@@@std@@QAEAAV01@XZ 03015df0 f i MQ2Commands.obj
 0001:00014e00       ??F?$_Tree_iterator@V?$_Tree_val@U?$_Tree_simple_types@U?$pair@$$CBV?$basic_string@DU?$char_traits@D@std@@V?$allocator@D@2@@std@@K@std@@@std@@@std@@@std@@QAEAAV01@XZ 03015e00 f i MQ2Commands.obj
 0001:00014e10       ??F?$_Tree_unchecked_const_iterator@V?$_Tree_val@U?$_Tree_simple_types@U?$pair@$$CBV?$basic_string@DU?$char_traits@D@std@@V?$allocator@D@2@@std@@K@std@@@std@@@std@@U_Iterator_base0@2@@std@@QAEAAV01@XZ 03015e10 f i MQ2Commands.obj
 0001:00014e70       ??R?$less@V?$basic_string@DU?$char_traits@D@std@@V?$allocator@D@2@@std@@@std@@QBE_NABV?$basic_string@DU?$char_traits@D@std@@V?$allocator@D@2@@1@0@Z 03015e70 f i MQ2Commands.obj
 0001:00014ea0       ??_G?$pair@$$CBV?$basic_string@DU?$char_traits@D@std@@V?$allocator@D@2@@std@@K@std@@QAEPAXI@Z 03015ea0 f i MQ2Commands.obj
 0001:00014ee0       ?AddMember@MQ2Type@MQ2Internal@@IAEHKPAD@Z 03015ee0 f i MQ2Commands.obj
 0001:00014fe0       ?Cleanup@?$CIndex@PAU_MQ2TypeMember@MQ2Internal@@@MQ2Internal@@QAEXXZ 03015fe0 f i MQ2Commands.obj
 0001:00015020       ?FreeVariable@MQ2Type@MQ2Internal@@UAEXAAU_MQ2VarPtr@2@@Z 03016020 f i MQ2Commands.obj
 0001:00015030       ?FromData@MQ2TicksType@@UAE_NAAU_MQ2VarPtr@MQ2Internal@@AAU_MQ2TypeVar@3@@Z 03016030 f i MQ2Commands.obj
 0001:00015050       ?FromString@MQ2TicksType@@UAE_NAAU_MQ2VarPtr@MQ2Internal@@PAD@Z 03016050 f i MQ2Commands.obj
 0001:00015070       ?GetUnused@?$CIndex@PAU_MQ2TypeMember@MQ2Internal@@@MQ2Internal@@QAEKXZ 03016070 f i MQ2Commands.obj
 0001:000150c0       ?InitVariable@MQ2Type@MQ2Internal@@UAEXAAU_MQ2VarPtr@2@@Z 030160c0 f i MQ2Commands.obj
 0001:000150d0       ?Resize@?$CIndex@PAU_MQ2TypeMember@MQ2Internal@@@MQ2Internal@@QAEXK@Z 030160d0 f i MQ2Commands.obj
 0001:00015180       ?ToString@MQ2TicksType@@UAE_NU_MQ2VarPtr@MQ2Internal@@PAD@Z 03016180 f i MQ2Commands.obj
 0001:000151a0       ?ToString@MQ2Type@MQ2Internal@@UAE_NU_MQ2VarPtr@2@PAD@Z 030161a0 f i MQ2Commands.obj
 0001:000151d0       ?_Assign_rv@?$basic_string@DU?$char_traits@D@std@@V?$allocator@D@2@@std@@QAEX$$QAV12@@Z 030161d0 f i MQ2Commands.obj
 0001:00015230       ?_Buyheadnode@?$_Tree_alloc@$0A@U?$_Tree_base_types@U?$pair@$$CBV?$basic_string@DU?$char_traits@D@std@@V?$allocator@D@2@@std@@K@std@@V?$allocator@U?$pair@$$CBV?$basic_string@DU?$char_traits@D@std@@V?$allocator@D@2@@std@@K@std@@@2@@std@@@std@@QAEPAU?$_Tree_node@U?$pair@$$CBV?$basic_string@DU?$char_traits@D@std@@V?$allocator@D@2@@std@@K@std@@PAX@2@XZ 03016230 f i MQ2Commands.obj
 0001:000152c0       ?_Buynode0@?$_Tree_buy@U?$pair@$$CBV?$basic_string@DU?$char_traits@D@std@@V?$allocator@D@2@@std@@K@std@@V?$allocator@U?$pair@$$CBV?$basic_string@DU?$char_traits@D@std@@V?$allocator@D@2@@std@@K@std@@@2@@std@@QAEPAU?$_Tree_node@U?$pair@$$CBV?$basic_string@DU?$char_traits@D@std@@V?$allocator@D@2@@std@@K@std@@PAX@2@XZ 030162c0 f i MQ2Commands.obj
 0001:00015350       ?_Color@?$_Tree_val@U?$_Tree_simple_types@U?$pair@$$CBV?$basic_string@DU?$char_traits@D@std@@V?$allocator@D@2@@std@@K@std@@@std@@@std@@SAAADPAU?$_Tree_node@U?$pair@$$CBV?$basic_string@DU?$char_traits@D@std@@V?$allocator@D@2@@std@@K@std@@PAX@2@@Z 03016350 f i MQ2Commands.obj
 0001:00015360       ?_Destroy_if_not_nil@?$_Tree@V?$_Tmap_traits@V?$basic_string@DU?$char_traits@D@std@@V?$allocator@D@2@@std@@KU?$less@V?$basic_string@DU?$char_traits@D@std@@V?$allocator@D@2@@std@@@2@V?$allocator@U?$pair@$$CBV?$basic_string@DU?$char_traits@D@std@@V?$allocator@D@2@@std@@K@std@@@2@$0A@@std@@@std@@IAEXPAU?$_Tree_node@U?$pair@$$CBV?$basic_string@DU?$char_traits@D@std@@V?$allocator@D@2@@std@@K@std@@PAX@2@@Z 03016360 f i MQ2Commands.obj
 0001:000153a0       ?_Erase@?$_Tree@V?$_Tmap_traits@V?$basic_string@DU?$char_traits@D@std@@V?$allocator@D@2@@std@@KU?$less@V?$basic_string@DU?$char_traits@D@std@@V?$allocator@D@2@@std@@@2@V?$allocator@U?$pair@$$CBV?$basic_string@DU?$char_traits@D@std@@V?$allocator@D@2@@std@@K@std@@@2@$0A@@std@@@std@@IAEXPAU?$_Tree_node@U?$pair@$$CBV?$basic_string@DU?$char_traits@D@std@@V?$allocator@D@2@@std@@K@std@@PAX@2@@Z 030163a0 f i MQ2Commands.obj
 0001:00015400       ?_Freeheadnode@?$_Tree_alloc@$0A@U?$_Tree_base_types@U?$pair@$$CBV?$basic_string@DU?$char_traits@D@std@@V?$allocator@D@2@@std@@K@std@@V?$allocator@U?$pair@$$CBV?$basic_string@DU?$char_traits@D@std@@V?$allocator@D@2@@std@@K@std@@@2@@std@@@std@@QAEXPAU?$_Tree_node@U?$pair@$$CBV?$basic_string@DU?$char_traits@D@std@@V?$allocator@D@2@@std@@K@std@@PAX@2@@Z 03016400 f i MQ2Commands.obj
 0001:00015420       ?_Freenode0@?$_Tree_buy@U?$pair@$$CBV?$basic_string@DU?$char_traits@D@std@@V?$allocator@D@2@@std@@K@std@@V?$allocator@U?$pair@$$CBV?$basic_string@DU?$char_traits@D@std@@V?$allocator@D@2@@std@@K@std@@@2@@std@@QAEXPAU?$_Tree_node@U?$pair@$$CBV?$basic_string@DU?$char_traits@D@std@@V?$allocator@D@2@@std@@K@std@@PAX@2@@Z 03016420 f i MQ2Commands.obj
 0001:00015440       ?_Get_rest@?$tuple@$$QAV?$basic_string@DU?$char_traits@D@std@@V?$allocator@D@2@@std@@@std@@QAEAAV?$tuple@$$$V@2@XZ 03016440 f i MQ2Commands.obj
 0001:00015450       ?_Getal@?$_Tree_alloc@$0A@U?$_Tree_base_types@U?$pair@$$CBV?$basic_string@DU?$char_traits@D@std@@V?$allocator@D@2@@std@@K@std@@V?$allocator@U?$pair@$$CBV?$basic_string@DU?$char_traits@D@std@@V?$allocator@D@2@@std@@K@std@@@2@@std@@@std@@QBE?AU?$_Wrap_alloc@V?$allocator@U?$_Tree_node@U?$pair@$$CBV?$basic_string@DU?$char_traits@D@std@@V?$allocator@D@2@@std@@K@std@@PAX@std@@@std@@@2@XZ 03016450 f i MQ2Commands.obj
 0001:00015460       ?_Getcomp@?$_Tree_comp@$0A@V?$_Tmap_traits@V?$basic_string@DU?$char_traits@D@std@@V?$allocator@D@2@@std@@KU?$less@V?$basic_string@DU?$char_traits@D@std@@V?$allocator@D@2@@std@@@2@V?$allocator@U?$pair@$$CBV?$basic_string@DU?$char_traits@D@std@@V?$allocator@D@2@@std@@K@std@@@2@$0A@@std@@@std@@QBE?AU?$less@V?$basic_string@DU?$char_traits@D@std@@V?$allocator@D@2@@std@@@2@XZ 03016460 f i MQ2Commands.obj
 0001:00015470       ?_Isnil@?$_Tree_val@U?$_Tree_simple_types@U?$pair@$$CBV?$basic_string@DU?$char_traits@D@std@@V?$allocator@D@2@@std@@K@std@@@std@@@std@@SAAADPAU?$_Tree_node@U?$pair@$$CBV?$basic_string@DU?$char_traits@D@std@@V?$allocator@D@2@@std@@K@std@@PAX@2@@Z 03016470 f i MQ2Commands.obj
 0001:00015480       ?_Key@?$_Tree@V?$_Tmap_traits@V?$basic_string@DU?$char_traits@D@std@@V?$allocator@D@2@@std@@KU?$less@V?$basic_string@DU?$char_traits@D@std@@V?$allocator@D@2@@std@@@2@V?$allocator@U?$pair@$$CBV?$basic_string@DU?$char_traits@D@std@@V?$allocator@D@2@@std@@K@std@@@2@$0A@@std@@@std@@IBEABV?$basic_string@DU?$char_traits@D@std@@V?$allocator@D@2@@2@PAU?$_Tree_node@U?$pair@$$CBV?$basic_string@DU?$char_traits@D@std@@V?$allocator@D@2@@std@@K@std@@PAX@2@@Z 03016480 f i MQ2Commands.obj
 0001:00015490       ?_Kfn@?$_Tree@V?$_Tmap_traits@V?$basic_string@DU?$char_traits@D@std@@V?$allocator@D@2@@std@@KU?$less@V?$basic_string@DU?$char_traits@D@std@@V?$allocator@D@2@@std@@@2@V?$allocator@U?$pair@$$CBV?$basic_string@DU?$char_traits@D@std@@V?$allocator@D@2@@std@@K@std@@@2@$0A@@std@@@std@@IBEABV?$basic_string@DU?$char_traits@D@std@@V?$allocator@D@2@@2@ABU?$pair@$$CBV?$basic_string@DU?$char_traits@D@std@@V?$allocator@D@2@@std@@K@2@@Z 03016490 f i MQ2Commands.obj
 0001:000154a0       ?_Lbound@?$_Tree@V?$_Tmap_traits@V?$basic_string@DU?$char_traits@D@std@@V?$allocator@D@2@@std@@KU?$less@V?$basic_string@DU?$char_traits@D@std@@V?$allocator@D@2@@std@@@2@V?$allocator@U?$pair@$$CBV?$basic_string@DU?$char_traits@D@std@@V?$allocator@D@2@@std@@K@std@@@2@$0A@@std@@@std@@IAEPAU?$_Tree_node@U?$pair@$$CBV?$basic_string@DU?$char_traits@D@std@@V?$allocator@D@2@@std@@K@std@@PAX@2@ABV?$basic_string@DU?$char_traits@D@std@@V?$allocator@D@2@@2@@Z 030164a0 f i MQ2Commands.obj
 0001:00015580       ?_Left@?$_Tree_val@U?$_Tree_simple_types@U?$pair@$$CBV?$basic_string@DU?$char_traits@D@std@@V?$allocator@D@2@@std@@K@std@@@std@@@std@@SAAAPAU?$_Tree_node@U?$pair@$$CBV?$basic_string@DU?$char_traits@D@std@@V?$allocator@D@2@@std@@K@std@@PAX@2@PAU32@@Z 03016580 f i MQ2Commands.obj
 0001:00015590       ?_Lmost@?$_Tree@V?$_Tmap_traits@V?$basic_string@DU?$char_traits@D@std@@V?$allocator@D@2@@std@@KU?$less@V?$basic_string@DU?$char_traits@D@std@@V?$allocator@D@2@@std@@@2@V?$allocator@U?$pair@$$CBV?$basic_string@DU?$char_traits@D@std@@V?$allocator@D@2@@std@@K@std@@@2@$0A@@std@@@std@@IBEAAPAU?$_Tree_node@U?$pair@$$CBV?$basic_string@DU?$char_traits@D@std@@V?$allocator@D@2@@std@@K@std@@PAX@2@XZ 03016590 f i MQ2Commands.obj
 0001:000155a0       ?_Lrotate@?$_Tree@V?$_Tmap_traits@V?$basic_string@DU?$char_traits@D@std@@V?$allocator@D@2@@std@@KU?$less@V?$basic_string@DU?$char_traits@D@std@@V?$allocator@D@2@@std@@@2@V?$allocator@U?$pair@$$CBV?$basic_string@DU?$char_traits@D@std@@V?$allocator@D@2@@std@@K@std@@@2@$0A@@std@@@std@@IAEXPAU?$_Tree_node@U?$pair@$$CBV?$basic_string@DU?$char_traits@D@std@@V?$allocator@D@2@@std@@K@std@@PAX@2@@Z 030165a0 f i MQ2Commands.obj
 0001:00015600       ?_Max@?$_Tree_val@U?$_Tree_simple_types@U?$pair@$$CBV?$basic_string@DU?$char_traits@D@std@@V?$allocator@D@2@@std@@K@std@@@std@@@std@@SAPAU?$_Tree_node@U?$pair@$$CBV?$basic_string@DU?$char_traits@D@std@@V?$allocator@D@2@@std@@K@std@@PAX@2@PAU32@@Z 03016600 f i MQ2Commands.obj
 0001:00015620       ?_Min@?$_Tree_val@U?$_Tree_simple_types@U?$pair@$$CBV?$basic_string@DU?$char_traits@D@std@@V?$allocator@D@2@@std@@K@std@@@std@@@std@@SAPAU?$_Tree_node@U?$pair@$$CBV?$basic_string@DU?$char_traits@D@std@@V?$allocator@D@2@@std@@K@std@@PAX@2@PAU32@@Z 03016620 f i MQ2Commands.obj
 0001:00015640       ?_Mynode@?$_Tree_unchecked_const_iterator@V?$_Tree_val@U?$_Tree_simple_types@U?$pair@$$CBV?$basic_string@DU?$char_traits@D@std@@V?$allocator@D@2@@std@@K@std@@@std@@@std@@U_Iterator_base0@2@@std@@QBEPAU?$_Tree_node@U?$pair@$$CBV?$basic_string@DU?$char_traits@D@std@@V?$allocator@D@2@@std@@K@std@@PAX@2@XZ 03016640 f i MQ2Commands.obj
 0001:00015650       ?_Myval@?$_Tree_val@U?$_Tree_simple_types@U?$pair@$$CBV?$basic_string@DU?$char_traits@D@std@@V?$allocator@D@2@@std@@K@std@@@std@@@std@@SAAAU?$pair@$$CBV?$basic_string@DU?$char_traits@D@std@@V?$allocator@D@2@@std@@K@2@PAU?$_Tree_node@U?$pair@$$CBV?$basic_string@DU?$char_traits@D@std@@V?$allocator@D@2@@std@@K@std@@PAX@2@@Z 03016650 f i MQ2Commands.obj
 0001:00015660       ?_Parent@?$_Tree_val@U?$_Tree_simple_types@U?$pair@$$CBV?$basic_string@DU?$char_traits@D@std@@V?$allocator@D@2@@std@@K@std@@@std@@@std@@SAAAPAU?$_Tree_node@U?$pair@$$CBV?$basic_string@DU?$char_traits@D@std@@V?$allocator@D@2@@std@@K@std@@PAX@2@PAU32@@Z 03016660 f i MQ2Commands.obj
 0001:00015670       ?_Right@?$_Tree_val@U?$_Tree_simple_types@U?$pair@$$CBV?$basic_string@DU?$char_traits@D@std@@V?$allocator@D@2@@std@@K@std@@@std@@@std@@SAAAPAU?$_Tree_node@U?$pair@$$CBV?$basic_string@DU?$char_traits@D@std@@V?$allocator@D@2@@std@@K@std@@PAX@2@PAU32@@Z 03016670 f i MQ2Commands.obj
 0001:00015680       ?_Rmost@?$_Tree@V?$_Tmap_traits@V?$basic_string@DU?$char_traits@D@std@@V?$allocator@D@2@@std@@KU?$less@V?$basic_string@DU?$char_traits@D@std@@V?$allocator@D@2@@std@@@2@V?$allocator@U?$pair@$$CBV?$basic_string@DU?$char_traits@D@std@@V?$allocator@D@2@@std@@K@std@@@2@$0A@@std@@@std@@IBEAAPAU?$_Tree_node@U?$pair@$$CBV?$basic_string@DU?$char_traits@D@std@@V?$allocator@D@2@@std@@K@std@@PAX@2@XZ 03016680 f i MQ2Commands.obj
 0001:00015690       ?_Root@?$_Tree@V?$_Tmap_traits@V?$basic_string@DU?$char_traits@D@std@@V?$allocator@D@2@@std@@KU?$less@V?$basic_string@DU?$char_traits@D@std@@V?$allocator@D@2@@std@@@2@V?$allocator@U?$pair@$$CBV?$basic_string@DU?$char_traits@D@std@@V?$allocator@D@2@@std@@K@std@@@2@$0A@@std@@@std@@IBEAAPAU?$_Tree_node@U?$pair@$$CBV?$basic_string@DU?$char_traits@D@std@@V?$allocator@D@2@@std@@K@std@@PAX@2@XZ 03016690 f i MQ2Commands.obj
 0001:000156a0       ?_Rrotate@?$_Tree@V?$_Tmap_traits@V?$basic_string@DU?$char_traits@D@std@@V?$allocator@D@2@@std@@KU?$less@V?$basic_string@DU?$char_traits@D@std@@V?$allocator@D@2@@std@@@2@V?$allocator@U?$pair@$$CBV?$basic_string@DU?$char_traits@D@std@@V?$allocator@D@2@@std@@K@std@@@2@$0A@@std@@@std@@IAEXPAU?$_Tree_node@U?$pair@$$CBV?$basic_string@DU?$char_traits@D@std@@V?$allocator@D@2@@std@@K@std@@PAX@2@@Z 030166a0 f i MQ2Commands.obj
 0001:00015700       ?_Tidy@?$_Tree@V?$_Tmap_traits@V?$basic_string@DU?$char_traits@D@std@@V?$allocator@D@2@@std@@KU?$less@V?$basic_string@DU?$char_traits@D@std@@V?$allocator@D@2@@std@@@2@V?$allocator@U?$pair@$$CBV?$basic_string@DU?$char_traits@D@std@@V?$allocator@D@2@@std@@K@std@@@2@$0A@@std@@@std@@IAEXXZ 03016700 f i MQ2Commands.obj
 0001:00015720       ?allocate@?$_Wrap_alloc@V?$allocator@U?$_Tree_node@U?$pair@$$CBV?$basic_string@DU?$char_traits@D@std@@V?$allocator@D@2@@std@@K@std@@PAX@std@@@std@@@std@@QAEPAU?$_Tree_node@U?$pair@$$CBV?$basic_string@DU?$char_traits@D@std@@V?$allocator@D@2@@std@@K@std@@PAX@2@I@Z 03016720 f i MQ2Commands.obj
 0001:00015760       ?allocate@?$allocator@U?$_Tree_node@U?$pair@$$CBV?$basic_string@DU?$char_traits@D@std@@V?$allocator@D@2@@std@@K@std@@PAX@std@@@std@@QAEPAU?$_Tree_node@U?$pair@$$CBV?$basic_string@DU?$char_traits@D@std@@V?$allocator@D@2@@std@@K@std@@PAX@2@I@Z 03016760 f i MQ2Commands.obj
 0001:000157a0       ?atan2@@YAMMM@Z            030167a0 f i MQ2Commands.obj
 0001:000157e0       ?begin@?$_Tree@V?$_Tmap_traits@V?$basic_string@DU?$char_traits@D@std@@V?$allocator@D@2@@std@@KU?$less@V?$basic_string@DU?$char_traits@D@std@@V?$allocator@D@2@@std@@@2@V?$allocator@U?$pair@$$CBV?$basic_string@DU?$char_traits@D@std@@V?$allocator@D@2@@std@@K@std@@@2@$0A@@std@@@std@@QAE?AV?$_Tree_iterator@V?$_Tree_val@U?$_Tree_simple_types@U?$pair@$$CBV?$basic_string@DU?$char_traits@D@std@@V?$allocator@D@2@@std@@K@std@@@std@@@std@@@2@XZ 030167e0 f i MQ2Commands.obj
 0001:000157f0       ?clear@?$_Tree@V?$_Tmap_traits@V?$basic_string@DU?$char_traits@D@std@@V?$allocator@D@2@@std@@KU?$less@V?$basic_string@DU?$char_traits@D@std@@V?$allocator@D@2@@std@@@2@V?$allocator@U?$pair@$$CBV?$basic_string@DU?$char_traits@D@std@@V?$allocator@D@2@@std@@K@std@@@2@$0A@@std@@@std@@QAEXXZ 030167f0 f i MQ2Commands.obj
 0001:00015820       ?compare@?$basic_string@DU?$char_traits@D@std@@V?$allocator@D@2@@std@@QBEHABV12@@Z 03016820 f i MQ2Commands.obj
 0001:00015850       ?compare@?$basic_string@DU?$char_traits@D@std@@V?$allocator@D@2@@std@@QBEHIIPBDI@Z 03016850 f i MQ2Commands.obj
 0001:000158c0       ?compare@?$char_traits@D@std@@SAHPBD0I@Z 030168c0 f i MQ2Commands.obj
 0001:00015930       ?deallocate@?$_Wrap_alloc@V?$allocator@U?$_Tree_node@U?$pair@$$CBV?$basic_string@DU?$char_traits@D@std@@V?$allocator@D@2@@std@@K@std@@PAX@std@@@std@@@std@@QAEXPAU?$_Tree_node@U?$pair@$$CBV?$basic_string@DU?$char_traits@D@std@@V?$allocator@D@2@@std@@K@std@@PAX@2@I@Z 03016930 f i MQ2Commands.obj
 0001:00015950       ?deallocate@?$allocator@U?$_Tree_node@U?$pair@$$CBV?$basic_string@DU?$char_traits@D@std@@V?$allocator@D@2@@std@@K@std@@PAX@std@@@std@@QAEXPAU?$_Tree_node@U?$pair@$$CBV?$basic_string@DU?$char_traits@D@std@@V?$allocator@D@2@@std@@K@std@@PAX@2@I@Z 03016950 f i MQ2Commands.obj
 0001:00015970       ?end@?$_Tree@V?$_Tmap_traits@V?$basic_string@DU?$char_traits@D@std@@V?$allocator@D@2@@std@@KU?$less@V?$basic_string@DU?$char_traits@D@std@@V?$allocator@D@2@@std@@@2@V?$allocator@U?$pair@$$CBV?$basic_string@DU?$char_traits@D@std@@V?$allocator@D@2@@std@@K@std@@@2@$0A@@std@@@std@@QAE?AV?$_Tree_iterator@V?$_Tree_val@U?$_Tree_simple_types@U?$pair@$$CBV?$basic_string@DU?$char_traits@D@std@@V?$allocator@D@2@@std@@K@std@@@std@@@std@@@2@XZ 03016970 f i MQ2Commands.obj
 0001:00015980       ?erase@?$_Tree@V?$_Tmap_traits@V?$basic_string@DU?$char_traits@D@std@@V?$allocator@D@2@@std@@KU?$less@V?$basic_string@DU?$char_traits@D@std@@V?$allocator@D@2@@std@@@2@V?$allocator@U?$pair@$$CBV?$basic_string@DU?$char_traits@D@std@@V?$allocator@D@2@@std@@K@std@@@2@$0A@@std@@@std@@QAE?AV?$_Tree_iterator@V?$_Tree_val@U?$_Tree_simple_types@U?$pair@$$CBV?$basic_string@DU?$char_traits@D@std@@V?$allocator@D@2@@std@@K@std@@@std@@@std@@@2@V?$_Tree_const_iterator@V?$_Tree_val@U?$_Tree_simple_types@U?$pair@$$CBV?$basic_string@DU?$char_traits@D@std@@V?$allocator@D@2@@std@@K@std@@@std@@@std@@@2@0@Z 03016980 f i MQ2Commands.obj
 0001:00015a40       ?erase@?$_Tree@V?$_Tmap_traits@V?$basic_string@DU?$char_traits@D@std@@V?$allocator@D@2@@std@@KU?$less@V?$basic_string@DU?$char_traits@D@std@@V?$allocator@D@2@@std@@@2@V?$allocator@U?$pair@$$CBV?$basic_string@DU?$char_traits@D@std@@V?$allocator@D@2@@std@@K@std@@@2@$0A@@std@@@std@@QAE?AV?$_Tree_iterator@V?$_Tree_val@U?$_Tree_simple_types@U?$pair@$$CBV?$basic_string@DU?$char_traits@D@std@@V?$allocator@D@2@@std@@K@std@@@std@@@std@@@2@V?$_Tree_const_iterator@V?$_Tree_val@U?$_Tree_simple_types@U?$pair@$$CBV?$basic_string@DU?$char_traits@D@std@@V?$allocator@D@2@@std@@K@std@@@std@@@std@@@2@@Z 03016a40 f i MQ2Commands.obj
 0001:00015cf0       ?lower_bound@?$_Tree@V?$_Tmap_traits@V?$basic_string@DU?$char_traits@D@std@@V?$allocator@D@2@@std@@KU?$less@V?$basic_string@DU?$char_traits@D@std@@V?$allocator@D@2@@std@@@2@V?$allocator@U?$pair@$$CBV?$basic_string@DU?$char_traits@D@std@@V?$allocator@D@2@@std@@K@std@@@2@$0A@@std@@@std@@QAE?AV?$_Tree_iterator@V?$_Tree_val@U?$_Tree_simple_types@U?$pair@$$CBV?$basic_string@DU?$char_traits@D@std@@V?$allocator@D@2@@std@@K@std@@@std@@@std@@@2@ABV?$basic_string@DU?$char_traits@D@std@@V?$allocator@D@2@@2@@Z 03016cf0 f i MQ2Commands.obj
 0001:00015d10       ?max_size@?$_Tree@V?$_Tmap_traits@V?$basic_string@DU?$char_traits@D@std@@V?$allocator@D@2@@std@@KU?$less@V?$basic_string@DU?$char_traits@D@std@@V?$allocator@D@2@@std@@@2@V?$allocator@U?$pair@$$CBV?$basic_string@DU?$char_traits@D@std@@V?$allocator@D@2@@std@@K@std@@@2@$0A@@std@@@std@@QBEIXZ 03016d10 f i MQ2Commands.obj
 0001:00015d20       ?max_size@?$_Wrap_alloc@V?$allocator@U?$_Tree_node@U?$pair@$$CBV?$basic_string@DU?$char_traits@D@std@@V?$allocator@D@2@@std@@K@std@@PAX@std@@@std@@@std@@QBEIXZ 03016d20 f i MQ2Commands.obj
 0001:00015d30       ?max_size@?$allocator@U?$_Tree_node@U?$pair@$$CBV?$basic_string@DU?$char_traits@D@std@@V?$allocator@D@2@@std@@K@std@@PAX@std@@@std@@QBEIXZ 03016d30 f i MQ2Commands.obj
 0001:00015d40       ?max_size@?$allocator_traits@V?$allocator@U?$_Tree_node@U?$pair@$$CBV?$basic_string@DU?$char_traits@D@std@@V?$allocator@D@2@@std@@K@std@@PAX@std@@@std@@@std@@SAIABV?$allocator@U?$_Tree_node@U?$pair@$$CBV?$basic_string@DU?$char_traits@D@std@@V?$allocator@D@2@@std@@K@std@@PAX@std@@@2@@Z 03016d40 f i MQ2Commands.obj
 0001:00015d50       ?pointer_to@?$pointer_traits@PAU?$pair@$$CBV?$basic_string@DU?$char_traits@D@std@@V?$allocator@D@2@@std@@K@std@@@std@@SAPAU?$pair@$$CBV?$basic_string@DU?$char_traits@D@std@@V?$allocator@D@2@@std@@K@2@AAU32@@Z 03016d50 f i MQ2Commands.obj
 0001:00015d60       ?size@?$_Tree@V?$_Tmap_traits@V?$basic_string@DU?$char_traits@D@std@@V?$allocator@D@2@@std@@KU?$less@V?$basic_string@DU?$char_traits@D@std@@V?$allocator@D@2@@std@@@2@V?$allocator@U?$pair@$$CBV?$basic_string@DU?$char_traits@D@std@@V?$allocator@D@2@@std@@K@std@@@2@$0A@@std@@@std@@QBEIXZ 03016d60 f i MQ2Commands.obj
 0001:00015d70       ?strchr@@YAPADPADH@Z       03016d70 f i MQ2Commands.obj
 0001:00015d80       _atan2f                    03016d80 f i MQ2Commands.obj
 0001:00015dc0       _sqrtf                     03016dc0 f i MQ2Commands.obj
 0001:00015f10       _dataSpawn                 03016f10 f   MQ2Data.obj
 0001:00015fa0       _dataTarget                03016fa0 f   MQ2Data.obj
 0001:00015fd0       _dataCharacter             03016fd0 f   MQ2Data.obj
 0001:00016000       _dataSpell                 03017000 f   MQ2Data.obj
 0001:00016070       _dataSwitch                03017070 f   MQ2Data.obj
 0001:000160a0       _dataGroundItem            030170a0 f   MQ2Data.obj
 0001:000160d0       _dataMerchant              030170d0 f   MQ2Data.obj
 0001:00016100       _dataWindow                03017100 f   MQ2Data.obj
 0001:00016130       _dataMacro                 03017130 f   MQ2Data.obj
 0001:00016160       _dataMacroQuest            03017160 f   MQ2Data.obj
 0001:00016180       _dataMath                  03017180 f   MQ2Data.obj
 0001:000161a0       _dataZone                  030171a0 f   MQ2Data.obj
 0001:00016240       _dataGroup                 03017240 f   MQ2Data.obj
 0001:00016260       _dataString                03017260 f   MQ2Data.obj
 0001:00016270       _dataInt                   03017270 f   MQ2Data.obj
 0001:000162a0       _dataBool                  030172a0 f   MQ2Data.obj
 0001:00016330       _dataFloat                 03017330 f   MQ2Data.obj
 0001:00016360       _dataCorpse                03017360 f   MQ2Data.obj
 0001:00016390       _dataIf                    03017390 f   MQ2Data.obj
 0001:00016450       _dataCursor                03017450 f   MQ2Data.obj
 0001:00016490       _dataNearestSpawn          03017490 f   MQ2Data.obj
 0001:000165a0       _dataGameTime              030175a0 f   MQ2Data.obj
 0001:00016620       _dataTime                  03017620 f   MQ2Data.obj
 0001:00016660       _dataIni                   03017660 f   MQ2Data.obj
 0001:000168e0       _dataHeading               030178e0 f   MQ2Data.obj
 0001:00016a10       _dataDefined               03017a10 f   MQ2Data.obj
 0001:00016a50       _dataLastSpawn             03017a50 f   MQ2Data.obj
 0001:00016b10       _dataInvSlot               03017b10 f   MQ2Data.obj
 0001:00016c10       _dataFindItem              03017c10 f   MQ2Data.obj
 0001:00016e60       _dataSelectedItem          03017e60 f   MQ2Data.obj
 0001:00016eb0       _dataFindItemBank          03017eb0 f   MQ2Data.obj
 0001:00017240       _dataFindItemCount         03018240 f   MQ2Data.obj
 0001:000177b0       _dataFindItemBankCount     030187b0 f   MQ2Data.obj
 0001:00017bb0       _dataSkill                 03018bb0 f   MQ2Data.obj
 0001:00017c70       _dataAltAbility            03018c70 f   MQ2Data.obj
 0001:00017d30       _dataRaid                  03018d30 f   MQ2Data.obj
 0001:00017d50       _dataNamingSpawn           03018d50 f   MQ2Data.obj
 0001:00017d80       _dataSpawnCount            03018d80 f   MQ2Data.obj
 0001:00017df0       _dataLineOfSight           03018df0 f   MQ2Data.obj
 0001:00018010       _dataPlugin                03019010 f   MQ2Data.obj
 0001:000180b0       _dataSelect                030190b0 f   MQ2Data.obj
 0001:000181d0       _dataDoorTarget            030191d0 f   MQ2Data.obj
 0001:000181f0       _dataItemTarget            030191f0 f   MQ2Data.obj
 0001:00018210       _dataDynamicZone           03019210 f   MQ2Data.obj
 0001:00018230       _dataFriends               03019230 f   MQ2Data.obj
 0001:00018250       _AddMQ2Type                03019250 f   MQ2DataAPI.obj
 0001:00018300       _RemoveMQ2Type             03019300 f   MQ2DataAPI.obj
 0001:000183d0       _InitializeMQ2Data         030193d0 f   MQ2DataAPI.obj
 0001:000186a0       _ShutdownMQ2Data           030196a0 f   MQ2DataAPI.obj
 0001:000186e0       _ParseMacroData            030196e0 f   MQ2DataAPI.obj
 0001:000188f0       _AddMQ2Data                030198f0 f   MQ2DataAPI.obj
 0001:000189c0       _RemoveMQ2Data             030199c0 f   MQ2DataAPI.obj
 0001:00018ad0       _FindMQ2DataType           03019ad0 f   MQ2DataAPI.obj
 0001:00018b60       _ParseMQ2DataPortion       03019b60 f   MQ2DataAPI.obj
 0001:00019020       ?dataType@@YAHPADAAU_MQ2TypeVar@MQ2Internal@@@Z 0301a020 f   MQ2DataAPI.obj
 0001:00019050       ??0?$CIndex@PAU_MQ2DataItem@MQ2Internal@@@MQ2Internal@@QAE@XZ 0301a050 f i MQ2DataAPI.obj
 0001:00019070       ??0?$CIndex@PAVMQ2Type@MQ2Internal@@@MQ2Internal@@QAE@XZ 0301a070 f i MQ2DataAPI.obj
 0001:00019090       ??1?$CIndex@PAU_MQ2DataItem@MQ2Internal@@@MQ2Internal@@QAE@XZ 0301a090 f i MQ2DataAPI.obj
 0001:000190d0       ??1?$CIndex@PAVMQ2Type@MQ2Internal@@@MQ2Internal@@QAE@XZ 0301a0d0 f i MQ2DataAPI.obj
 0001:00019110       ??A?$CIndex@PAU_MQ2DataItem@MQ2Internal@@@MQ2Internal@@QAEAAPAU_MQ2DataItem@1@K@Z 0301a110 f i MQ2DataAPI.obj
 0001:00019120       ??A?$CIndex@PAVMQ2Type@MQ2Internal@@@MQ2Internal@@QAEAAPAVMQ2Type@1@K@Z 0301a120 f i MQ2DataAPI.obj
 0001:00019130       ?Cleanup@?$CIndex@PAU_MQ2DataItem@MQ2Internal@@@MQ2Internal@@QAEXXZ 0301a130 f i MQ2DataAPI.obj
 0001:00019170       ?FindMember@MQ2Type@MQ2Internal@@QAEPAU_MQ2TypeMember@2@PAD@Z 0301a170 f i MQ2DataAPI.obj
 0001:00019210       ?GetElement@CDataArray@MQ2Internal@@QAEHPADAAU_MQ2TypeVar@2@@Z 0301a210 f i MQ2DataAPI.obj
 0001:00019390       ?GetName@MQ2Type@MQ2Internal@@QAEPADXZ 0301a390 f i MQ2DataAPI.obj
 0001:000193a0       ?GetUnused@?$CIndex@PAU_MQ2DataItem@MQ2Internal@@@MQ2Internal@@QAEKXZ 0301a3a0 f i MQ2DataAPI.obj
 0001:000193f0       ?GetUnused@?$CIndex@PAVMQ2Type@MQ2Internal@@@MQ2Internal@@QAEKXZ 0301a3f0 f i MQ2DataAPI.obj
 0001:00019440       ?InheritedMember@MQ2Type@MQ2Internal@@QAEHPAD@Z 0301a440 f i MQ2DataAPI.obj
 0001:00019470       ?Resize@?$CIndex@PAU_MQ2DataItem@MQ2Internal@@@MQ2Internal@@QAEXK@Z 0301a470 f i MQ2DataAPI.obj
 0001:00019520       ?Resize@?$CIndex@PAVMQ2Type@MQ2Internal@@@MQ2Internal@@QAEXK@Z 0301a520 f i MQ2DataAPI.obj
 0001:000195d0       _FindMQ2Data               0301a5d0 f i MQ2DataAPI.obj
 0001:00019680       _InitializeMQ2DataTypes    0301a680 f   MQ2DataTypes.obj
 0001:0001a090       _ShutdownMQ2DataTypes      0301b090 f   MQ2DataTypes.obj
 0001:0001acd0       ?GetMember@MQ2IntType@@UAE_NU_MQ2VarPtr@MQ2Internal@@PAD1AAU_MQ2TypeVar@3@@Z 0301bcd0 f   MQ2DataTypes.obj
 0001:0001ad60       ?GetMember@MQ2ArgbType@@UAE_NU_MQ2VarPtr@MQ2Internal@@PAD1AAU_MQ2TypeVar@3@@Z 0301bd60 f   MQ2DataTypes.obj
 0001:0001ae40       ?GetMember@MQ2StringType@@UAE_NU_MQ2VarPtr@MQ2Internal@@PAD1AAU_MQ2TypeVar@3@@Z 0301be40 f   MQ2DataTypes.obj
 0001:0001b700       ?GetMember@MQ2FloatType@@UAE_NU_MQ2VarPtr@MQ2Internal@@PAD1AAU_MQ2TypeVar@3@@Z 0301c700 f   MQ2DataTypes.obj
 0001:0001b800       ?GetMember@MQ2TicksType@@UAE_NU_MQ2VarPtr@MQ2Internal@@PAD1AAU_MQ2TypeVar@3@@Z 0301c800 f   MQ2DataTypes.obj
 0001:0001bab0       ?GetMember@MQ2SpawnType@@UAE_NU_MQ2VarPtr@MQ2Internal@@PAD1AAU_MQ2TypeVar@3@@Z 0301cab0 f   MQ2DataTypes.obj
 0001:0001ceb0       ?GetMember@MQ2CharacterType@@UAE_NU_MQ2VarPtr@MQ2Internal@@PAD1AAU_MQ2TypeVar@3@@Z 0301deb0 f   MQ2DataTypes.obj
 0001:00020700       ?GetMember@MQ2SpellType@@UAE_NU_MQ2VarPtr@MQ2Internal@@PAD1AAU_MQ2TypeVar@3@@Z 03021700 f   MQ2DataTypes.obj
 0001:00021310       ?GetMember@MQ2BuffType@@UAE_NU_MQ2VarPtr@MQ2Internal@@PAD1AAU_MQ2TypeVar@3@@Z 03022310 f   MQ2DataTypes.obj
 0001:00021490       ?GetMember@MQ2ItemType@@UAE_NU_MQ2VarPtr@MQ2Internal@@PAD1AAU_MQ2TypeVar@3@@Z 03022490 f   MQ2DataTypes.obj
 0001:000240d0       ?GetMember@MQ2SwitchType@@UAE_NU_MQ2VarPtr@MQ2Internal@@PAD1AAU_MQ2TypeVar@3@@Z 030250d0 f   MQ2DataTypes.obj
 0001:00024410       ?GetMember@MQ2GroundType@@UAE_NU_MQ2VarPtr@MQ2Internal@@PAD1AAU_MQ2TypeVar@3@@Z 03025410 f   MQ2DataTypes.obj
 0001:00024680       ?GetMember@MQ2CorpseType@@UAE_NU_MQ2VarPtr@MQ2Internal@@PAD1AAU_MQ2TypeVar@3@@Z 03025680 f   MQ2DataTypes.obj
 0001:000248c0       ?GetMember@MQ2MerchantType@@UAE_NU_MQ2VarPtr@MQ2Internal@@PAD1AAU_MQ2TypeVar@3@@Z 030258c0 f   MQ2DataTypes.obj
 0001:00024bc0       ?GetMember@MQ2WindowType@@UAE_NU_MQ2VarPtr@MQ2Internal@@PAD1AAU_MQ2TypeVar@3@@Z 03025bc0 f   MQ2DataTypes.obj
 0001:000252e0       ?GetMember@MQ2MacroType@@UAE_NU_MQ2VarPtr@MQ2Internal@@PAD1AAU_MQ2TypeVar@3@@Z 030262e0 f   MQ2DataTypes.obj
 0001:00025400       ?GetMember@MQ2ZoneType@@UAE_NU_MQ2VarPtr@MQ2Internal@@PAD1AAU_MQ2TypeVar@3@@Z 03026400 f   MQ2DataTypes.obj
 0001:00025470       ?GetMember@MQ2CurrentZoneType@@UAE_NU_MQ2VarPtr@MQ2Internal@@PAD1AAU_MQ2TypeVar@3@@Z 03026470 f   MQ2DataTypes.obj
 0001:000255c0       ?GetMember@MQ2MacroQuestType@@UAE_NU_MQ2VarPtr@MQ2Internal@@PAD1AAU_MQ2TypeVar@3@@Z 030265c0 f   MQ2DataTypes.obj
 0001:00025ac0       ?GetMember@MQ2MathType@@UAE_NU_MQ2VarPtr@MQ2Internal@@PAD1AAU_MQ2TypeVar@3@@Z 03026ac0 f   MQ2DataTypes.obj
 0001:00025ff0       ?GetMember@MQ2RaceType@@UAE_NU_MQ2VarPtr@MQ2Internal@@PAD1AAU_MQ2TypeVar@3@@Z 03026ff0 f   MQ2DataTypes.obj
 0001:00026050       ?GetMember@MQ2ClassType@@UAE_NU_MQ2VarPtr@MQ2Internal@@PAD1AAU_MQ2TypeVar@3@@Z 03027050 f   MQ2DataTypes.obj
 0001:00026260       ?GetMember@MQ2BodyType@@UAE_NU_MQ2VarPtr@MQ2Internal@@PAD1AAU_MQ2TypeVar@3@@Z 03027260 f   MQ2DataTypes.obj
 0001:000262d0       ?GetMember@MQ2DeityType@@UAE_NU_MQ2VarPtr@MQ2Internal@@PAD1AAU_MQ2TypeVar@3@@Z 030272d0 f   MQ2DataTypes.obj
 0001:00026350       ?GetMember@MQ2TimeType@@UAE_NU_MQ2VarPtr@MQ2Internal@@PAD1AAU_MQ2TypeVar@3@@Z 03027350 f   MQ2DataTypes.obj
 0001:00026570       ?GetMember@MQ2TypeType@@UAE_NU_MQ2VarPtr@MQ2Internal@@PAD1AAU_MQ2TypeVar@3@@Z 03027570 f   MQ2DataTypes.obj
 0001:00026620       ?GetMember@MQ2HeadingType@@UAE_NU_MQ2VarPtr@MQ2Internal@@PAD1AAU_MQ2TypeVar@3@@Z 03027620 f   MQ2DataTypes.obj
 0001:00026750       ?GetMember@MQ2InvSlotType@@UAE_NU_MQ2VarPtr@MQ2Internal@@PAD1AAU_MQ2TypeVar@3@@Z 03027750 f   MQ2DataTypes.obj
 0001:00026b30       ?GetMember@MQ2PluginType@@UAE_NU_MQ2VarPtr@MQ2Internal@@PAD1AAU_MQ2TypeVar@3@@Z 03027b30 f   MQ2DataTypes.obj
 0001:00026b90       ?GetMember@MQ2SkillType@@UAE_NU_MQ2VarPtr@MQ2Internal@@PAD1AAU_MQ2TypeVar@3@@Z 03027b90 f   MQ2DataTypes.obj
 0001:00026db0       ?ToString@MQ2AltAbilityType@@UAE_NU_MQ2VarPtr@MQ2Internal@@PAD@Z 03027db0 f   MQ2DataTypes.obj
 0001:00026de0       ?GetMember@MQ2AltAbilityType@@UAE_NU_MQ2VarPtr@MQ2Internal@@PAD1AAU_MQ2TypeVar@3@@Z 03027de0 f   MQ2DataTypes.obj
 0001:00027010       ?GetMember@MQ2TimerType@@UAE_NU_MQ2VarPtr@MQ2Internal@@PAD1AAU_MQ2TypeVar@3@@Z 03028010 f   MQ2DataTypes.obj
 0001:00027070       ?GetMember@MQ2ArrayType@@UAE_NU_MQ2VarPtr@MQ2Internal@@PAD1AAU_MQ2TypeVar@3@@Z 03028070 f   MQ2DataTypes.obj
 0001:00027100       ?GetMember@MQ2GroupType@@UAE_NU_MQ2VarPtr@MQ2Internal@@PAD1AAU_MQ2TypeVar@3@@Z 03028100 f   MQ2DataTypes.obj
 0001:00027530       ?ToString@MQ2GroupType@@UAE_NU_MQ2VarPtr@MQ2Internal@@PAD@Z 03028530 f   MQ2DataTypes.obj
 0001:00027590       ?GetMember@MQ2GroupMemberType@@UAE_NU_MQ2VarPtr@MQ2Internal@@PAD1AAU_MQ2TypeVar@3@@Z 03028590 f   MQ2DataTypes.obj
 0001:000278a0       ?ToString@MQ2GroupMemberType@@UAE_NU_MQ2VarPtr@MQ2Internal@@PAD@Z 030288a0 f   MQ2DataTypes.obj
 0001:000279b0       ?GetMember@MQ2RaidType@@UAE_NU_MQ2VarPtr@MQ2Internal@@PAD1AAU_MQ2TypeVar@3@@Z 030289b0 f   MQ2DataTypes.obj
 0001:00027d50       ?GetMember@MQ2RaidMemberType@@UAE_NU_MQ2VarPtr@MQ2Internal@@PAD1AAU_MQ2TypeVar@3@@Z 03028d50 f   MQ2DataTypes.obj
 0001:00027f60       ?GetMember@MQ2EvolvingItemType@@UAE_NU_MQ2VarPtr@MQ2Internal@@PAD1AAU_MQ2TypeVar@3@@Z 03028f60 f   MQ2DataTypes.obj
 0001:00028010       ?GetMember@MQ2DynamicZoneType@@UAE_NU_MQ2VarPtr@MQ2Internal@@PAD1AAU_MQ2TypeVar@3@@Z 03029010 f   MQ2DataTypes.obj
 0001:000281d0       ?GetMember@MQ2DZMemberType@@UAE_NU_MQ2VarPtr@MQ2Internal@@PAD1AAU_MQ2TypeVar@3@@Z 030291d0 f   MQ2DataTypes.obj
 0001:000282a0       ?GetMember@MQ2FellowshipType@@UAE_NU_MQ2VarPtr@MQ2Internal@@PAD1AAU_MQ2TypeVar@3@@Z 030292a0 f   MQ2DataTypes.obj
 0001:000284f0       ?GetMember@MQ2FellowshipMemberType@@UAE_NU_MQ2VarPtr@MQ2Internal@@PAD1AAU_MQ2TypeVar@3@@Z 030294f0 f   MQ2DataTypes.obj
 0001:000285e0       ?GetMember@MQ2FriendsType@@UAE_NU_MQ2VarPtr@MQ2Internal@@PAD1AAU_MQ2TypeVar@3@@Z 030295e0 f   MQ2DataTypes.obj
 0001:000286c0       ?GetMember@MQ2TargetType@@UAE_NU_MQ2VarPtr@MQ2Internal@@PAD1AAU_MQ2TypeVar@3@@Z 030296c0 f   MQ2DataTypes.obj
 0001:00028ab0       ?GetMember@MQ2XTargetType@@UAE_NU_MQ2VarPtr@MQ2Internal@@PAD1AAU_MQ2TypeVar@3@@Z 03029ab0 f   MQ2DataTypes.obj
 0001:00028c00       ??0MQ2AltAbilityType@@QAE@XZ 03029c00 f i MQ2DataTypes.obj
 0001:00028ce0       ??0MQ2ArgbType@@QAE@XZ     03029ce0 f i MQ2DataTypes.obj
 0001:00028d40       ??0MQ2ArrayType@@QAE@XZ    03029d40 f i MQ2DataTypes.obj
 0001:00028d80       ??0MQ2BodyType@@QAE@XZ     03029d80 f i MQ2DataTypes.obj
 0001:00028dc0       ??0MQ2BoolType@@QAE@XZ     03029dc0 f i MQ2DataTypes.obj
 0001:00028de0       ??0MQ2BuffType@@QAE@XZ     03029de0 f i MQ2DataTypes.obj
 0001:00028e60       ??0MQ2ByteType@@QAE@XZ     03029e60 f i MQ2DataTypes.obj
 0001:00028e80       ??0MQ2CharacterType@@QAE@XZ 03029e80 f i MQ2DataTypes.obj
 0001:00029970       ??0MQ2ClassType@@QAE@XZ    0302a970 f i MQ2DataTypes.obj
 0001:00029a30       ??0MQ2CorpseType@@QAE@XZ   0302aa30 f i MQ2DataTypes.obj
 0001:00029a80       ??0MQ2CurrentZoneType@@QAE@XZ 0302aa80 f i MQ2DataTypes.obj
 0001:00029b60       ??0MQ2DZMemberType@@QAE@XZ 0302ab60 f i MQ2DataTypes.obj
 0001:00029ba0       ??0MQ2DeityType@@QAE@XZ    0302aba0 f i MQ2DataTypes.obj
 0001:00029bf0       ??0MQ2DynamicZoneType@@QAE@XZ 0302abf0 f i MQ2DataTypes.obj
 0001:00029c50       ??0MQ2EvolvingItemType@@QAE@XZ 0302ac50 f i MQ2DataTypes.obj
 0001:00029ca0       ??0MQ2FellowshipMemberType@@QAE@XZ 0302aca0 f i MQ2DataTypes.obj
 0001:00029d00       ??0MQ2FellowshipType@@QAE@XZ 0302ad00 f i MQ2DataTypes.obj
 0001:00029dc0       ??0MQ2FloatType@@QAE@XZ    0302adc0 f i MQ2DataTypes.obj
 0001:00029e20       ??0MQ2FriendsType@@QAE@XZ  0302ae20 f i MQ2DataTypes.obj
 0001:00029e50       ??0MQ2GroundType@@QAE@XZ   0302ae50 f i MQ2DataTypes.obj
 0001:00029ef0       ??0MQ2GroupMemberType@@QAE@XZ 0302aef0 f i MQ2DataTypes.obj
 0001:00029f90       ??0MQ2GroupType@@QAE@XZ    0302af90 f i MQ2DataTypes.obj
 0001:0002a010       ??0MQ2HeadingType@@QAE@XZ  0302b010 f i MQ2DataTypes.obj
 0001:0002a070       ??0MQ2IntType@@QAE@XZ      0302b070 f i MQ2DataTypes.obj
 0001:0002a0c0       ??0MQ2InvSlotType@@QAE@XZ  0302b0c0 f i MQ2DataTypes.obj
 0001:0002a120       ??0MQ2ItemType@@QAE@XZ     0302b120 f i MQ2DataTypes.obj
 0001:0002a860       ??0MQ2MacroQuestType@@QAE@XZ 0302b860 f i MQ2DataTypes.obj
 0001:0002a9b0       ??0MQ2MacroType@@QAE@XZ    0302b9b0 f i MQ2DataTypes.obj
 0001:0002aa20       ??0MQ2MathType@@QAE@XZ     0302ba20 f i MQ2DataTypes.obj
 0001:0002ab00       ??0MQ2MerchantType@@QAE@XZ 0302bb00 f i MQ2DataTypes.obj
 0001:0002ab60       ??0MQ2PluginType@@QAE@XZ   0302bb60 f i MQ2DataTypes.obj
 0001:0002aba0       ??0MQ2RaceType@@QAE@XZ     0302bba0 f i MQ2DataTypes.obj
 0001:0002abe0       ??0MQ2RaidMemberType@@QAE@XZ 0302bbe0 f i MQ2DataTypes.obj
 0001:0002ac70       ??0MQ2RaidType@@QAE@XZ     0302bc70 f i MQ2DataTypes.obj
 0001:0002ad30       ??0MQ2SkillType@@QAE@XZ    0302bd30 f i MQ2DataTypes.obj
 0001:0002adb0       ??0MQ2SpawnType@@QAE@XZ    0302bdb0 f i MQ2DataTypes.obj
 0001:0002b320       ??0MQ2SpellType@@QAE@XZ    0302c320 f i MQ2DataTypes.obj
 0001:0002b4c0       ??0MQ2StringType@@QAE@XZ   0302c4c0 f i MQ2DataTypes.obj
 0001:0002b5d0       ??0MQ2SwitchType@@QAE@XZ   0302c5d0 f i MQ2DataTypes.obj
 0001:0002b6b0       ??0MQ2TargetType@@QAE@XZ   0302c6b0 f i MQ2DataTypes.obj
 0001:0002b720       ??0MQ2TimeType@@QAE@XZ     0302c720 f i MQ2DataTypes.obj
 0001:0002b7e0       ??0MQ2TimerType@@QAE@XZ    0302c7e0 f i MQ2DataTypes.obj
 0001:0002b820       ??0MQ2TypeType@@QAE@XZ     0302c820 f i MQ2DataTypes.obj
 0001:0002b860       ??0MQ2WindowType@@QAE@XZ   0302c860 f i MQ2DataTypes.obj
 0001:0002ba40       ??0MQ2XTargetType@@QAE@XZ  0302ca40 f i MQ2DataTypes.obj
 0001:0002ba90       ??0MQ2ZoneType@@QAE@XZ     0302ca90 f i MQ2DataTypes.obj
 0001:0002bae0       ??1CDataArray@MQ2Internal@@QAE@XZ 0302cae0 f i MQ2DataTypes.obj
 0001:0002bb30       ??1MQ2AltAbilityType@@QAE@XZ 0302cb30 f i MQ2DataTypes.obj
 0001:0002bb40       ??1MQ2ArgbType@@QAE@XZ     0302cb40 f i MQ2DataTypes.obj
 0001:0002bb50       ??1MQ2ArrayType@@QAE@XZ    0302cb50 f i MQ2DataTypes.obj
 0001:0002bb60       ??1MQ2BodyType@@QAE@XZ     0302cb60 f i MQ2DataTypes.obj
 0001:0002bb70       ??1MQ2BoolType@@QAE@XZ     0302cb70 f i MQ2DataTypes.obj
 0001:0002bb80       ??1MQ2BuffType@@QAE@XZ     0302cb80 f i MQ2DataTypes.obj
 0001:0002bb90       ??1MQ2ByteType@@QAE@XZ     0302cb90 f i MQ2DataTypes.obj
 0001:0002bba0       ??1MQ2CharacterType@@QAE@XZ 0302cba0 f i MQ2DataTypes.obj
 0001:0002bbb0       ??1MQ2ClassType@@QAE@XZ    0302cbb0 f i MQ2DataTypes.obj
 0001:0002bbc0       ??1MQ2CorpseType@@QAE@XZ   0302cbc0 f i MQ2DataTypes.obj
 0001:0002bbd0       ??1MQ2CurrentZoneType@@QAE@XZ 0302cbd0 f i MQ2DataTypes.obj
 0001:0002bbe0       ??1MQ2DeityType@@QAE@XZ    0302cbe0 f i MQ2DataTypes.obj
 0001:0002bbf0       ??1MQ2DynamicZoneType@@QAE@XZ 0302cbf0 f i MQ2DataTypes.obj
 0001:0002bc00       ??1MQ2EvolvingItemType@@QAE@XZ 0302cc00 f i MQ2DataTypes.obj
 0001:0002bc10       ??1MQ2FloatType@@QAE@XZ    0302cc10 f i MQ2DataTypes.obj
 0001:0002bc20       ??1MQ2FriendsType@@QAE@XZ  0302cc20 f i MQ2DataTypes.obj
 0001:0002bc30       ??1MQ2GroundType@@QAE@XZ   0302cc30 f i MQ2DataTypes.obj
 0001:0002bc40       ??1MQ2GroupMemberType@@QAE@XZ 0302cc40 f i MQ2DataTypes.obj
 0001:0002bc50       ??1MQ2GroupType@@QAE@XZ    0302cc50 f i MQ2DataTypes.obj
 0001:0002bc60       ??1MQ2HeadingType@@QAE@XZ  0302cc60 f i MQ2DataTypes.obj
 0001:0002bc70       ??1MQ2IntType@@QAE@XZ      0302cc70 f i MQ2DataTypes.obj
 0001:0002bc80       ??1MQ2ItemType@@QAE@XZ     0302cc80 f i MQ2DataTypes.obj
 0001:0002bc90       ??1MQ2MacroQuestType@@QAE@XZ 0302cc90 f i MQ2DataTypes.obj
 0001:0002bca0       ??1MQ2MacroType@@QAE@XZ    0302cca0 f i MQ2DataTypes.obj
 0001:0002bcb0       ??1MQ2MathType@@QAE@XZ     0302ccb0 f i MQ2DataTypes.obj
 0001:0002bcc0       ??1MQ2MerchantType@@QAE@XZ 0302ccc0 f i MQ2DataTypes.obj
 0001:0002bcd0       ??1MQ2PluginType@@QAE@XZ   0302ccd0 f i MQ2DataTypes.obj
 0001:0002bce0       ??1MQ2RaceType@@QAE@XZ     0302cce0 f i MQ2DataTypes.obj
 0001:0002bcf0       ??1MQ2RaidMemberType@@QAE@XZ 0302ccf0 f i MQ2DataTypes.obj
 0001:0002bd00       ??1MQ2RaidType@@QAE@XZ     0302cd00 f i MQ2DataTypes.obj
 0001:0002bd10       ??1MQ2SkillType@@QAE@XZ    0302cd10 f i MQ2DataTypes.obj
 0001:0002bd20       ??1MQ2SpawnType@@QAE@XZ    0302cd20 f i MQ2DataTypes.obj
 0001:0002bd30       ??1MQ2SpellType@@QAE@XZ    0302cd30 f i MQ2DataTypes.obj
 0001:0002bd40       ??1MQ2StringType@@QAE@XZ   0302cd40 f i MQ2DataTypes.obj
 0001:0002bd50       ??1MQ2SwitchType@@QAE@XZ   0302cd50 f i MQ2DataTypes.obj
 0001:0002bd60       ??1MQ2TargetType@@QAE@XZ   0302cd60 f i MQ2DataTypes.obj
 0001:0002bd70       ??1MQ2TimeType@@QAE@XZ     0302cd70 f i MQ2DataTypes.obj
 0001:0002bd80       ??1MQ2TimerType@@QAE@XZ    0302cd80 f i MQ2DataTypes.obj
 0001:0002bd90       ??1MQ2TypeType@@QAE@XZ     0302cd90 f i MQ2DataTypes.obj
 0001:0002bda0       ??1MQ2WindowType@@QAE@XZ   0302cda0 f i MQ2DataTypes.obj
 0001:0002bdb0       ??1MQ2XTargetType@@QAE@XZ  0302cdb0 f i MQ2DataTypes.obj
 0001:0002bdc0       ??1MQ2ZoneType@@QAE@XZ     0302cdc0 f i MQ2DataTypes.obj
 0001:0002bdd0       ??_GCDataArray@MQ2Internal@@QAEPAXI@Z 0302cdd0 f i MQ2DataTypes.obj
 0001:0002be00       ??_GMQ2AltAbilityType@@QAEPAXI@Z 0302ce00 f i MQ2DataTypes.obj
 0001:0002be30       ??_GMQ2ArgbType@@QAEPAXI@Z 0302ce30 f i MQ2DataTypes.obj
 0001:0002be60       ??_GMQ2ArrayType@@QAEPAXI@Z 0302ce60 f i MQ2DataTypes.obj
 0001:0002be90       ??_GMQ2BodyType@@QAEPAXI@Z 0302ce90 f i MQ2DataTypes.obj
 0001:0002bec0       ??_GMQ2BoolType@@QAEPAXI@Z 0302cec0 f i MQ2DataTypes.obj
 0001:0002bef0       ??_GMQ2BuffType@@QAEPAXI@Z 0302cef0 f i MQ2DataTypes.obj
 0001:0002bf20       ??_GMQ2ByteType@@QAEPAXI@Z 0302cf20 f i MQ2DataTypes.obj
 0001:0002bf50       ??_GMQ2CharacterType@@QAEPAXI@Z 0302cf50 f i MQ2DataTypes.obj
 0001:0002bf80       ??_GMQ2ClassType@@QAEPAXI@Z 0302cf80 f i MQ2DataTypes.obj
 0001:0002bfb0       ??_GMQ2CorpseType@@QAEPAXI@Z 0302cfb0 f i MQ2DataTypes.obj
 0001:0002bfe0       ??_GMQ2CurrentZoneType@@QAEPAXI@Z 0302cfe0 f i MQ2DataTypes.obj
 0001:0002c010       ??_GMQ2DeityType@@QAEPAXI@Z 0302d010 f i MQ2DataTypes.obj
 0001:0002c040       ??_GMQ2DynamicZoneType@@QAEPAXI@Z 0302d040 f i MQ2DataTypes.obj
 0001:0002c070       ??_GMQ2EvolvingItemType@@QAEPAXI@Z 0302d070 f i MQ2DataTypes.obj
 0001:0002c0a0       ??_GMQ2FloatType@@QAEPAXI@Z 0302d0a0 f i MQ2DataTypes.obj
 0001:0002c0d0       ??_GMQ2FriendsType@@QAEPAXI@Z 0302d0d0 f i MQ2DataTypes.obj
 0001:0002c100       ??_GMQ2GroundType@@QAEPAXI@Z 0302d100 f i MQ2DataTypes.obj
 0001:0002c130       ??_GMQ2GroupMemberType@@QAEPAXI@Z 0302d130 f i MQ2DataTypes.obj
 0001:0002c160       ??_GMQ2GroupType@@QAEPAXI@Z 0302d160 f i MQ2DataTypes.obj
 0001:0002c190       ??_GMQ2HeadingType@@QAEPAXI@Z 0302d190 f i MQ2DataTypes.obj
 0001:0002c1c0       ??_GMQ2IntType@@QAEPAXI@Z  0302d1c0 f i MQ2DataTypes.obj
 0001:0002c1f0       ??_GMQ2ItemType@@QAEPAXI@Z 0302d1f0 f i MQ2DataTypes.obj
 0001:0002c220       ??_GMQ2MacroQuestType@@QAEPAXI@Z 0302d220 f i MQ2DataTypes.obj
 0001:0002c250       ??_GMQ2MacroType@@QAEPAXI@Z 0302d250 f i MQ2DataTypes.obj
 0001:0002c280       ??_GMQ2MathType@@QAEPAXI@Z 0302d280 f i MQ2DataTypes.obj
 0001:0002c2b0       ??_GMQ2MerchantType@@QAEPAXI@Z 0302d2b0 f i MQ2DataTypes.obj
 0001:0002c2e0       ??_GMQ2PluginType@@QAEPAXI@Z 0302d2e0 f i MQ2DataTypes.obj
 0001:0002c310       ??_GMQ2RaceType@@QAEPAXI@Z 0302d310 f i MQ2DataTypes.obj
 0001:0002c340       ??_GMQ2RaidMemberType@@QAEPAXI@Z 0302d340 f i MQ2DataTypes.obj
 0001:0002c370       ??_GMQ2RaidType@@QAEPAXI@Z 0302d370 f i MQ2DataTypes.obj
 0001:0002c3a0       ??_GMQ2SkillType@@QAEPAXI@Z 0302d3a0 f i MQ2DataTypes.obj
 0001:0002c3d0       ??_GMQ2SpawnType@@QAEPAXI@Z 0302d3d0 f i MQ2DataTypes.obj
 0001:0002c400       ??_GMQ2SpellType@@QAEPAXI@Z 0302d400 f i MQ2DataTypes.obj
 0001:0002c430       ??_GMQ2StringType@@QAEPAXI@Z 0302d430 f i MQ2DataTypes.obj
 0001:0002c460       ??_GMQ2SwitchType@@QAEPAXI@Z 0302d460 f i MQ2DataTypes.obj
 0001:0002c490       ??_GMQ2TargetType@@QAEPAXI@Z 0302d490 f i MQ2DataTypes.obj
 0001:0002c4c0       ??_GMQ2TicksType@@QAEPAXI@Z 0302d4c0 f i MQ2DataTypes.obj
 0001:0002c4f0       ??_GMQ2TimeType@@QAEPAXI@Z 0302d4f0 f i MQ2DataTypes.obj
 0001:0002c520       ??_GMQ2TimerType@@QAEPAXI@Z 0302d520 f i MQ2DataTypes.obj
 0001:0002c550       ??_GMQ2TypeType@@QAEPAXI@Z 0302d550 f i MQ2DataTypes.obj
 0001:0002c580       ??_GMQ2WindowType@@QAEPAXI@Z 0302d580 f i MQ2DataTypes.obj
 0001:0002c5b0       ??_GMQ2XTargetType@@QAEPAXI@Z 0302d5b0 f i MQ2DataTypes.obj
 0001:0002c5e0       ??_GMQ2ZoneType@@QAEPAXI@Z 0302d5e0 f i MQ2DataTypes.obj
 0001:0002c610       ?FreeVariable@MQ2ArrayType@@UAEXAAU_MQ2VarPtr@MQ2Internal@@@Z 0302d610 f i MQ2DataTypes.obj
 0001:0002c640       ?FreeVariable@MQ2BuffType@@UAEXAAU_MQ2VarPtr@MQ2Internal@@@Z 0302d640 f i MQ2DataTypes.obj
 0001:0002c660       ?FreeVariable@MQ2CharacterType@@UAEXAAU_MQ2VarPtr@MQ2Internal@@@Z 0302d660 f i MQ2DataTypes.obj
 0001:0002c680       ?FreeVariable@MQ2GroundType@@UAEXAAU_MQ2VarPtr@MQ2Internal@@@Z 0302d680 f i MQ2DataTypes.obj
 0001:0002c6a0       ?FreeVariable@MQ2ItemType@@UAEXAAU_MQ2VarPtr@MQ2Internal@@@Z 0302d6a0 f i MQ2DataTypes.obj
 0001:0002c6c0       ?FreeVariable@MQ2SpawnType@@UAEXAAU_MQ2VarPtr@MQ2Internal@@@Z 0302d6c0 f i MQ2DataTypes.obj
 0001:0002c6e0       ?FreeVariable@MQ2SpellType@@UAEXAAU_MQ2VarPtr@MQ2Internal@@@Z 0302d6e0 f i MQ2DataTypes.obj
 0001:0002c700       ?FreeVariable@MQ2StringType@@UAEXAAU_MQ2VarPtr@MQ2Internal@@@Z 0302d700 f i MQ2DataTypes.obj
 0001:0002c720       ?FreeVariable@MQ2SwitchType@@UAEXAAU_MQ2VarPtr@MQ2Internal@@@Z 0302d720 f i MQ2DataTypes.obj
 0001:0002c740       ?FreeVariable@MQ2TargetType@@UAEXAAU_MQ2VarPtr@MQ2Internal@@@Z 0302d740 f i MQ2DataTypes.obj
 0001:0002c760       ?FreeVariable@MQ2TimeType@@UAEXAAU_MQ2VarPtr@MQ2Internal@@@Z 0302d760 f i MQ2DataTypes.obj
 0001:0002c780       ?FreeVariable@MQ2TimerType@@UAEXAAU_MQ2VarPtr@MQ2Internal@@@Z 0302d780 f i MQ2DataTypes.obj
 0001:0002c7c0       ?FromData@MQ2AltAbilityType@@UAE_NAAU_MQ2VarPtr@MQ2Internal@@AAU_MQ2TypeVar@3@@Z 0302d7c0 f i MQ2DataTypes.obj
 0001:0002c7f0       ?FromData@MQ2ArgbType@@UAE_NAAU_MQ2VarPtr@MQ2Internal@@AAU_MQ2TypeVar@3@@Z 0302d7f0 f i MQ2DataTypes.obj
 0001:0002c810       ?FromData@MQ2ArrayType@@UAE_NAAU_MQ2VarPtr@MQ2Internal@@AAU_MQ2TypeVar@3@@Z 0302d810 f i MQ2DataTypes.obj
 0001:0002c820       ?FromData@MQ2BodyType@@UAE_NAAU_MQ2VarPtr@MQ2Internal@@AAU_MQ2TypeVar@3@@Z 0302d820 f i MQ2DataTypes.obj
 0001:0002c840       ?FromData@MQ2BoolType@@UAE_NAAU_MQ2VarPtr@MQ2Internal@@AAU_MQ2TypeVar@3@@Z 0302d840 f i MQ2DataTypes.obj
 0001:0002c860       ?FromData@MQ2BuffType@@UAE_NAAU_MQ2VarPtr@MQ2Internal@@AAU_MQ2TypeVar@3@@Z 0302d860 f i MQ2DataTypes.obj
 0001:0002c8c0       ?FromData@MQ2ByteType@@UAE_NAAU_MQ2VarPtr@MQ2Internal@@AAU_MQ2TypeVar@3@@Z 0302d8c0 f i MQ2DataTypes.obj
 0001:0002c8e0       ?FromData@MQ2CharacterType@@UAE_NAAU_MQ2VarPtr@MQ2Internal@@AAU_MQ2TypeVar@3@@Z 0302d8e0 f i MQ2DataTypes.obj
 0001:0002c920       ?FromData@MQ2ClassType@@UAE_NAAU_MQ2VarPtr@MQ2Internal@@AAU_MQ2TypeVar@3@@Z 0302d920 f i MQ2DataTypes.obj
 0001:0002c940       ?FromData@MQ2CorpseType@@UAE_NAAU_MQ2VarPtr@MQ2Internal@@AAU_MQ2TypeVar@3@@Z 0302d940 f i MQ2DataTypes.obj
 0001:0002c950       ?FromData@MQ2CurrentZoneType@@UAE_NAAU_MQ2VarPtr@MQ2Internal@@AAU_MQ2TypeVar@3@@Z 0302d950 f i MQ2DataTypes.obj
 0001:0002c980       ?FromData@MQ2DZMemberType@@UAE_NAAU_MQ2VarPtr@MQ2Internal@@AAU_MQ2TypeVar@3@@Z 0302d980 f i MQ2DataTypes.obj
 0001:0002c990       ?FromData@MQ2DeityType@@UAE_NAAU_MQ2VarPtr@MQ2Internal@@AAU_MQ2TypeVar@3@@Z 0302d990 f i MQ2DataTypes.obj
 0001:0002c9b0       ?FromData@MQ2DynamicZoneType@@UAE_NAAU_MQ2VarPtr@MQ2Internal@@AAU_MQ2TypeVar@3@@Z 0302d9b0 f i MQ2DataTypes.obj
 0001:0002c9c0       ?FromData@MQ2EvolvingItemType@@UAE_NAAU_MQ2VarPtr@MQ2Internal@@AAU_MQ2TypeVar@3@@Z 0302d9c0 f i MQ2DataTypes.obj
 0001:0002c9d0       ?FromData@MQ2FellowshipMemberType@@UAE_NAAU_MQ2VarPtr@MQ2Internal@@AAU_MQ2TypeVar@3@@Z 0302d9d0 f i MQ2DataTypes.obj
 0001:0002c9e0       ?FromData@MQ2FellowshipType@@UAE_NAAU_MQ2VarPtr@MQ2Internal@@AAU_MQ2TypeVar@3@@Z 0302d9e0 f i MQ2DataTypes.obj
 0001:0002c9f0       ?FromData@MQ2FloatType@@UAE_NAAU_MQ2VarPtr@MQ2Internal@@AAU_MQ2TypeVar@3@@Z 0302d9f0 f i MQ2DataTypes.obj
 0001:0002ca40       ?FromData@MQ2FriendsType@@UAE_NAAU_MQ2VarPtr@MQ2Internal@@AAU_MQ2TypeVar@3@@Z 0302da40 f i MQ2DataTypes.obj
 0001:0002ca50       ?FromData@MQ2GroundType@@UAE_NAAU_MQ2VarPtr@MQ2Internal@@AAU_MQ2TypeVar@3@@Z 0302da50 f i MQ2DataTypes.obj
 0001:0002ca80       ?FromData@MQ2GroupMemberType@@UAE_NAAU_MQ2VarPtr@MQ2Internal@@AAU_MQ2TypeVar@3@@Z 0302da80 f i MQ2DataTypes.obj
 0001:0002cab0       ?FromData@MQ2GroupType@@UAE_NAAU_MQ2VarPtr@MQ2Internal@@AAU_MQ2TypeVar@3@@Z 0302dab0 f i MQ2DataTypes.obj
 0001:0002cac0       ?FromData@MQ2HeadingType@@UAE_NAAU_MQ2VarPtr@MQ2Internal@@AAU_MQ2TypeVar@3@@Z 0302dac0 f i MQ2DataTypes.obj
 0001:0002cb10       ?FromData@MQ2IntType@@UAE_NAAU_MQ2VarPtr@MQ2Internal@@AAU_MQ2TypeVar@3@@Z 0302db10 f i MQ2DataTypes.obj
 0001:0002cb30       ?FromData@MQ2InvSlotType@@UAE_NAAU_MQ2VarPtr@MQ2Internal@@AAU_MQ2TypeVar@3@@Z 0302db30 f i MQ2DataTypes.obj
 0001:0002cb50       ?FromData@MQ2ItemType@@UAE_NAAU_MQ2VarPtr@MQ2Internal@@AAU_MQ2TypeVar@3@@Z 0302db50 f i MQ2DataTypes.obj
 0001:0002cb80       ?FromData@MQ2MacroQuestType@@UAE_NAAU_MQ2VarPtr@MQ2Internal@@AAU_MQ2TypeVar@3@@Z 0302db80 f i MQ2DataTypes.obj
 0001:0002cb90       ?FromData@MQ2MacroType@@UAE_NAAU_MQ2VarPtr@MQ2Internal@@AAU_MQ2TypeVar@3@@Z 0302db90 f i MQ2DataTypes.obj
 0001:0002cba0       ?FromData@MQ2MathType@@UAE_NAAU_MQ2VarPtr@MQ2Internal@@AAU_MQ2TypeVar@3@@Z 0302dba0 f i MQ2DataTypes.obj
 0001:0002cbb0       ?FromData@MQ2MerchantType@@UAE_NAAU_MQ2VarPtr@MQ2Internal@@AAU_MQ2TypeVar@3@@Z 0302dbb0 f i MQ2DataTypes.obj
 0001:0002cbc0       ?FromData@MQ2PluginType@@UAE_NAAU_MQ2VarPtr@MQ2Internal@@AAU_MQ2TypeVar@3@@Z 0302dbc0 f i MQ2DataTypes.obj
 0001:0002cbf0       ?FromData@MQ2RaceType@@UAE_NAAU_MQ2VarPtr@MQ2Internal@@AAU_MQ2TypeVar@3@@Z 0302dbf0 f i MQ2DataTypes.obj
 0001:0002cc10       ?FromData@MQ2RaidMemberType@@UAE_NAAU_MQ2VarPtr@MQ2Internal@@AAU_MQ2TypeVar@3@@Z 0302dc10 f i MQ2DataTypes.obj
 0001:0002cc40       ?FromData@MQ2RaidType@@UAE_NAAU_MQ2VarPtr@MQ2Internal@@AAU_MQ2TypeVar@3@@Z 0302dc40 f i MQ2DataTypes.obj
 0001:0002cc50       ?FromData@MQ2SkillType@@UAE_NAAU_MQ2VarPtr@MQ2Internal@@AAU_MQ2TypeVar@3@@Z 0302dc50 f i MQ2DataTypes.obj
 0001:0002cc80       ?FromData@MQ2SpawnType@@UAE_NAAU_MQ2VarPtr@MQ2Internal@@AAU_MQ2TypeVar@3@@Z 0302dc80 f i MQ2DataTypes.obj
 0001:0002cce0       ?FromData@MQ2SpellType@@UAE_NAAU_MQ2VarPtr@MQ2Internal@@AAU_MQ2TypeVar@3@@Z 0302dce0 f i MQ2DataTypes.obj
 0001:0002cd20       ?FromData@MQ2StringType@@UAE_NAAU_MQ2VarPtr@MQ2Internal@@AAU_MQ2TypeVar@3@@Z 0302dd20 f i MQ2DataTypes.obj
 0001:0002cd60       ?FromData@MQ2SwitchType@@UAE_NAAU_MQ2VarPtr@MQ2Internal@@AAU_MQ2TypeVar@3@@Z 0302dd60 f i MQ2DataTypes.obj
 0001:0002cd90       ?FromData@MQ2TargetType@@UAE_NAAU_MQ2VarPtr@MQ2Internal@@AAU_MQ2TypeVar@3@@Z 0302dd90 f i MQ2DataTypes.obj
 0001:0002cdf0       ?FromData@MQ2TimeType@@UAE_NAAU_MQ2VarPtr@MQ2Internal@@AAU_MQ2TypeVar@3@@Z 0302ddf0 f i MQ2DataTypes.obj
 0001:0002ce30       ?FromData@MQ2TimerType@@UAE_NAAU_MQ2VarPtr@MQ2Internal@@AAU_MQ2TypeVar@3@@Z 0302de30 f i MQ2DataTypes.obj
 0001:0002ce70       ?FromData@MQ2TypeType@@UAE_NAAU_MQ2VarPtr@MQ2Internal@@AAU_MQ2TypeVar@3@@Z 0302de70 f i MQ2DataTypes.obj
 0001:0002ce90       ?FromData@MQ2WindowType@@UAE_NAAU_MQ2VarPtr@MQ2Internal@@AAU_MQ2TypeVar@3@@Z 0302de90 f i MQ2DataTypes.obj
 0001:0002cec0       ?FromData@MQ2XTargetType@@UAE_NAAU_MQ2VarPtr@MQ2Internal@@AAU_MQ2TypeVar@3@@Z 0302dec0 f i MQ2DataTypes.obj
 0001:0002ced0       ?FromData@MQ2ZoneType@@UAE_NAAU_MQ2VarPtr@MQ2Internal@@AAU_MQ2TypeVar@3@@Z 0302ded0 f i MQ2DataTypes.obj
 0001:0002cf30       ?FromString@MQ2AltAbilityType@@UAE_NAAU_MQ2VarPtr@MQ2Internal@@PAD@Z 0302df30 f i MQ2DataTypes.obj
 0001:0002cf40       ?FromString@MQ2ArgbType@@UAE_NAAU_MQ2VarPtr@MQ2Internal@@PAD@Z 0302df40 f i MQ2DataTypes.obj
 0001:0002cf60       ?FromString@MQ2ArrayType@@UAE_NAAU_MQ2VarPtr@MQ2Internal@@PAD@Z 0302df60 f i MQ2DataTypes.obj
 0001:0002cf70       ?FromString@MQ2BodyType@@UAE_NAAU_MQ2VarPtr@MQ2Internal@@PAD@Z 0302df70 f i MQ2DataTypes.obj
 0001:0002cf90       ?FromString@MQ2BoolType@@UAE_NAAU_MQ2VarPtr@MQ2Internal@@PAD@Z 0302df90 f i MQ2DataTypes.obj
 0001:0002cff0       ?FromString@MQ2BuffType@@UAE_NAAU_MQ2VarPtr@MQ2Internal@@PAD@Z 0302dff0 f i MQ2DataTypes.obj
 0001:0002d000       ?FromString@MQ2ByteType@@UAE_NAAU_MQ2VarPtr@MQ2Internal@@PAD@Z 0302e000 f i MQ2DataTypes.obj
 0001:0002d030       ?FromString@MQ2CharacterType@@UAE_NAAU_MQ2VarPtr@MQ2Internal@@PAD@Z 0302e030 f i MQ2DataTypes.obj
 0001:0002d040       ?FromString@MQ2ClassType@@UAE_NAAU_MQ2VarPtr@MQ2Internal@@PAD@Z 0302e040 f i MQ2DataTypes.obj
 0001:0002d060       ?FromString@MQ2CorpseType@@UAE_NAAU_MQ2VarPtr@MQ2Internal@@PAD@Z 0302e060 f i MQ2DataTypes.obj
 0001:0002d070       ?FromString@MQ2CurrentZoneType@@UAE_NAAU_MQ2VarPtr@MQ2Internal@@PAD@Z 0302e070 f i MQ2DataTypes.obj
 0001:0002d080       ?FromString@MQ2DZMemberType@@UAE_NAAU_MQ2VarPtr@MQ2Internal@@PAD@Z 0302e080 f i MQ2DataTypes.obj
 0001:0002d090       ?FromString@MQ2DeityType@@UAE_NAAU_MQ2VarPtr@MQ2Internal@@PAD@Z 0302e090 f i MQ2DataTypes.obj
 0001:0002d0b0       ?FromString@MQ2DynamicZoneType@@UAE_NAAU_MQ2VarPtr@MQ2Internal@@PAD@Z 0302e0b0 f i MQ2DataTypes.obj
 0001:0002d0c0       ?FromString@MQ2EvolvingItemType@@UAE_NAAU_MQ2VarPtr@MQ2Internal@@PAD@Z 0302e0c0 f i MQ2DataTypes.obj
 0001:0002d0d0       ?FromString@MQ2FellowshipMemberType@@UAE_NAAU_MQ2VarPtr@MQ2Internal@@PAD@Z 0302e0d0 f i MQ2DataTypes.obj
 0001:0002d0e0       ?FromString@MQ2FellowshipType@@UAE_NAAU_MQ2VarPtr@MQ2Internal@@PAD@Z 0302e0e0 f i MQ2DataTypes.obj
 0001:0002d0f0       ?FromString@MQ2FloatType@@UAE_NAAU_MQ2VarPtr@MQ2Internal@@PAD@Z 0302e0f0 f i MQ2DataTypes.obj
 0001:0002d110       ?FromString@MQ2FriendsType@@UAE_NAAU_MQ2VarPtr@MQ2Internal@@PAD@Z 0302e110 f i MQ2DataTypes.obj
 0001:0002d120       ?FromString@MQ2GroundType@@UAE_NAAU_MQ2VarPtr@MQ2Internal@@PAD@Z 0302e120 f i MQ2DataTypes.obj
 0001:0002d130       ?FromString@MQ2GroupMemberType@@UAE_NAAU_MQ2VarPtr@MQ2Internal@@PAD@Z 0302e130 f i MQ2DataTypes.obj
 0001:0002d140       ?FromString@MQ2GroupType@@UAE_NAAU_MQ2VarPtr@MQ2Internal@@PAD@Z 0302e140 f i MQ2DataTypes.obj
 0001:0002d150       ?FromString@MQ2HeadingType@@UAE_NAAU_MQ2VarPtr@MQ2Internal@@PAD@Z 0302e150 f i MQ2DataTypes.obj
 0001:0002d170       ?FromString@MQ2IntType@@UAE_NAAU_MQ2VarPtr@MQ2Internal@@PAD@Z 0302e170 f i MQ2DataTypes.obj
 0001:0002d190       ?FromString@MQ2InvSlotType@@UAE_NAAU_MQ2VarPtr@MQ2Internal@@PAD@Z 0302e190 f i MQ2DataTypes.obj
 0001:0002d2c0       ?FromString@MQ2ItemType@@UAE_NAAU_MQ2VarPtr@MQ2Internal@@PAD@Z 0302e2c0 f i MQ2DataTypes.obj
 0001:0002d2d0       ?FromString@MQ2MacroQuestType@@UAE_NAAU_MQ2VarPtr@MQ2Internal@@PAD@Z 0302e2d0 f i MQ2DataTypes.obj
 0001:0002d2e0       ?FromString@MQ2MacroType@@UAE_NAAU_MQ2VarPtr@MQ2Internal@@PAD@Z 0302e2e0 f i MQ2DataTypes.obj
 0001:0002d2f0       ?FromString@MQ2MathType@@UAE_NAAU_MQ2VarPtr@MQ2Internal@@PAD@Z 0302e2f0 f i MQ2DataTypes.obj
 0001:0002d300       ?FromString@MQ2MerchantType@@UAE_NAAU_MQ2VarPtr@MQ2Internal@@PAD@Z 0302e300 f i MQ2DataTypes.obj
 0001:0002d310       ?FromString@MQ2PluginType@@UAE_NAAU_MQ2VarPtr@MQ2Internal@@PAD@Z 0302e310 f i MQ2DataTypes.obj
 0001:0002d320       ?FromString@MQ2RaceType@@UAE_NAAU_MQ2VarPtr@MQ2Internal@@PAD@Z 0302e320 f i MQ2DataTypes.obj
 0001:0002d340       ?FromString@MQ2RaidMemberType@@UAE_NAAU_MQ2VarPtr@MQ2Internal@@PAD@Z 0302e340 f i MQ2DataTypes.obj
 0001:0002d350       ?FromString@MQ2RaidType@@UAE_NAAU_MQ2VarPtr@MQ2Internal@@PAD@Z 0302e350 f i MQ2DataTypes.obj
 0001:0002d360       ?FromString@MQ2SkillType@@UAE_NAAU_MQ2VarPtr@MQ2Internal@@PAD@Z 0302e360 f i MQ2DataTypes.obj
 0001:0002d370       ?FromString@MQ2SpawnType@@UAE_NAAU_MQ2VarPtr@MQ2Internal@@PAD@Z 0302e370 f i MQ2DataTypes.obj
 0001:0002d3b0       ?FromString@MQ2SpellType@@UAE_NAAU_MQ2VarPtr@MQ2Internal@@PAD@Z 0302e3b0 f i MQ2DataTypes.obj
 0001:0002d3c0       ?FromString@MQ2StringType@@UAE_NAAU_MQ2VarPtr@MQ2Internal@@PAD@Z 0302e3c0 f i MQ2DataTypes.obj
 0001:0002d3f0       ?FromString@MQ2SwitchType@@UAE_NAAU_MQ2VarPtr@MQ2Internal@@PAD@Z 0302e3f0 f i MQ2DataTypes.obj
 0001:0002d400       ?FromString@MQ2TargetType@@UAE_NAAU_MQ2VarPtr@MQ2Internal@@PAD@Z 0302e400 f i MQ2DataTypes.obj
 0001:0002d440       ?FromString@MQ2TimeType@@UAE_NAAU_MQ2VarPtr@MQ2Internal@@PAD@Z 0302e440 f i MQ2DataTypes.obj
 0001:0002d450       ?FromString@MQ2TimerType@@UAE_NAAU_MQ2VarPtr@MQ2Internal@@PAD@Z 0302e450 f i MQ2DataTypes.obj
 0001:0002d530       ?FromString@MQ2TypeType@@UAE_NAAU_MQ2VarPtr@MQ2Internal@@PAD@Z 0302e530 f i MQ2DataTypes.obj
 0001:0002d550       ?FromString@MQ2WindowType@@UAE_NAAU_MQ2VarPtr@MQ2Internal@@PAD@Z 0302e550 f i MQ2DataTypes.obj
 0001:0002d570       ?FromString@MQ2XTargetType@@UAE_NAAU_MQ2VarPtr@MQ2Internal@@PAD@Z 0302e570 f i MQ2DataTypes.obj
 0001:0002d580       ?FromString@MQ2ZoneType@@UAE_NAAU_MQ2VarPtr@MQ2Internal@@PAD@Z 0302e580 f i MQ2DataTypes.obj
 0001:0002d590       ?GetMember@MQ2BoolType@@UAE_NU_MQ2VarPtr@MQ2Internal@@PAD1AAU_MQ2TypeVar@3@@Z 0302e590 f i MQ2DataTypes.obj
 0001:0002d5a0       ?GetMember@MQ2ByteType@@UAE_NU_MQ2VarPtr@MQ2Internal@@PAD1AAU_MQ2TypeVar@3@@Z 0302e5a0 f i MQ2DataTypes.obj
 0001:0002d5b0       ?GetMemberID@MQ2Type@MQ2Internal@@QAEHPADAAK@Z 0302e5b0 f i MQ2DataTypes.obj
 0001:0002d650       ?GetMemberName@MQ2Type@MQ2Internal@@QAEPADK@Z 0302e650 f i MQ2DataTypes.obj
 0001:0002d690       ?InitVariable@MQ2ArrayType@@UAEXAAU_MQ2VarPtr@MQ2Internal@@@Z 0302e690 f i MQ2DataTypes.obj
 0001:0002d6a0       ?InitVariable@MQ2BuffType@@UAEXAAU_MQ2VarPtr@MQ2Internal@@@Z 0302e6a0 f i MQ2DataTypes.obj
 0001:0002d6c0       ?InitVariable@MQ2CharacterType@@UAEXAAU_MQ2VarPtr@MQ2Internal@@@Z 0302e6c0 f i MQ2DataTypes.obj
 0001:0002d6f0       ?InitVariable@MQ2GroundType@@UAEXAAU_MQ2VarPtr@MQ2Internal@@@Z 0302e6f0 f i MQ2DataTypes.obj
 0001:0002d720       ?InitVariable@MQ2ItemType@@UAEXAAU_MQ2VarPtr@MQ2Internal@@@Z 0302e720 f i MQ2DataTypes.obj
 0001:0002d750       ?InitVariable@MQ2SpawnType@@UAEXAAU_MQ2VarPtr@MQ2Internal@@@Z 0302e750 f i MQ2DataTypes.obj
 0001:0002d780       ?InitVariable@MQ2SpellType@@UAEXAAU_MQ2VarPtr@MQ2Internal@@@Z 0302e780 f i MQ2DataTypes.obj
 0001:0002d7b0       ?InitVariable@MQ2StringType@@UAEXAAU_MQ2VarPtr@MQ2Internal@@@Z 0302e7b0 f i MQ2DataTypes.obj
 0001:0002d7e0       ?InitVariable@MQ2SwitchType@@UAEXAAU_MQ2VarPtr@MQ2Internal@@@Z 0302e7e0 f i MQ2DataTypes.obj
 0001:0002d810       ?InitVariable@MQ2TargetType@@UAEXAAU_MQ2VarPtr@MQ2Internal@@@Z 0302e810 f i MQ2DataTypes.obj
 0001:0002d840       ?InitVariable@MQ2TimeType@@UAEXAAU_MQ2VarPtr@MQ2Internal@@@Z 0302e840 f i MQ2DataTypes.obj
 0001:0002d870       ?InitVariable@MQ2TimerType@@UAEXAAU_MQ2VarPtr@MQ2Internal@@@Z 0302e870 f i MQ2DataTypes.obj
 0001:0002d8c0       ?SetInheritance@MQ2Type@MQ2Internal@@QAEXPAV12@@Z 0302e8c0 f i MQ2DataTypes.obj
 0001:0002d8d0       ?ToString@MQ2ArgbType@@UAE_NU_MQ2VarPtr@MQ2Internal@@PAD@Z 0302e8d0 f i MQ2DataTypes.obj
 0001:0002d8f0       ?ToString@MQ2ArrayType@@UAE_NU_MQ2VarPtr@MQ2Internal@@PAD@Z 0302e8f0 f i MQ2DataTypes.obj
 0001:0002d900       ?ToString@MQ2BodyType@@UAE_NU_MQ2VarPtr@MQ2Internal@@PAD@Z 0302e900 f i MQ2DataTypes.obj
 0001:0002d940       ?ToString@MQ2BoolType@@UAE_NU_MQ2VarPtr@MQ2Internal@@PAD@Z 0302e940 f i MQ2DataTypes.obj
 0001:0002d980       ?ToString@MQ2BuffType@@UAE_NU_MQ2VarPtr@MQ2Internal@@PAD@Z 0302e980 f i MQ2DataTypes.obj
 0001:0002d9d0       ?ToString@MQ2ByteType@@UAE_NU_MQ2VarPtr@MQ2Internal@@PAD@Z 0302e9d0 f i MQ2DataTypes.obj
 0001:0002d9f0       ?ToString@MQ2CharacterType@@UAE_NU_MQ2VarPtr@MQ2Internal@@PAD@Z 0302e9f0 f i MQ2DataTypes.obj
 0001:0002da30       ?ToString@MQ2ClassType@@UAE_NU_MQ2VarPtr@MQ2Internal@@PAD@Z 0302ea30 f i MQ2DataTypes.obj
 0001:0002da60       ?ToString@MQ2CorpseType@@UAE_NU_MQ2VarPtr@MQ2Internal@@PAD@Z 0302ea60 f i MQ2DataTypes.obj
 0001:0002dab0       ?ToString@MQ2CurrentZoneType@@UAE_NU_MQ2VarPtr@MQ2Internal@@PAD@Z 0302eab0 f i MQ2DataTypes.obj
 0001:0002dae0       ?ToString@MQ2DZMemberType@@UAE_NU_MQ2VarPtr@MQ2Internal@@PAD@Z 0302eae0 f i MQ2DataTypes.obj
 0001:0002db10       ?ToString@MQ2DeityType@@UAE_NU_MQ2VarPtr@MQ2Internal@@PAD@Z 0302eb10 f i MQ2DataTypes.obj
 0001:0002db50       ?ToString@MQ2DynamicZoneType@@UAE_NU_MQ2VarPtr@MQ2Internal@@PAD@Z 0302eb50 f i MQ2DataTypes.obj
 0001:0002db90       ?ToString@MQ2EvolvingItemType@@UAE_NU_MQ2VarPtr@MQ2Internal@@PAD@Z 0302eb90 f i MQ2DataTypes.obj
 0001:0002dbe0       ?ToString@MQ2FellowshipMemberType@@UAE_NU_MQ2VarPtr@MQ2Internal@@PAD@Z 0302ebe0 f i MQ2DataTypes.obj
 0001:0002dc10       ?ToString@MQ2FellowshipType@@UAE_NU_MQ2VarPtr@MQ2Internal@@PAD@Z 0302ec10 f i MQ2DataTypes.obj
 0001:0002dc60       ?ToString@MQ2FloatType@@UAE_NU_MQ2VarPtr@MQ2Internal@@PAD@Z 0302ec60 f i MQ2DataTypes.obj
 0001:0002dc90       ?ToString@MQ2FriendsType@@UAE_NU_MQ2VarPtr@MQ2Internal@@PAD@Z 0302ec90 f i MQ2DataTypes.obj
 0001:0002dcd0       ?ToString@MQ2GroundType@@UAE_NU_MQ2VarPtr@MQ2Internal@@PAD@Z 0302ecd0 f i MQ2DataTypes.obj
 0001:0002dd00       ?ToString@MQ2HeadingType@@UAE_NU_MQ2VarPtr@MQ2Internal@@PAD@Z 0302ed00 f i MQ2DataTypes.obj
 0001:0002dd60       ?ToString@MQ2IntType@@UAE_NU_MQ2VarPtr@MQ2Internal@@PAD@Z 0302ed60 f i MQ2DataTypes.obj
 0001:0002dd80       ?ToString@MQ2InvSlotType@@UAE_NU_MQ2VarPtr@MQ2Internal@@PAD@Z 0302ed80 f i MQ2DataTypes.obj
 0001:0002dda0       ?ToString@MQ2ItemType@@UAE_NU_MQ2VarPtr@MQ2Internal@@PAD@Z 0302eda0 f i MQ2DataTypes.obj
 0001:0002dde0       ?ToString@MQ2MacroQuestType@@UAE_NU_MQ2VarPtr@MQ2Internal@@PAD@Z 0302ede0 f i MQ2DataTypes.obj
 0001:0002ddf0       ?ToString@MQ2MacroType@@UAE_NU_MQ2VarPtr@MQ2Internal@@PAD@Z 0302edf0 f i MQ2DataTypes.obj
 0001:0002de20       ?ToString@MQ2MathType@@UAE_NU_MQ2VarPtr@MQ2Internal@@PAD@Z 0302ee20 f i MQ2DataTypes.obj
 0001:0002de30       ?ToString@MQ2MerchantType@@UAE_NU_MQ2VarPtr@MQ2Internal@@PAD@Z 0302ee30 f i MQ2DataTypes.obj
 0001:0002de80       ?ToString@MQ2PluginType@@UAE_NU_MQ2VarPtr@MQ2Internal@@PAD@Z 0302ee80 f i MQ2DataTypes.obj
 0001:0002deb0       ?ToString@MQ2RaceType@@UAE_NU_MQ2VarPtr@MQ2Internal@@PAD@Z 0302eeb0 f i MQ2DataTypes.obj
 0001:0002def0       ?ToString@MQ2RaidMemberType@@UAE_NU_MQ2VarPtr@MQ2Internal@@PAD@Z 0302eef0 f i MQ2DataTypes.obj
 0001:0002df40       ?ToString@MQ2RaidType@@UAE_NU_MQ2VarPtr@MQ2Internal@@PAD@Z 0302ef40 f i MQ2DataTypes.obj
 0001:0002df50       ?ToString@MQ2SkillType@@UAE_NU_MQ2VarPtr@MQ2Internal@@PAD@Z 0302ef50 f i MQ2DataTypes.obj
 0001:0002dfa0       ?ToString@MQ2SpawnType@@UAE_NU_MQ2VarPtr@MQ2Internal@@PAD@Z 0302efa0 f i MQ2DataTypes.obj
 0001:0002dfe0       ?ToString@MQ2SpellType@@UAE_NU_MQ2VarPtr@MQ2Internal@@PAD@Z 0302efe0 f i MQ2DataTypes.obj
 0001:0002e020       ?ToString@MQ2StringType@@UAE_NU_MQ2VarPtr@MQ2Internal@@PAD@Z 0302f020 f i MQ2DataTypes.obj
 0001:0002e050       ?ToString@MQ2SwitchType@@UAE_NU_MQ2VarPtr@MQ2Internal@@PAD@Z 0302f050 f i MQ2DataTypes.obj
 0001:0002e080       ?ToString@MQ2TargetType@@UAE_NU_MQ2VarPtr@MQ2Internal@@PAD@Z 0302f080 f i MQ2DataTypes.obj
 0001:0002e0c0       ?ToString@MQ2TimeType@@UAE_NU_MQ2VarPtr@MQ2Internal@@PAD@Z 0302f0c0 f i MQ2DataTypes.obj
 0001:0002e0f0       ?ToString@MQ2TimerType@@UAE_NU_MQ2VarPtr@MQ2Internal@@PAD@Z 0302f0f0 f i MQ2DataTypes.obj
 0001:0002e110       ?ToString@MQ2TypeType@@UAE_NU_MQ2VarPtr@MQ2Internal@@PAD@Z 0302f110 f i MQ2DataTypes.obj
 0001:0002e140       ?ToString@MQ2WindowType@@UAE_NU_MQ2VarPtr@MQ2Internal@@PAD@Z 0302f140 f i MQ2DataTypes.obj
 0001:0002e190       ?ToString@MQ2XTargetType@@UAE_NU_MQ2VarPtr@MQ2Internal@@PAD@Z 0302f190 f i MQ2DataTypes.obj
 0001:0002e230       ?ToString@MQ2ZoneType@@UAE_NU_MQ2VarPtr@MQ2Internal@@PAD@Z 0302f230 f i MQ2DataTypes.obj
 0001:0002e260       ?fabs@@YAMM@Z              0302f260 f i MQ2DataTypes.obj
 0001:0002e290       _fabsf                     0302f290 f i MQ2DataTypes.obj
 0001:0002e2c0       ?EventBlechCallback@@YGXIPAXPAU_BLECHVALUE@@@Z 0302f2c0 f   MQ2DataVars.obj
 0001:0002e460       _CheckChatForEvent         0302f460 f   MQ2DataVars.obj
 0001:0002eb10       _AddMQ2DataVariable        0302fb10 f   MQ2DataVars.obj
 0001:0002eb30       _AddMQ2DataVariableFromData 0302fb30 f   MQ2DataVars.obj
 0001:0002eb50       _FindVariableScope         0302fb50 f   MQ2DataVars.obj
 0001:0002ebc0       _DeleteMQ2DataVariable     0302fbc0 f   MQ2DataVars.obj
 0001:0002ebf0       _ClearMQ2DataVariables     0302fbf0 f   MQ2DataVars.obj
 0001:0002ed80       _NewDeclareVar             0302fd80 f   MQ2DataVars.obj
 0001:0002f000       _NewDeleteVarCmd           03030000 f   MQ2DataVars.obj
 0001:0002f060       _NewVarset                 03030060 f   MQ2DataVars.obj
 0001:0002f220       _NewVarcalc                03030220 f   MQ2DataVars.obj
 0001:0002f430       _NewVardata                03030430 f   MQ2DataVars.obj
 0001:0002f650       _DropTimers                03030650 f   MQ2DataVars.obj
 0001:0002f6c0       ?AddMQ2DataEventVariable@@YAHPAD0PAVMQ2Type@MQ2Internal@@PAPAU_DATAVAR@2@0@Z 030306c0 f   MQ2DataVars.obj
 0001:0002f820       ?AddMQ2DataVariableBy@@YAHPAD0PAVMQ2Type@MQ2Internal@@PAPAU_DATAVAR@2@0H@Z 03030820 f   MQ2DataVars.obj
 0001:0002f9b0       ?AddEvent@@YAXKPADZZ       030309b0 f   MQ2DataVars.obj
 0001:0002faf0       ??$?0$$QAV?$basic_string@DU?$char_traits@D@std@@V?$allocator@D@2@@std@@$$$V@?$pair@$$CBV?$basic_string@DU?$char_traits@D@std@@V?$allocator@D@2@@std@@PAU_DATAVAR@MQ2Internal@@@std@@QAE@Upiecewise_construct_t@1@V?$tuple@$$QAV?$basic_string@DU?$char_traits@D@std@@V?$allocator@D@2@@std@@@1@V?$tuple@$$$V@1@@Z 03030af0 f i MQ2DataVars.obj
 0001:0002fb60       ??$?0AAV?$_Tree_iterator@V?$_Tree_val@U?$_Tree_simple_types@U?$pair@$$CBV?$basic_string@DU?$char_traits@D@std@@V?$allocator@D@2@@std@@PAU_DATAVAR@MQ2Internal@@@std@@@std@@@std@@@std@@_NX@?$pair@V?$_Tree_iterator@V?$_Tree_val@U?$_Tree_simple_types@U?$pair@$$CBV?$basic_string@DU?$char_traits@D@std@@V?$allocator@D@2@@std@@PAU_DATAVAR@MQ2Internal@@@std@@@std@@@std@@@std@@_N@std@@QAE@AAV?$_Tree_iterator@V?$_Tree_val@U?$_Tree_simple_types@U?$pair@$$CBV?$basic_string@DU?$char_traits@D@std@@V?$allocator@D@2@@std@@PAU_DATAVAR@MQ2Internal@@@std@@@std@@@std@@@1@$$QA_N@Z 03030b60 f i MQ2DataVars.obj
 0001:0002fb80       ??$?0V?$_Tree_iterator@V?$_Tree_val@U?$_Tree_simple_types@U?$pair@$$CBV?$basic_string@DU?$char_traits@D@std@@V?$allocator@D@2@@std@@PAU_DATAVAR@MQ2Internal@@@std@@@std@@@std@@@std@@_NX@?$pair@V?$_Tree_iterator@V?$_Tree_val@U?$_Tree_simple_types@U?$pair@$$CBV?$basic_string@DU?$char_traits@D@std@@V?$allocator@D@2@@std@@PAU_DATAVAR@MQ2Internal@@@std@@@std@@@std@@@std@@_N@std@@QAE@$$QAV?$_Tree_iterator@V?$_Tree_val@U?$_Tree_simple_types@U?$pair@$$CBV?$basic_string@DU?$char_traits@D@std@@V?$allocator@D@2@@std@@PAU_DATAVAR@MQ2Internal@@@std@@@std@@@std@@@1@$$QA_N@Z 03030b80 f i MQ2DataVars.obj
 0001:0002fba0       ??$?0V?$tuple@$$QAV?$basic_string@DU?$char_traits@D@std@@V?$allocator@D@2@@std@@@std@@V?$tuple@$$$V@1@$0A@$S@?$pair@$$CBV?$basic_string@DU?$char_traits@D@std@@V?$allocator@D@2@@std@@PAU_DATAVAR@MQ2Internal@@@std@@QAE@AAV?$tuple@$$QAV?$basic_string@DU?$char_traits@D@std@@V?$allocator@D@2@@std@@@1@AAV?$tuple@$$$V@1@U?$_Arg_idx@$0A@@1@U?$_Arg_idx@$S@1@@Z 03030ba0 f i MQ2DataVars.obj
 0001:0002fc10       ??$_Allocate@U?$_Tree_node@U?$pair@$$CBV?$basic_string@DU?$char_traits@D@std@@V?$allocator@D@2@@std@@PAU_DATAVAR@MQ2Internal@@@std@@PAX@std@@@std@@YAPAU?$_Tree_node@U?$pair@$$CBV?$basic_string@DU?$char_traits@D@std@@V?$allocator@D@2@@std@@PAU_DATAVAR@MQ2Internal@@@std@@PAX@0@IPAU10@@Z 03030c10 f i MQ2DataVars.obj
 0001:0002fc40       ??$_Buynode@ABUpiecewise_construct_t@std@@V?$tuple@$$QAV?$basic_string@DU?$char_traits@D@std@@V?$allocator@D@2@@std@@@2@V?$tuple@$$$V@2@@?$_Tree_buy@U?$pair@$$CBV?$basic_string@DU?$char_traits@D@std@@V?$allocator@D@2@@std@@PAU_DATAVAR@MQ2Internal@@@std@@V?$allocator@U?$pair@$$CBV?$basic_string@DU?$char_traits@D@std@@V?$allocator@D@2@@std@@PAU_DATAVAR@MQ2Internal@@@std@@@2@@std@@QAEPAU?$_Tree_node@U?$pair@$$CBV?$basic_string@DU?$char_traits@D@std@@V?$allocator@D@2@@std@@PAU_DATAVAR@MQ2Internal@@@std@@PAX@1@ABUpiecewise_construct_t@1@$$QAV?$tuple@$$QAV?$basic_string@DU?$char_traits@D@std@@V?$allocator@D@2@@std@@@1@$$QAV?$tuple@$$$V@1@@Z 03030c40 f i MQ2DataVars.obj
 0001:0002fcc0       ??$_Buynode_if_nil@AAU?$pair@$$CBV?$basic_string@DU?$char_traits@D@std@@V?$allocator@D@2@@std@@PAU_DATAVAR@MQ2Internal@@@std@@@?$_Tree@V?$_Tmap_traits@V?$basic_string@DU?$char_traits@D@std@@V?$allocator@D@2@@std@@PAU_DATAVAR@MQ2Internal@@U?$less@V?$basic_string@DU?$char_traits@D@std@@V?$allocator@D@2@@std@@@2@V?$allocator@U?$pair@$$CBV?$basic_string@DU?$char_traits@D@std@@V?$allocator@D@2@@std@@PAU_DATAVAR@MQ2Internal@@@std@@@2@$0A@@std@@@std@@IAEPAU?$_Tree_node@U?$pair@$$CBV?$basic_string@DU?$char_traits@D@std@@V?$allocator@D@2@@std@@PAU_DATAVAR@MQ2Internal@@@std@@PAX@1@PAU21@AAU?$pair@$$CBV?$basic_string@DU?$char_traits@D@std@@V?$allocator@D@2@@std@@PAU_DATAVAR@MQ2Internal@@@1@@Z 03030cc0 f i MQ2DataVars.obj
 0001:0002fcd0       ??$_Insert_at@AAU?$pair@$$CBV?$basic_string@DU?$char_traits@D@std@@V?$allocator@D@2@@std@@PAU_DATAVAR@MQ2Internal@@@std@@PAU?$_Tree_node@U?$pair@$$CBV?$basic_string@DU?$char_traits@D@std@@V?$allocator@D@2@@std@@PAU_DATAVAR@MQ2Internal@@@std@@PAX@2@@?$_Tree@V?$_Tmap_traits@V?$basic_string@DU?$char_traits@D@std@@V?$allocator@D@2@@std@@PAU_DATAVAR@MQ2Internal@@U?$less@V?$basic_string@DU?$char_traits@D@std@@V?$allocator@D@2@@std@@@2@V?$allocator@U?$pair@$$CBV?$basic_string@DU?$char_traits@D@std@@V?$allocator@D@2@@std@@PAU_DATAVAR@MQ2Internal@@@std@@@2@$0A@@std@@@std@@IAE?AV?$_Tree_iterator@V?$_Tree_val@U?$_Tree_simple_types@U?$pair@$$CBV?$basic_string@DU?$char_traits@D@std@@V?$allocator@D@2@@std@@PAU_DATAVAR@MQ2Internal@@@std@@@std@@@std@@@1@_NPAU?$_Tree_node@U?$pair@$$CBV?$basic_string@DU?$char_traits@D@std@@V?$allocator@D@2@@std@@PAU_DATAVAR@MQ2Internal@@@std@@PAX@1@AAU?$pair@$$CBV?$basic_string@DU?$char_traits@D@std@@V?$allocator@D@2@@std@@PAU_DATAVAR@MQ2Internal@@@1@1@Z 03030cd0 f i MQ2DataVars.obj
 0001:0002ff10       ??$_Insert_hint@AAU?$pair@$$CBV?$basic_string@DU?$char_traits@D@std@@V?$allocator@D@2@@std@@PAU_DATAVAR@MQ2Internal@@@std@@PAU?$_Tree_node@U?$pair@$$CBV?$basic_string@DU?$char_traits@D@std@@V?$allocator@D@2@@std@@PAU_DATAVAR@MQ2Internal@@@std@@PAX@2@@?$_Tree@V?$_Tmap_traits@V?$basic_string@DU?$char_traits@D@std@@V?$allocator@D@2@@std@@PAU_DATAVAR@MQ2Internal@@U?$less@V?$basic_string@DU?$char_traits@D@std@@V?$allocator@D@2@@std@@@2@V?$allocator@U?$pair@$$CBV?$basic_string@DU?$char_traits@D@std@@V?$allocator@D@2@@std@@PAU_DATAVAR@MQ2Internal@@@std@@@2@$0A@@std@@@std@@IAE?AV?$_Tree_iterator@V?$_Tree_val@U?$_Tree_simple_types@U?$pair@$$CBV?$basic_string@DU?$char_traits@D@std@@V?$allocator@D@2@@std@@PAU_DATAVAR@MQ2Internal@@@std@@@std@@@std@@@1@V?$_Tree_const_iterator@V?$_Tree_val@U?$_Tree_simple_types@U?$pair@$$CBV?$basic_string@DU?$char_traits@D@std@@V?$allocator@D@2@@std@@PAU_DATAVAR@MQ2Internal@@@std@@@std@@@std@@@1@AAU?$pair@$$CBV?$basic_string@DU?$char_traits@D@std@@V?$allocator@D@2@@std@@PAU_DATAVAR@MQ2Internal@@@1@PAU?$_Tree_node@U?$pair@$$CBV?$basic_string@DU?$char_traits@D@std@@V?$allocator@D@2@@std@@PAU_DATAVAR@MQ2Internal@@@std@@PAX@1@@Z 03030f10 f i MQ2DataVars.obj
 0001:000300c0       ??$_Insert_nohint@AAU?$pair@$$CBV?$basic_string@DU?$char_traits@D@std@@V?$allocator@D@2@@std@@PAU_DATAVAR@MQ2Internal@@@std@@PAU?$_Tree_node@U?$pair@$$CBV?$basic_string@DU?$char_traits@D@std@@V?$allocator@D@2@@std@@PAU_DATAVAR@MQ2Internal@@@std@@PAX@2@@?$_Tree@V?$_Tmap_traits@V?$basic_string@DU?$char_traits@D@std@@V?$allocator@D@2@@std@@PAU_DATAVAR@MQ2Internal@@U?$less@V?$basic_string@DU?$char_traits@D@std@@V?$allocator@D@2@@std@@@2@V?$allocator@U?$pair@$$CBV?$basic_string@DU?$char_traits@D@std@@V?$allocator@D@2@@std@@PAU_DATAVAR@MQ2Internal@@@std@@@2@$0A@@std@@@std@@IAE?AU?$pair@V?$_Tree_iterator@V?$_Tree_val@U?$_Tree_simple_types@U?$pair@$$CBV?$basic_string@DU?$char_traits@D@std@@V?$allocator@D@2@@std@@PAU_DATAVAR@MQ2Internal@@@std@@@std@@@std@@@std@@_N@1@_NAAU?$pair@$$CBV?$basic_string@DU?$char_traits@D@std@@V?$allocator@D@2@@std@@PAU_DATAVAR@MQ2Internal@@@1@PAU?$_Tree_node@U?$pair@$$CBV?$basic_string@DU?$char_traits@D@std@@V?$allocator@D@2@@std@@PAU_DATAVAR@MQ2Internal@@@std@@PAX@1@@Z 030310c0 f i MQ2DataVars.obj
 0001:000301d0       ??$_Kfn@$$CBV?$basic_string@DU?$char_traits@D@std@@V?$allocator@D@2@@std@@PAU_DATAVAR@MQ2Internal@@@?$_Tmap_traits@V?$basic_string@DU?$char_traits@D@std@@V?$allocator@D@2@@std@@PAU_DATAVAR@MQ2Internal@@U?$less@V?$basic_string@DU?$char_traits@D@std@@V?$allocator@D@2@@std@@@2@V?$allocator@U?$pair@$$CBV?$basic_string@DU?$char_traits@D@std@@V?$allocator@D@2@@std@@PAU_DATAVAR@MQ2Internal@@@std@@@2@$0A@@std@@SAABV?$basic_string@DU?$char_traits@D@std@@V?$allocator@D@2@@1@ABU?$pair@$$CBV?$basic_string@DU?$char_traits@D@std@@V?$allocator@D@2@@std@@PAU_DATAVAR@MQ2Internal@@@1@@Z 030311d0 f i MQ2DataVars.obj
 0001:000301e0       ??$addressof@PAU?$_Tree_node@U?$pair@$$CBV?$basic_string@DU?$char_traits@D@std@@V?$allocator@D@2@@std@@PAU_DATAVAR@MQ2Internal@@@std@@PAX@std@@@std@@YAPAPAU?$_Tree_node@U?$pair@$$CBV?$basic_string@DU?$char_traits@D@std@@V?$allocator@D@2@@std@@PAU_DATAVAR@MQ2Internal@@@std@@PAX@0@AAPAU10@@Z 030311e0 f i MQ2DataVars.obj
 0001:000301f0       ??$addressof@U?$pair@$$CBV?$basic_string@DU?$char_traits@D@std@@V?$allocator@D@2@@std@@PAU_DATAVAR@MQ2Internal@@@std@@@std@@YAPAU?$pair@$$CBV?$basic_string@DU?$char_traits@D@std@@V?$allocator@D@2@@std@@PAU_DATAVAR@MQ2Internal@@@0@AAU10@@Z 030311f0 f i MQ2DataVars.obj
 0001:00030200       ??$construct@PAU?$_Tree_node@U?$pair@$$CBV?$basic_string@DU?$char_traits@D@std@@V?$allocator@D@2@@std@@PAU_DATAVAR@MQ2Internal@@@std@@PAX@std@@AAPAU12@@?$_Wrap_alloc@V?$allocator@U?$_Tree_node@U?$pair@$$CBV?$basic_string@DU?$char_traits@D@std@@V?$allocator@D@2@@std@@PAU_DATAVAR@MQ2Internal@@@std@@PAX@std@@@std@@@std@@QAEXPAPAU?$_Tree_node@U?$pair@$$CBV?$basic_string@DU?$char_traits@D@std@@V?$allocator@D@2@@std@@PAU_DATAVAR@MQ2Internal@@@std@@PAX@1@AAPAU21@@Z 03031200 f i MQ2DataVars.obj
 0001:00030220       ??$construct@PAU?$_Tree_node@U?$pair@$$CBV?$basic_string@DU?$char_traits@D@std@@V?$allocator@D@2@@std@@PAU_DATAVAR@MQ2Internal@@@std@@PAX@std@@AAPAU12@@?$allocator@U?$_Tree_node@U?$pair@$$CBV?$basic_string@DU?$char_traits@D@std@@V?$allocator@D@2@@std@@PAU_DATAVAR@MQ2Internal@@@std@@PAX@std@@@std@@QAEXPAPAU?$_Tree_node@U?$pair@$$CBV?$basic_string@DU?$char_traits@D@std@@V?$allocator@D@2@@std@@PAU_DATAVAR@MQ2Internal@@@std@@PAX@1@AAPAU21@@Z 03031220 f i MQ2DataVars.obj
 0001:00030240       ??$construct@PAU?$_Tree_node@U?$pair@$$CBV?$basic_string@DU?$char_traits@D@std@@V?$allocator@D@2@@std@@PAU_DATAVAR@MQ2Internal@@@std@@PAX@std@@AAPAU12@@?$allocator_traits@V?$allocator@U?$_Tree_node@U?$pair@$$CBV?$basic_string@DU?$char_traits@D@std@@V?$allocator@D@2@@std@@PAU_DATAVAR@MQ2Internal@@@std@@PAX@std@@@std@@@std@@SAXAAV?$allocator@U?$_Tree_node@U?$pair@$$CBV?$basic_string@DU?$char_traits@D@std@@V?$allocator@D@2@@std@@PAU_DATAVAR@MQ2Internal@@@std@@PAX@std@@@1@PAPAU?$_Tree_node@U?$pair@$$CBV?$basic_string@DU?$char_traits@D@std@@V?$allocator@D@2@@std@@PAU_DATAVAR@MQ2Internal@@@std@@PAX@1@AAPAU31@@Z 03031240 f i MQ2DataVars.obj
 0001:00030260       ??$construct@U?$pair@$$CBV?$basic_string@DU?$char_traits@D@std@@V?$allocator@D@2@@std@@PAU_DATAVAR@MQ2Internal@@@std@@ABUpiecewise_construct_t@2@V?$tuple@$$QAV?$basic_string@DU?$char_traits@D@std@@V?$allocator@D@2@@std@@@2@V?$tuple@$$$V@2@@?$_Wrap_alloc@V?$allocator@U?$_Tree_node@U?$pair@$$CBV?$basic_string@DU?$char_traits@D@std@@V?$allocator@D@2@@std@@PAU_DATAVAR@MQ2Internal@@@std@@PAX@std@@@std@@@std@@QAEXPAU?$pair@$$CBV?$basic_string@DU?$char_traits@D@std@@V?$allocator@D@2@@std@@PAU_DATAVAR@MQ2Internal@@@1@ABUpiecewise_construct_t@1@$$QAV?$tuple@$$QAV?$basic_string@DU?$char_traits@D@std@@V?$allocator@D@2@@std@@@1@$$QAV?$tuple@$$$V@1@@Z 03031260 f i MQ2DataVars.obj
 0001:00030290       ??$construct@U?$pair@$$CBV?$basic_string@DU?$char_traits@D@std@@V?$allocator@D@2@@std@@PAU_DATAVAR@MQ2Internal@@@std@@ABUpiecewise_construct_t@2@V?$tuple@$$QAV?$basic_string@DU?$char_traits@D@std@@V?$allocator@D@2@@std@@@2@V?$tuple@$$$V@2@@?$allocator@U?$_Tree_node@U?$pair@$$CBV?$basic_string@DU?$char_traits@D@std@@V?$allocator@D@2@@std@@PAU_DATAVAR@MQ2Internal@@@std@@PAX@std@@@std@@QAEXPAU?$pair@$$CBV?$basic_string@DU?$char_traits@D@std@@V?$allocator@D@2@@std@@PAU_DATAVAR@MQ2Internal@@@1@ABUpiecewise_construct_t@1@$$QAV?$tuple@$$QAV?$basic_string@DU?$char_traits@D@std@@V?$allocator@D@2@@std@@@1@$$QAV?$tuple@$$$V@1@@Z 03031290 f i MQ2DataVars.obj
 0001:000302c0       ??$construct@U?$pair@$$CBV?$basic_string@DU?$char_traits@D@std@@V?$allocator@D@2@@std@@PAU_DATAVAR@MQ2Internal@@@std@@ABUpiecewise_construct_t@2@V?$tuple@$$QAV?$basic_string@DU?$char_traits@D@std@@V?$allocator@D@2@@std@@@2@V?$tuple@$$$V@2@@?$allocator_traits@V?$allocator@U?$_Tree_node@U?$pair@$$CBV?$basic_string@DU?$char_traits@D@std@@V?$allocator@D@2@@std@@PAU_DATAVAR@MQ2Internal@@@std@@PAX@std@@@std@@@std@@SAXAAV?$allocator@U?$_Tree_node@U?$pair@$$CBV?$basic_string@DU?$char_traits@D@std@@V?$allocator@D@2@@std@@PAU_DATAVAR@MQ2Internal@@@std@@PAX@std@@@1@PAU?$pair@$$CBV?$basic_string@DU?$char_traits@D@std@@V?$allocator@D@2@@std@@PAU_DATAVAR@MQ2Internal@@@1@ABUpiecewise_construct_t@1@$$QAV?$tuple@$$QAV?$basic_string@DU?$char_traits@D@std@@V?$allocator@D@2@@std@@@1@$$QAV?$tuple@$$$V@1@@Z 030312c0 f i MQ2DataVars.obj
 0001:000302f0       ??$destroy@PAU?$_Tree_node@U?$pair@$$CBV?$basic_string@DU?$char_traits@D@std@@V?$allocator@D@2@@std@@PAU_DATAVAR@MQ2Internal@@@std@@PAX@std@@@?$_Wrap_alloc@V?$allocator@U?$_Tree_node@U?$pair@$$CBV?$basic_string@DU?$char_traits@D@std@@V?$allocator@D@2@@std@@PAU_DATAVAR@MQ2Internal@@@std@@PAX@std@@@std@@@std@@QAEXPAPAU?$_Tree_node@U?$pair@$$CBV?$basic_string@DU?$char_traits@D@std@@V?$allocator@D@2@@std@@PAU_DATAVAR@MQ2Internal@@@std@@PAX@1@@Z 030312f0 f i MQ2DataVars.obj
 0001:00030300       ??$destroy@PAU?$_Tree_node@U?$pair@$$CBV?$basic_string@DU?$char_traits@D@std@@V?$allocator@D@2@@std@@PAU_DATAVAR@MQ2Internal@@@std@@PAX@std@@@?$allocator@U?$_Tree_node@U?$pair@$$CBV?$basic_string@DU?$char_traits@D@std@@V?$allocator@D@2@@std@@PAU_DATAVAR@MQ2Internal@@@std@@PAX@std@@@std@@QAEXPAPAU?$_Tree_node@U?$pair@$$CBV?$basic_string@DU?$char_traits@D@std@@V?$allocator@D@2@@std@@PAU_DATAVAR@MQ2Internal@@@std@@PAX@1@@Z 03031300 f i MQ2DataVars.obj
 0001:00030310       ??$destroy@PAU?$_Tree_node@U?$pair@$$CBV?$basic_string@DU?$char_traits@D@std@@V?$allocator@D@2@@std@@PAU_DATAVAR@MQ2Internal@@@std@@PAX@std@@@?$allocator_traits@V?$allocator@U?$_Tree_node@U?$pair@$$CBV?$basic_string@DU?$char_traits@D@std@@V?$allocator@D@2@@std@@PAU_DATAVAR@MQ2Internal@@@std@@PAX@std@@@std@@@std@@SAXAAV?$allocator@U?$_Tree_node@U?$pair@$$CBV?$basic_string@DU?$char_traits@D@std@@V?$allocator@D@2@@std@@PAU_DATAVAR@MQ2Internal@@@std@@PAX@std@@@1@PAPAU?$_Tree_node@U?$pair@$$CBV?$basic_string@DU?$char_traits@D@std@@V?$allocator@D@2@@std@@PAU_DATAVAR@MQ2Internal@@@std@@PAX@1@@Z 03031310 f i MQ2DataVars.obj
 0001:00030320       ??$destroy@U?$pair@$$CBV?$basic_string@DU?$char_traits@D@std@@V?$allocator@D@2@@std@@PAU_DATAVAR@MQ2Internal@@@std@@@?$_Wrap_alloc@V?$allocator@U?$_Tree_node@U?$pair@$$CBV?$basic_string@DU?$char_traits@D@std@@V?$allocator@D@2@@std@@PAU_DATAVAR@MQ2Internal@@@std@@PAX@std@@@std@@@std@@QAEXPAU?$pair@$$CBV?$basic_string@DU?$char_traits@D@std@@V?$allocator@D@2@@std@@PAU_DATAVAR@MQ2Internal@@@1@@Z 03031320 f i MQ2DataVars.obj
 0001:00030350       ??$destroy@U?$pair@$$CBV?$basic_string@DU?$char_traits@D@std@@V?$allocator@D@2@@std@@PAU_DATAVAR@MQ2Internal@@@std@@@?$allocator@U?$_Tree_node@U?$pair@$$CBV?$basic_string@DU?$char_traits@D@std@@V?$allocator@D@2@@std@@PAU_DATAVAR@MQ2Internal@@@std@@PAX@std@@@std@@QAEXPAU?$pair@$$CBV?$basic_string@DU?$char_traits@D@std@@V?$allocator@D@2@@std@@PAU_DATAVAR@MQ2Internal@@@1@@Z 03031350 f i MQ2DataVars.obj
 0001:00030380       ??$destroy@U?$pair@$$CBV?$basic_string@DU?$char_traits@D@std@@V?$allocator@D@2@@std@@PAU_DATAVAR@MQ2Internal@@@std@@@?$allocator_traits@V?$allocator@U?$_Tree_node@U?$pair@$$CBV?$basic_string@DU?$char_traits@D@std@@V?$allocator@D@2@@std@@PAU_DATAVAR@MQ2Internal@@@std@@PAX@std@@@std@@@std@@SAXAAV?$allocator@U?$_Tree_node@U?$pair@$$CBV?$basic_string@DU?$char_traits@D@std@@V?$allocator@D@2@@std@@PAU_DATAVAR@MQ2Internal@@@std@@PAX@std@@@1@PAU?$pair@$$CBV?$basic_string@DU?$char_traits@D@std@@V?$allocator@D@2@@std@@PAU_DATAVAR@MQ2Internal@@@1@@Z 03031380 f i MQ2DataVars.obj
 0001:000303b0       ??$emplace_hint@ABUpiecewise_construct_t@std@@V?$tuple@$$QAV?$basic_string@DU?$char_traits@D@std@@V?$allocator@D@2@@std@@@2@V?$tuple@$$$V@2@@?$_Tree@V?$_Tmap_traits@V?$basic_string@DU?$char_traits@D@std@@V?$allocator@D@2@@std@@PAU_DATAVAR@MQ2Internal@@U?$less@V?$basic_string@DU?$char_traits@D@std@@V?$allocator@D@2@@std@@@2@V?$allocator@U?$pair@$$CBV?$basic_string@DU?$char_traits@D@std@@V?$allocator@D@2@@std@@PAU_DATAVAR@MQ2Internal@@@std@@@2@$0A@@std@@@std@@QAE?AV?$_Tree_iterator@V?$_Tree_val@U?$_Tree_simple_types@U?$pair@$$CBV?$basic_string@DU?$char_traits@D@std@@V?$allocator@D@2@@std@@PAU_DATAVAR@MQ2Internal@@@std@@@std@@@std@@@1@V?$_Tree_const_iterator@V?$_Tree_val@U?$_Tree_simple_types@U?$pair@$$CBV?$basic_string@DU?$char_traits@D@std@@V?$allocator@D@2@@std@@PAU_DATAVAR@MQ2Internal@@@std@@@std@@@std@@@1@ABUpiecewise_construct_t@1@$$QAV?$tuple@$$QAV?$basic_string@DU?$char_traits@D@std@@V?$allocator@D@2@@std@@@1@$$QAV?$tuple@$$$V@1@@Z 030313b0 f i MQ2DataVars.obj
 0001:000303e0       ??$forward@AAPAU?$_Tree_node@U?$pair@$$CBV?$basic_string@DU?$char_traits@D@std@@V?$allocator@D@2@@std@@PAU_DATAVAR@MQ2Internal@@@std@@PAX@std@@@std@@YAAAPAU?$_Tree_node@U?$pair@$$CBV?$basic_string@DU?$char_traits@D@std@@V?$allocator@D@2@@std@@PAU_DATAVAR@MQ2Internal@@@std@@PAX@0@AAPAU10@@Z 030313e0 f i MQ2DataVars.obj
 0001:000303f0       ??$forward@AAU?$pair@$$CBV?$basic_string@DU?$char_traits@D@std@@V?$allocator@D@2@@std@@PAU_DATAVAR@MQ2Internal@@@std@@@std@@YAAAU?$pair@$$CBV?$basic_string@DU?$char_traits@D@std@@V?$allocator@D@2@@std@@PAU_DATAVAR@MQ2Internal@@@0@AAU10@@Z 030313f0 f i MQ2DataVars.obj
 0001:00030400       ??$forward@AAV?$_Tree_iterator@V?$_Tree_val@U?$_Tree_simple_types@U?$pair@$$CBV?$basic_string@DU?$char_traits@D@std@@V?$allocator@D@2@@std@@PAU_DATAVAR@MQ2Internal@@@std@@@std@@@std@@@std@@@std@@YAAAV?$_Tree_iterator@V?$_Tree_val@U?$_Tree_simple_types@U?$pair@$$CBV?$basic_string@DU?$char_traits@D@std@@V?$allocator@D@2@@std@@PAU_DATAVAR@MQ2Internal@@@std@@@std@@@std@@@0@AAV10@@Z 03031400 f i MQ2DataVars.obj
 0001:00030410       ??$forward@V?$_Tree_iterator@V?$_Tree_val@U?$_Tree_simple_types@U?$pair@$$CBV?$basic_string@DU?$char_traits@D@std@@V?$allocator@D@2@@std@@PAU_DATAVAR@MQ2Internal@@@std@@@std@@@std@@@std@@@std@@YA$$QAV?$_Tree_iterator@V?$_Tree_val@U?$_Tree_simple_types@U?$pair@$$CBV?$basic_string@DU?$char_traits@D@std@@V?$allocator@D@2@@std@@PAU_DATAVAR@MQ2Internal@@@std@@@std@@@std@@@0@AAV10@@Z 03031410 f i MQ2DataVars.obj
 0001:00030420       ??0?$_Tree@V?$_Tmap_traits@V?$basic_string@DU?$char_traits@D@std@@V?$allocator@D@2@@std@@PAU_DATAVAR@MQ2Internal@@U?$less@V?$basic_string@DU?$char_traits@D@std@@V?$allocator@D@2@@std@@@2@V?$allocator@U?$pair@$$CBV?$basic_string@DU?$char_traits@D@std@@V?$allocator@D@2@@std@@PAU_DATAVAR@MQ2Internal@@@std@@@2@$0A@@std@@@std@@QAE@ABU?$less@V?$basic_string@DU?$char_traits@D@std@@V?$allocator@D@2@@std@@@1@ABV?$allocator@U?$pair@$$CBV?$basic_string@DU?$char_traits@D@std@@V?$allocator@D@2@@std@@PAU_DATAVAR@MQ2Internal@@@std@@@1@@Z 03031420 f i MQ2DataVars.obj
 0001:00030440       ??0?$_Tree_alloc@$0A@U?$_Tree_base_types@U?$pair@$$CBV?$basic_string@DU?$char_traits@D@std@@V?$allocator@D@2@@std@@PAU_DATAVAR@MQ2Internal@@@std@@V?$allocator@U?$pair@$$CBV?$basic_string@DU?$char_traits@D@std@@V?$allocator@D@2@@std@@PAU_DATAVAR@MQ2Internal@@@std@@@2@@std@@@std@@QAE@ABV?$allocator@U?$pair@$$CBV?$basic_string@DU?$char_traits@D@std@@V?$allocator@D@2@@std@@PAU_DATAVAR@MQ2Internal@@@std@@@1@@Z 03031440 f i MQ2DataVars.obj
 0001:00030460       ??0?$_Tree_buy@U?$pair@$$CBV?$basic_string@DU?$char_traits@D@std@@V?$allocator@D@2@@std@@PAU_DATAVAR@MQ2Internal@@@std@@V?$allocator@U?$pair@$$CBV?$basic_string@DU?$char_traits@D@std@@V?$allocator@D@2@@std@@PAU_DATAVAR@MQ2Internal@@@std@@@2@@std@@QAE@ABV?$allocator@U?$pair@$$CBV?$basic_string@DU?$char_traits@D@std@@V?$allocator@D@2@@std@@PAU_DATAVAR@MQ2Internal@@@std@@@1@@Z 03031460 f i MQ2DataVars.obj
 0001:00030480       ??0?$_Tree_comp@$0A@V?$_Tmap_traits@V?$basic_string@DU?$char_traits@D@std@@V?$allocator@D@2@@std@@PAU_DATAVAR@MQ2Internal@@U?$less@V?$basic_string@DU?$char_traits@D@std@@V?$allocator@D@2@@std@@@2@V?$allocator@U?$pair@$$CBV?$basic_string@DU?$char_traits@D@std@@V?$allocator@D@2@@std@@PAU_DATAVAR@MQ2Internal@@@std@@@2@$0A@@std@@@std@@QAE@ABU?$less@V?$basic_string@DU?$char_traits@D@std@@V?$allocator@D@2@@std@@@1@ABV?$allocator@U?$pair@$$CBV?$basic_string@DU?$char_traits@D@std@@V?$allocator@D@2@@std@@PAU_DATAVAR@MQ2Internal@@@std@@@1@@Z 03031480 f i MQ2DataVars.obj
 0001:000304a0       ??0?$_Tree_const_iterator@V?$_Tree_val@U?$_Tree_simple_types@U?$pair@$$CBV?$basic_string@DU?$char_traits@D@std@@V?$allocator@D@2@@std@@PAU_DATAVAR@MQ2Internal@@@std@@@std@@@std@@@std@@QAE@PAU?$_Tree_node@U?$pair@$$CBV?$basic_string@DU?$char_traits@D@std@@V?$allocator@D@2@@std@@PAU_DATAVAR@MQ2Internal@@@std@@PAX@1@PBV?$_Tree_val@U?$_Tree_simple_types@U?$pair@$$CBV?$basic_string@DU?$char_traits@D@std@@V?$allocator@D@2@@std@@PAU_DATAVAR@MQ2Internal@@@std@@@std@@@1@@Z 030314a0 f i MQ2DataVars.obj
 0001:000304b0       ??0?$_Tree_const_iterator@V?$_Tree_val@U?$_Tree_simple_types@U?$pair@$$CBV?$basic_string@DU?$char_traits@D@std@@V?$allocator@D@2@@std@@PAU_DATAVAR@MQ2Internal@@@std@@@std@@@std@@@std@@QAE@XZ 030314b0 f i MQ2DataVars.obj
 0001:000304c0       ??0?$_Tree_iterator@V?$_Tree_val@U?$_Tree_simple_types@U?$pair@$$CBV?$basic_string@DU?$char_traits@D@std@@V?$allocator@D@2@@std@@PAU_DATAVAR@MQ2Internal@@@std@@@std@@@std@@@std@@QAE@PAU?$_Tree_node@U?$pair@$$CBV?$basic_string@DU?$char_traits@D@std@@V?$allocator@D@2@@std@@PAU_DATAVAR@MQ2Internal@@@std@@PAX@1@PBV?$_Tree_val@U?$_Tree_simple_types@U?$pair@$$CBV?$basic_string@DU?$char_traits@D@std@@V?$allocator@D@2@@std@@PAU_DATAVAR@MQ2Internal@@@std@@@std@@@1@@Z 030314c0 f i MQ2DataVars.obj
 0001:000304d0       ??0?$_Tree_unchecked_const_iterator@V?$_Tree_val@U?$_Tree_simple_types@U?$pair@$$CBV?$basic_string@DU?$char_traits@D@std@@V?$allocator@D@2@@std@@PAU_DATAVAR@MQ2Internal@@@std@@@std@@@std@@U_Iterator_base0@2@@std@@QAE@PAU?$_Tree_node@U?$pair@$$CBV?$basic_string@DU?$char_traits@D@std@@V?$allocator@D@2@@std@@PAU_DATAVAR@MQ2Internal@@@std@@PAX@1@PBV?$_Tree_val@U?$_Tree_simple_types@U?$pair@$$CBV?$basic_string@DU?$char_traits@D@std@@V?$allocator@D@2@@std@@PAU_DATAVAR@MQ2Internal@@@std@@@std@@@1@@Z 030314d0 f i MQ2DataVars.obj
 0001:000304e0       ??0?$_Tree_unchecked_const_iterator@V?$_Tree_val@U?$_Tree_simple_types@U?$pair@$$CBV?$basic_string@DU?$char_traits@D@std@@V?$allocator@D@2@@std@@PAU_DATAVAR@MQ2Internal@@@std@@@std@@@std@@U_Iterator_base0@2@@std@@QAE@XZ 030314e0 f i MQ2DataVars.obj
 0001:000304f0       ??0?$_Tree_val@U?$_Tree_simple_types@U?$pair@$$CBV?$basic_string@DU?$char_traits@D@std@@V?$allocator@D@2@@std@@PAU_DATAVAR@MQ2Internal@@@std@@@std@@@std@@QAE@XZ 030314f0 f i MQ2DataVars.obj
 0001:00030500       ??0?$_Wrap_alloc@V?$allocator@U?$_Tree_node@U?$pair@$$CBV?$basic_string@DU?$char_traits@D@std@@V?$allocator@D@2@@std@@PAU_DATAVAR@MQ2Internal@@@std@@PAX@std@@@std@@@std@@QAE@XZ 03031500 f i MQ2DataVars.obj
 0001:00030510       ??0?$allocator@U?$_Tree_node@U?$pair@$$CBV?$basic_string@DU?$char_traits@D@std@@V?$allocator@D@2@@std@@PAU_DATAVAR@MQ2Internal@@@std@@PAX@std@@@std@@QAE@XZ 03031510 f i MQ2DataVars.obj
 0001:00030520       ??0?$allocator@U?$pair@$$CBV?$basic_string@DU?$char_traits@D@std@@V?$allocator@D@2@@std@@PAU_DATAVAR@MQ2Internal@@@std@@@std@@QAE@XZ 03031520 f i MQ2DataVars.obj
 0001:00030530       ??0?$map@V?$basic_string@DU?$char_traits@D@std@@V?$allocator@D@2@@std@@PAU_DATAVAR@MQ2Internal@@U?$less@V?$basic_string@DU?$char_traits@D@std@@V?$allocator@D@2@@std@@@2@V?$allocator@U?$pair@$$CBV?$basic_string@DU?$char_traits@D@std@@V?$allocator@D@2@@std@@PAU_DATAVAR@MQ2Internal@@@std@@@2@@std@@QAE@XZ 03031530 f i MQ2DataVars.obj
 0001:00030550       ??0CDataArray@MQ2Internal@@QAE@PAVMQ2Type@1@PAD1H@Z 03031550 f i MQ2DataVars.obj
 0001:00030670       ??1?$_Tree@V?$_Tmap_traits@V?$basic_string@DU?$char_traits@D@std@@V?$allocator@D@2@@std@@PAU_DATAVAR@MQ2Internal@@U?$less@V?$basic_string@DU?$char_traits@D@std@@V?$allocator@D@2@@std@@@2@V?$allocator@U?$pair@$$CBV?$basic_string@DU?$char_traits@D@std@@V?$allocator@D@2@@std@@PAU_DATAVAR@MQ2Internal@@@std@@@2@$0A@@std@@@std@@QAE@XZ 03031670 f i MQ2DataVars.obj
 0001:000306a0       ??1?$_Tree_alloc@$0A@U?$_Tree_base_types@U?$pair@$$CBV?$basic_string@DU?$char_traits@D@std@@V?$allocator@D@2@@std@@PAU_DATAVAR@MQ2Internal@@@std@@V?$allocator@U?$pair@$$CBV?$basic_string@DU?$char_traits@D@std@@V?$allocator@D@2@@std@@PAU_DATAVAR@MQ2Internal@@@std@@@2@@std@@@std@@QAE@XZ 030316a0 f i MQ2DataVars.obj
 0001:000306b0       ??1?$_Tree_buy@U?$pair@$$CBV?$basic_string@DU?$char_traits@D@std@@V?$allocator@D@2@@std@@PAU_DATAVAR@MQ2Internal@@@std@@V?$allocator@U?$pair@$$CBV?$basic_string@DU?$char_traits@D@std@@V?$allocator@D@2@@std@@PAU_DATAVAR@MQ2Internal@@@std@@@2@@std@@QAE@XZ 030316b0 f i MQ2DataVars.obj
 0001:000306c0       ??1?$_Tree_comp@$0A@V?$_Tmap_traits@V?$basic_string@DU?$char_traits@D@std@@V?$allocator@D@2@@std@@PAU_DATAVAR@MQ2Internal@@U?$less@V?$basic_string@DU?$char_traits@D@std@@V?$allocator@D@2@@std@@@2@V?$allocator@U?$pair@$$CBV?$basic_string@DU?$char_traits@D@std@@V?$allocator@D@2@@std@@PAU_DATAVAR@MQ2Internal@@@std@@@2@$0A@@std@@@std@@QAE@XZ 030316c0 f i MQ2DataVars.obj
 0001:000306d0       ??1?$map@V?$basic_string@DU?$char_traits@D@std@@V?$allocator@D@2@@std@@PAU_DATAVAR@MQ2Internal@@U?$less@V?$basic_string@DU?$char_traits@D@std@@V?$allocator@D@2@@std@@@2@V?$allocator@U?$pair@$$CBV?$basic_string@DU?$char_traits@D@std@@V?$allocator@D@2@@std@@PAU_DATAVAR@MQ2Internal@@@std@@@2@@std@@QAE@XZ 030316d0 f i MQ2DataVars.obj
 0001:00030700       ??1?$pair@$$CBV?$basic_string@DU?$char_traits@D@std@@V?$allocator@D@2@@std@@PAU_DATAVAR@MQ2Internal@@@std@@QAE@XZ 03031700 f i MQ2DataVars.obj
 0001:00030730       ??8?$_Tree_const_iterator@V?$_Tree_val@U?$_Tree_simple_types@U?$pair@$$CBV?$basic_string@DU?$char_traits@D@std@@V?$allocator@D@2@@std@@PAU_DATAVAR@MQ2Internal@@@std@@@std@@@std@@@std@@QBE_NABV01@@Z 03031730 f i MQ2DataVars.obj
 0001:00030750       ??9?$_Tree_const_iterator@V?$_Tree_val@U?$_Tree_simple_types@U?$pair@$$CBV?$basic_string@DU?$char_traits@D@std@@V?$allocator@D@2@@std@@PAU_DATAVAR@MQ2Internal@@@std@@@std@@@std@@@std@@QBE_NABV01@@Z 03031750 f i MQ2DataVars.obj
 0001:00030770       ??A?$map@V?$basic_string@DU?$char_traits@D@std@@V?$allocator@D@2@@std@@PAU_DATAVAR@MQ2Internal@@U?$less@V?$basic_string@DU?$char_traits@D@std@@V?$allocator@D@2@@std@@@2@V?$allocator@U?$pair@$$CBV?$basic_string@DU?$char_traits@D@std@@V?$allocator@D@2@@std@@PAU_DATAVAR@MQ2Internal@@@std@@@2@@std@@QAEAAPAU_DATAVAR@MQ2Internal@@$$QAV?$basic_string@DU?$char_traits@D@std@@V?$allocator@D@2@@1@@Z 03031770 f i MQ2DataVars.obj
 0001:000307f0       ??C?$_Tree_iterator@V?$_Tree_val@U?$_Tree_simple_types@U?$pair@$$CBV?$basic_string@DU?$char_traits@D@std@@V?$allocator@D@2@@std@@PAU_DATAVAR@MQ2Internal@@@std@@@std@@@std@@@std@@QBEPAU?$pair@$$CBV?$basic_string@DU?$char_traits@D@std@@V?$allocator@D@2@@std@@PAU_DATAVAR@MQ2Internal@@@1@XZ 030317f0 f i MQ2DataVars.obj
 0001:00030800       ??D?$_Tree_const_iterator@V?$_Tree_val@U?$_Tree_simple_types@U?$pair@$$CBV?$basic_string@DU?$char_traits@D@std@@V?$allocator@D@2@@std@@PAU_DATAVAR@MQ2Internal@@@std@@@std@@@std@@@std@@QBEABU?$pair@$$CBV?$basic_string@DU?$char_traits@D@std@@V?$allocator@D@2@@std@@PAU_DATAVAR@MQ2Internal@@@1@XZ 03031800 f i MQ2DataVars.obj
 0001:00030810       ??D?$_Tree_iterator@V?$_Tree_val@U?$_Tree_simple_types@U?$pair@$$CBV?$basic_string@DU?$char_traits@D@std@@V?$allocator@D@2@@std@@PAU_DATAVAR@MQ2Internal@@@std@@@std@@@std@@@std@@QBEAAU?$pair@$$CBV?$basic_string@DU?$char_traits@D@std@@V?$allocator@D@2@@std@@PAU_DATAVAR@MQ2Internal@@@1@XZ 03031810 f i MQ2DataVars.obj
 0001:00030820       ??E?$_Tree_const_iterator@V?$_Tree_val@U?$_Tree_simple_types@U?$pair@$$CBV?$basic_string@DU?$char_traits@D@std@@V?$allocator@D@2@@std@@PAU_DATAVAR@MQ2Internal@@@std@@@std@@@std@@@std@@QAE?AV01@H@Z 03031820 f i MQ2DataVars.obj
 0001:00030840       ??E?$_Tree_const_iterator@V?$_Tree_val@U?$_Tree_simple_types@U?$pair@$$CBV?$basic_string@DU?$char_traits@D@std@@V?$allocator@D@2@@std@@PAU_DATAVAR@MQ2Internal@@@std@@@std@@@std@@@std@@QAEAAV01@XZ 03031840 f i MQ2DataVars.obj
 0001:00030850       ??E?$_Tree_unchecked_const_iterator@V?$_Tree_val@U?$_Tree_simple_types@U?$pair@$$CBV?$basic_string@DU?$char_traits@D@std@@V?$allocator@D@2@@std@@PAU_DATAVAR@MQ2Internal@@@std@@@std@@@std@@U_Iterator_base0@2@@std@@QAEAAV01@XZ 03031850 f i MQ2DataVars.obj
 0001:000308a0       ??F?$_Tree_const_iterator@V?$_Tree_val@U?$_Tree_simple_types@U?$pair@$$CBV?$basic_string@DU?$char_traits@D@std@@V?$allocator@D@2@@std@@PAU_DATAVAR@MQ2Internal@@@std@@@std@@@std@@@std@@QAEAAV01@XZ 030318a0 f i MQ2DataVars.obj
 0001:000308b0       ??F?$_Tree_iterator@V?$_Tree_val@U?$_Tree_simple_types@U?$pair@$$CBV?$basic_string@DU?$char_traits@D@std@@V?$allocator@D@2@@std@@PAU_DATAVAR@MQ2Internal@@@std@@@std@@@std@@@std@@QAEAAV01@XZ 030318b0 f i MQ2DataVars.obj
 0001:000308c0       ??F?$_Tree_unchecked_const_iterator@V?$_Tree_val@U?$_Tree_simple_types@U?$pair@$$CBV?$basic_string@DU?$char_traits@D@std@@V?$allocator@D@2@@std@@PAU_DATAVAR@MQ2Internal@@@std@@@std@@@std@@U_Iterator_base0@2@@std@@QAEAAV01@XZ 030318c0 f i MQ2DataVars.obj
 0001:00030920       ??_G?$pair@$$CBV?$basic_string@DU?$char_traits@D@std@@V?$allocator@D@2@@std@@PAU_DATAVAR@MQ2Internal@@@std@@QAEPAXI@Z 03031920 f i MQ2DataVars.obj
 0001:00030960       ?Chew@Blech@@AAEIPAVBlechNode@@PBD@Z 03031960 f i MQ2DataVars.obj
 0001:00030c10       ?DeleteMQ2DataVariable@@YAXPAU_DATAVAR@MQ2Internal@@@Z 03031c10 f i MQ2DataVars.obj
 0001:00030ce0       ?Feed@Blech@@QAEIPBD@Z     03031ce0 f i MQ2DataVars.obj
 0001:00030d30       ?FreeExecution@Blech@@AAEXPAU_BLECHEXECUTE@@@Z 03031d30 f i MQ2DataVars.obj
 0001:00030d80       ?GetElement@CDataArray@MQ2Internal@@QAEHPAD@Z 03031d80 f i MQ2DataVars.obj
 0001:00030ee0       ?ProcessExecutionList@Blech@@AAEIPAPAU_BLECHEXECUTE@@@Z 03031ee0 f i MQ2DataVars.obj
 0001:00030f60       ?QueueEvent@Blech@@AAEXPAPAU_BLECHEXECUTE@@PAU_BLECHEVENT@@PAU_BLECHVALUE@@@Z 03031f60 f i MQ2DataVars.obj
 0001:00031000       ?QueueEvents@Blech@@AAEXPAPAU_BLECHEXECUTE@@PAVBlechNode@@PBDI@Z 03032000 f i MQ2DataVars.obj
 0001:00031480       ?_Buyheadnode@?$_Tree_alloc@$0A@U?$_Tree_base_types@U?$pair@$$CBV?$basic_string@DU?$char_traits@D@std@@V?$allocator@D@2@@std@@PAU_DATAVAR@MQ2Internal@@@std@@V?$allocator@U?$pair@$$CBV?$basic_string@DU?$char_traits@D@std@@V?$allocator@D@2@@std@@PAU_DATAVAR@MQ2Internal@@@std@@@2@@std@@@std@@QAEPAU?$_Tree_node@U?$pair@$$CBV?$basic_string@DU?$char_traits@D@std@@V?$allocator@D@2@@std@@PAU_DATAVAR@MQ2Internal@@@std@@PAX@2@XZ 03032480 f i MQ2DataVars.obj
 0001:00031510       ?_Buynode0@?$_Tree_buy@U?$pair@$$CBV?$basic_string@DU?$char_traits@D@std@@V?$allocator@D@2@@std@@PAU_DATAVAR@MQ2Internal@@@std@@V?$allocator@U?$pair@$$CBV?$basic_string@DU?$char_traits@D@std@@V?$allocator@D@2@@std@@PAU_DATAVAR@MQ2Internal@@@std@@@2@@std@@QAEPAU?$_Tree_node@U?$pair@$$CBV?$basic_string@DU?$char_traits@D@std@@V?$allocator@D@2@@std@@PAU_DATAVAR@MQ2Internal@@@std@@PAX@2@XZ 03032510 f i MQ2DataVars.obj
 0001:000315a0       ?_Color@?$_Tree_val@U?$_Tree_simple_types@U?$pair@$$CBV?$basic_string@DU?$char_traits@D@std@@V?$allocator@D@2@@std@@PAU_DATAVAR@MQ2Internal@@@std@@@std@@@std@@SAAADPAU?$_Tree_node@U?$pair@$$CBV?$basic_string@DU?$char_traits@D@std@@V?$allocator@D@2@@std@@PAU_DATAVAR@MQ2Internal@@@std@@PAX@2@@Z 030325a0 f i MQ2DataVars.obj
 0001:000315b0       ?_Destroy_if_not_nil@?$_Tree@V?$_Tmap_traits@V?$basic_string@DU?$char_traits@D@std@@V?$allocator@D@2@@std@@PAU_DATAVAR@MQ2Internal@@U?$less@V?$basic_string@DU?$char_traits@D@std@@V?$allocator@D@2@@std@@@2@V?$allocator@U?$pair@$$CBV?$basic_string@DU?$char_traits@D@std@@V?$allocator@D@2@@std@@PAU_DATAVAR@MQ2Internal@@@std@@@2@$0A@@std@@@std@@IAEXPAU?$_Tree_node@U?$pair@$$CBV?$basic_string@DU?$char_traits@D@std@@V?$allocator@D@2@@std@@PAU_DATAVAR@MQ2Internal@@@std@@PAX@2@@Z 030325b0 f i MQ2DataVars.obj
 0001:000315f0       ?_Erase@?$_Tree@V?$_Tmap_traits@V?$basic_string@DU?$char_traits@D@std@@V?$allocator@D@2@@std@@PAU_DATAVAR@MQ2Internal@@U?$less@V?$basic_string@DU?$char_traits@D@std@@V?$allocator@D@2@@std@@@2@V?$allocator@U?$pair@$$CBV?$basic_string@DU?$char_traits@D@std@@V?$allocator@D@2@@std@@PAU_DATAVAR@MQ2Internal@@@std@@@2@$0A@@std@@@std@@IAEXPAU?$_Tree_node@U?$pair@$$CBV?$basic_string@DU?$char_traits@D@std@@V?$allocator@D@2@@std@@PAU_DATAVAR@MQ2Internal@@@std@@PAX@2@@Z 030325f0 f i MQ2DataVars.obj
 0001:00031650       ?_Freeheadnode@?$_Tree_alloc@$0A@U?$_Tree_base_types@U?$pair@$$CBV?$basic_string@DU?$char_traits@D@std@@V?$allocator@D@2@@std@@PAU_DATAVAR@MQ2Internal@@@std@@V?$allocator@U?$pair@$$CBV?$basic_string@DU?$char_traits@D@std@@V?$allocator@D@2@@std@@PAU_DATAVAR@MQ2Internal@@@std@@@2@@std@@@std@@QAEXPAU?$_Tree_node@U?$pair@$$CBV?$basic_string@DU?$char_traits@D@std@@V?$allocator@D@2@@std@@PAU_DATAVAR@MQ2Internal@@@std@@PAX@2@@Z 03032650 f i MQ2DataVars.obj
 0001:00031670       ?_Freenode0@?$_Tree_buy@U?$pair@$$CBV?$basic_string@DU?$char_traits@D@std@@V?$allocator@D@2@@std@@PAU_DATAVAR@MQ2Internal@@@std@@V?$allocator@U?$pair@$$CBV?$basic_string@DU?$char_traits@D@std@@V?$allocator@D@2@@std@@PAU_DATAVAR@MQ2Internal@@@std@@@2@@std@@QAEXPAU?$_Tree_node@U?$pair@$$CBV?$basic_string@DU?$char_traits@D@std@@V?$allocator@D@2@@std@@PAU_DATAVAR@MQ2Internal@@@std@@PAX@2@@Z 03032670 f i MQ2DataVars.obj
 0001:00031690       ?_Getal@?$_Tree_alloc@$0A@U?$_Tree_base_types@U?$pair@$$CBV?$basic_string@DU?$char_traits@D@std@@V?$allocator@D@2@@std@@PAU_DATAVAR@MQ2Internal@@@std@@V?$allocator@U?$pair@$$CBV?$basic_string@DU?$char_traits@D@std@@V?$allocator@D@2@@std@@PAU_DATAVAR@MQ2Internal@@@std@@@2@@std@@@std@@QBE?AU?$_Wrap_alloc@V?$allocator@U?$_Tree_node@U?$pair@$$CBV?$basic_string@DU?$char_traits@D@std@@V?$allocator@D@2@@std@@PAU_DATAVAR@MQ2Internal@@@std@@PAX@std@@@std@@@2@XZ 03032690 f i MQ2DataVars.obj
 0001:000316a0       ?_Getcomp@?$_Tree_comp@$0A@V?$_Tmap_traits@V?$basic_string@DU?$char_traits@D@std@@V?$allocator@D@2@@std@@PAU_DATAVAR@MQ2Internal@@U?$less@V?$basic_string@DU?$char_traits@D@std@@V?$allocator@D@2@@std@@@2@V?$allocator@U?$pair@$$CBV?$basic_string@DU?$char_traits@D@std@@V?$allocator@D@2@@std@@PAU_DATAVAR@MQ2Internal@@@std@@@2@$0A@@std@@@std@@QBE?AU?$less@V?$basic_string@DU?$char_traits@D@std@@V?$allocator@D@2@@std@@@2@XZ 030326a0 f i MQ2DataVars.obj
 0001:000316b0       ?_Isnil@?$_Tree_val@U?$_Tree_simple_types@U?$pair@$$CBV?$basic_string@DU?$char_traits@D@std@@V?$allocator@D@2@@std@@PAU_DATAVAR@MQ2Internal@@@std@@@std@@@std@@SAAADPAU?$_Tree_node@U?$pair@$$CBV?$basic_string@DU?$char_traits@D@std@@V?$allocator@D@2@@std@@PAU_DATAVAR@MQ2Internal@@@std@@PAX@2@@Z 030326b0 f i MQ2DataVars.obj
 0001:000316c0       ?_Key@?$_Tree@V?$_Tmap_traits@V?$basic_string@DU?$char_traits@D@std@@V?$allocator@D@2@@std@@PAU_DATAVAR@MQ2Internal@@U?$less@V?$basic_string@DU?$char_traits@D@std@@V?$allocator@D@2@@std@@@2@V?$allocator@U?$pair@$$CBV?$basic_string@DU?$char_traits@D@std@@V?$allocator@D@2@@std@@PAU_DATAVAR@MQ2Internal@@@std@@@2@$0A@@std@@@std@@IBEABV?$basic_string@DU?$char_traits@D@std@@V?$allocator@D@2@@2@PAU?$_Tree_node@U?$pair@$$CBV?$basic_string@DU?$char_traits@D@std@@V?$allocator@D@2@@std@@PAU_DATAVAR@MQ2Internal@@@std@@PAX@2@@Z 030326c0 f i MQ2DataVars.obj
 0001:000316d0       ?_Kfn@?$_Tree@V?$_Tmap_traits@V?$basic_string@DU?$char_traits@D@std@@V?$allocator@D@2@@std@@PAU_DATAVAR@MQ2Internal@@U?$less@V?$basic_string@DU?$char_traits@D@std@@V?$allocator@D@2@@std@@@2@V?$allocator@U?$pair@$$CBV?$basic_string@DU?$char_traits@D@std@@V?$allocator@D@2@@std@@PAU_DATAVAR@MQ2Internal@@@std@@@2@$0A@@std@@@std@@IBEABV?$basic_string@DU?$char_traits@D@std@@V?$allocator@D@2@@2@ABU?$pair@$$CBV?$basic_string@DU?$char_traits@D@std@@V?$allocator@D@2@@std@@PAU_DATAVAR@MQ2Internal@@@2@@Z 030326d0 f i MQ2DataVars.obj
 0001:000316e0       ?_Lbound@?$_Tree@V?$_Tmap_traits@V?$basic_string@DU?$char_traits@D@std@@V?$allocator@D@2@@std@@PAU_DATAVAR@MQ2Internal@@U?$less@V?$basic_string@DU?$char_traits@D@std@@V?$allocator@D@2@@std@@@2@V?$allocator@U?$pair@$$CBV?$basic_string@DU?$char_traits@D@std@@V?$allocator@D@2@@std@@PAU_DATAVAR@MQ2Internal@@@std@@@2@$0A@@std@@@std@@IAEPAU?$_Tree_node@U?$pair@$$CBV?$basic_string@DU?$char_traits@D@std@@V?$allocator@D@2@@std@@PAU_DATAVAR@MQ2Internal@@@std@@PAX@2@ABV?$basic_string@DU?$char_traits@D@std@@V?$allocator@D@2@@2@@Z 030326e0 f i MQ2DataVars.obj
 0001:000317c0       ?_Left@?$_Tree_val@U?$_Tree_simple_types@U?$pair@$$CBV?$basic_string@DU?$char_traits@D@std@@V?$allocator@D@2@@std@@PAU_DATAVAR@MQ2Internal@@@std@@@std@@@std@@SAAAPAU?$_Tree_node@U?$pair@$$CBV?$basic_string@DU?$char_traits@D@std@@V?$allocator@D@2@@std@@PAU_DATAVAR@MQ2Internal@@@std@@PAX@2@PAU32@@Z 030327c0 f i MQ2DataVars.obj
 0001:000317d0       ?_Lmost@?$_Tree@V?$_Tmap_traits@V?$basic_string@DU?$char_traits@D@std@@V?$allocator@D@2@@std@@PAU_DATAVAR@MQ2Internal@@U?$less@V?$basic_string@DU?$char_traits@D@std@@V?$allocator@D@2@@std@@@2@V?$allocator@U?$pair@$$CBV?$basic_string@DU?$char_traits@D@std@@V?$allocator@D@2@@std@@PAU_DATAVAR@MQ2Internal@@@std@@@2@$0A@@std@@@std@@IBEAAPAU?$_Tree_node@U?$pair@$$CBV?$basic_string@DU?$char_traits@D@std@@V?$allocator@D@2@@std@@PAU_DATAVAR@MQ2Internal@@@std@@PAX@2@XZ 030327d0 f i MQ2DataVars.obj
 0001:000317e0       ?_Lrotate@?$_Tree@V?$_Tmap_traits@V?$basic_string@DU?$char_traits@D@std@@V?$allocator@D@2@@std@@PAU_DATAVAR@MQ2Internal@@U?$less@V?$basic_string@DU?$char_traits@D@std@@V?$allocator@D@2@@std@@@2@V?$allocator@U?$pair@$$CBV?$basic_string@DU?$char_traits@D@std@@V?$allocator@D@2@@std@@PAU_DATAVAR@MQ2Internal@@@std@@@2@$0A@@std@@@std@@IAEXPAU?$_Tree_node@U?$pair@$$CBV?$basic_string@DU?$char_traits@D@std@@V?$allocator@D@2@@std@@PAU_DATAVAR@MQ2Internal@@@std@@PAX@2@@Z 030327e0 f i MQ2DataVars.obj
 0001:00031840       ?_Max@?$_Tree_val@U?$_Tree_simple_types@U?$pair@$$CBV?$basic_string@DU?$char_traits@D@std@@V?$allocator@D@2@@std@@PAU_DATAVAR@MQ2Internal@@@std@@@std@@@std@@SAPAU?$_Tree_node@U?$pair@$$CBV?$basic_string@DU?$char_traits@D@std@@V?$allocator@D@2@@std@@PAU_DATAVAR@MQ2Internal@@@std@@PAX@2@PAU32@@Z 03032840 f i MQ2DataVars.obj
 0001:00031860       ?_Min@?$_Tree_val@U?$_Tree_simple_types@U?$pair@$$CBV?$basic_string@DU?$char_traits@D@std@@V?$allocator@D@2@@std@@PAU_DATAVAR@MQ2Internal@@@std@@@std@@@std@@SAPAU?$_Tree_node@U?$pair@$$CBV?$basic_string@DU?$char_traits@D@std@@V?$allocator@D@2@@std@@PAU_DATAVAR@MQ2Internal@@@std@@PAX@2@PAU32@@Z 03032860 f i MQ2DataVars.obj
 0001:00031880       ?_Mynode@?$_Tree_unchecked_const_iterator@V?$_Tree_val@U?$_Tree_simple_types@U?$pair@$$CBV?$basic_string@DU?$char_traits@D@std@@V?$allocator@D@2@@std@@PAU_DATAVAR@MQ2Internal@@@std@@@std@@@std@@U_Iterator_base0@2@@std@@QBEPAU?$_Tree_node@U?$pair@$$CBV?$basic_string@DU?$char_traits@D@std@@V?$allocator@D@2@@std@@PAU_DATAVAR@MQ2Internal@@@std@@PAX@2@XZ 03032880 f i MQ2DataVars.obj
 0001:00031890       ?_Myval@?$_Tree_val@U?$_Tree_simple_types@U?$pair@$$CBV?$basic_string@DU?$char_traits@D@std@@V?$allocator@D@2@@std@@PAU_DATAVAR@MQ2Internal@@@std@@@std@@@std@@SAAAU?$pair@$$CBV?$basic_string@DU?$char_traits@D@std@@V?$allocator@D@2@@std@@PAU_DATAVAR@MQ2Internal@@@2@PAU?$_Tree_node@U?$pair@$$CBV?$basic_string@DU?$char_traits@D@std@@V?$allocator@D@2@@std@@PAU_DATAVAR@MQ2Internal@@@std@@PAX@2@@Z 03032890 f i MQ2DataVars.obj
 0001:000318a0       ?_Parent@?$_Tree_val@U?$_Tree_simple_types@U?$pair@$$CBV?$basic_string@DU?$char_traits@D@std@@V?$allocator@D@2@@std@@PAU_DATAVAR@MQ2Internal@@@std@@@std@@@std@@SAAAPAU?$_Tree_node@U?$pair@$$CBV?$basic_string@DU?$char_traits@D@std@@V?$allocator@D@2@@std@@PAU_DATAVAR@MQ2Internal@@@std@@PAX@2@PAU32@@Z 030328a0 f i MQ2DataVars.obj
 0001:000318b0       ?_Right@?$_Tree_val@U?$_Tree_simple_types@U?$pair@$$CBV?$basic_string@DU?$char_traits@D@std@@V?$allocator@D@2@@std@@PAU_DATAVAR@MQ2Internal@@@std@@@std@@@std@@SAAAPAU?$_Tree_node@U?$pair@$$CBV?$basic_string@DU?$char_traits@D@std@@V?$allocator@D@2@@std@@PAU_DATAVAR@MQ2Internal@@@std@@PAX@2@PAU32@@Z 030328b0 f i MQ2DataVars.obj
 0001:000318c0       ?_Rmost@?$_Tree@V?$_Tmap_traits@V?$basic_string@DU?$char_traits@D@std@@V?$allocator@D@2@@std@@PAU_DATAVAR@MQ2Internal@@U?$less@V?$basic_string@DU?$char_traits@D@std@@V?$allocator@D@2@@std@@@2@V?$allocator@U?$pair@$$CBV?$basic_string@DU?$char_traits@D@std@@V?$allocator@D@2@@std@@PAU_DATAVAR@MQ2Internal@@@std@@@2@$0A@@std@@@std@@IBEAAPAU?$_Tree_node@U?$pair@$$CBV?$basic_string@DU?$char_traits@D@std@@V?$allocator@D@2@@std@@PAU_DATAVAR@MQ2Internal@@@std@@PAX@2@XZ 030328c0 f i MQ2DataVars.obj
 0001:000318d0       ?_Root@?$_Tree@V?$_Tmap_traits@V?$basic_string@DU?$char_traits@D@std@@V?$allocator@D@2@@std@@PAU_DATAVAR@MQ2Internal@@U?$less@V?$basic_string@DU?$char_traits@D@std@@V?$allocator@D@2@@std@@@2@V?$allocator@U?$pair@$$CBV?$basic_string@DU?$char_traits@D@std@@V?$allocator@D@2@@std@@PAU_DATAVAR@MQ2Internal@@@std@@@2@$0A@@std@@@std@@IBEAAPAU?$_Tree_node@U?$pair@$$CBV?$basic_string@DU?$char_traits@D@std@@V?$allocator@D@2@@std@@PAU_DATAVAR@MQ2Internal@@@std@@PAX@2@XZ 030328d0 f i MQ2DataVars.obj
 0001:000318e0       ?_Rrotate@?$_Tree@V?$_Tmap_traits@V?$basic_string@DU?$char_traits@D@std@@V?$allocator@D@2@@std@@PAU_DATAVAR@MQ2Internal@@U?$less@V?$basic_string@DU?$char_traits@D@std@@V?$allocator@D@2@@std@@@2@V?$allocator@U?$pair@$$CBV?$basic_string@DU?$char_traits@D@std@@V?$allocator@D@2@@std@@PAU_DATAVAR@MQ2Internal@@@std@@@2@$0A@@std@@@std@@IAEXPAU?$_Tree_node@U?$pair@$$CBV?$basic_string@DU?$char_traits@D@std@@V?$allocator@D@2@@std@@PAU_DATAVAR@MQ2Internal@@@std@@PAX@2@@Z 030328e0 f i MQ2DataVars.obj
 0001:00031940       ?_Tidy@?$_Tree@V?$_Tmap_traits@V?$basic_string@DU?$char_traits@D@std@@V?$allocator@D@2@@std@@PAU_DATAVAR@MQ2Internal@@U?$less@V?$basic_string@DU?$char_traits@D@std@@V?$allocator@D@2@@std@@@2@V?$allocator@U?$pair@$$CBV?$basic_string@DU?$char_traits@D@std@@V?$allocator@D@2@@std@@PAU_DATAVAR@MQ2Internal@@@std@@@2@$0A@@std@@@std@@IAEXXZ 03032940 f i MQ2DataVars.obj
 0001:00031960       ?allocate@?$_Wrap_alloc@V?$allocator@U?$_Tree_node@U?$pair@$$CBV?$basic_string@DU?$char_traits@D@std@@V?$allocator@D@2@@std@@PAU_DATAVAR@MQ2Internal@@@std@@PAX@std@@@std@@@std@@QAEPAU?$_Tree_node@U?$pair@$$CBV?$basic_string@DU?$char_traits@D@std@@V?$allocator@D@2@@std@@PAU_DATAVAR@MQ2Internal@@@std@@PAX@2@I@Z 03032960 f i MQ2DataVars.obj
 0001:000319a0       ?allocate@?$allocator@U?$_Tree_node@U?$pair@$$CBV?$basic_string@DU?$char_traits@D@std@@V?$allocator@D@2@@std@@PAU_DATAVAR@MQ2Internal@@@std@@PAX@std@@@std@@QAEPAU?$_Tree_node@U?$pair@$$CBV?$basic_string@DU?$char_traits@D@std@@V?$allocator@D@2@@std@@PAU_DATAVAR@MQ2Internal@@@std@@PAX@2@I@Z 030329a0 f i MQ2DataVars.obj
 0001:000319e0       ?begin@?$_Tree@V?$_Tmap_traits@V?$basic_string@DU?$char_traits@D@std@@V?$allocator@D@2@@std@@PAU_DATAVAR@MQ2Internal@@U?$less@V?$basic_string@DU?$char_traits@D@std@@V?$allocator@D@2@@std@@@2@V?$allocator@U?$pair@$$CBV?$basic_string@DU?$char_traits@D@std@@V?$allocator@D@2@@std@@PAU_DATAVAR@MQ2Internal@@@std@@@2@$0A@@std@@@std@@QAE?AV?$_Tree_iterator@V?$_Tree_val@U?$_Tree_simple_types@U?$pair@$$CBV?$basic_string@DU?$char_traits@D@std@@V?$allocator@D@2@@std@@PAU_DATAVAR@MQ2Internal@@@std@@@std@@@std@@@2@XZ 030329e0 f i MQ2DataVars.obj
 0001:000319f0       ?clear@?$_Tree@V?$_Tmap_traits@V?$basic_string@DU?$char_traits@D@std@@V?$allocator@D@2@@std@@PAU_DATAVAR@MQ2Internal@@U?$less@V?$basic_string@DU?$char_traits@D@std@@V?$allocator@D@2@@std@@@2@V?$allocator@U?$pair@$$CBV?$basic_string@DU?$char_traits@D@std@@V?$allocator@D@2@@std@@PAU_DATAVAR@MQ2Internal@@@std@@@2@$0A@@std@@@std@@QAEXXZ 030329f0 f i MQ2DataVars.obj
 0001:00031a20       ?deallocate@?$_Wrap_alloc@V?$allocator@U?$_Tree_node@U?$pair@$$CBV?$basic_string@DU?$char_traits@D@std@@V?$allocator@D@2@@std@@PAU_DATAVAR@MQ2Internal@@@std@@PAX@std@@@std@@@std@@QAEXPAU?$_Tree_node@U?$pair@$$CBV?$basic_string@DU?$char_traits@D@std@@V?$allocator@D@2@@std@@PAU_DATAVAR@MQ2Internal@@@std@@PAX@2@I@Z 03032a20 f i MQ2DataVars.obj
 0001:00031a40       ?deallocate@?$allocator@U?$_Tree_node@U?$pair@$$CBV?$basic_string@DU?$char_traits@D@std@@V?$allocator@D@2@@std@@PAU_DATAVAR@MQ2Internal@@@std@@PAX@std@@@std@@QAEXPAU?$_Tree_node@U?$pair@$$CBV?$basic_string@DU?$char_traits@D@std@@V?$allocator@D@2@@std@@PAU_DATAVAR@MQ2Internal@@@std@@PAX@2@I@Z 03032a40 f i MQ2DataVars.obj
 0001:00031a60       ?end@?$_Tree@V?$_Tmap_traits@V?$basic_string@DU?$char_traits@D@std@@V?$allocator@D@2@@std@@PAU_DATAVAR@MQ2Internal@@U?$less@V?$basic_string@DU?$char_traits@D@std@@V?$allocator@D@2@@std@@@2@V?$allocator@U?$pair@$$CBV?$basic_string@DU?$char_traits@D@std@@V?$allocator@D@2@@std@@PAU_DATAVAR@MQ2Internal@@@std@@@2@$0A@@std@@@std@@QAE?AV?$_Tree_iterator@V?$_Tree_val@U?$_Tree_simple_types@U?$pair@$$CBV?$basic_string@DU?$char_traits@D@std@@V?$allocator@D@2@@std@@PAU_DATAVAR@MQ2Internal@@@std@@@std@@@std@@@2@XZ 03032a60 f i MQ2DataVars.obj
 0001:00031a70       ?erase@?$_Tree@V?$_Tmap_traits@V?$basic_string@DU?$char_traits@D@std@@V?$allocator@D@2@@std@@PAU_DATAVAR@MQ2Internal@@U?$less@V?$basic_string@DU?$char_traits@D@std@@V?$allocator@D@2@@std@@@2@V?$allocator@U?$pair@$$CBV?$basic_string@DU?$char_traits@D@std@@V?$allocator@D@2@@std@@PAU_DATAVAR@MQ2Internal@@@std@@@2@$0A@@std@@@std@@QAE?AV?$_Tree_iterator@V?$_Tree_val@U?$_Tree_simple_types@U?$pair@$$CBV?$basic_string@DU?$char_traits@D@std@@V?$allocator@D@2@@std@@PAU_DATAVAR@MQ2Internal@@@std@@@std@@@std@@@2@V?$_Tree_const_iterator@V?$_Tree_val@U?$_Tree_simple_types@U?$pair@$$CBV?$basic_string@DU?$char_traits@D@std@@V?$allocator@D@2@@std@@PAU_DATAVAR@MQ2Internal@@@std@@@std@@@std@@@2@0@Z 03032a70 f i MQ2DataVars.obj
 0001:00031b30       ?erase@?$_Tree@V?$_Tmap_traits@V?$basic_string@DU?$char_traits@D@std@@V?$allocator@D@2@@std@@PAU_DATAVAR@MQ2Internal@@U?$less@V?$basic_string@DU?$char_traits@D@std@@V?$allocator@D@2@@std@@@2@V?$allocator@U?$pair@$$CBV?$basic_string@DU?$char_traits@D@std@@V?$allocator@D@2@@std@@PAU_DATAVAR@MQ2Internal@@@std@@@2@$0A@@std@@@std@@QAE?AV?$_Tree_iterator@V?$_Tree_val@U?$_Tree_simple_types@U?$pair@$$CBV?$basic_string@DU?$char_traits@D@std@@V?$allocator@D@2@@std@@PAU_DATAVAR@MQ2Internal@@@std@@@std@@@std@@@2@V?$_Tree_const_iterator@V?$_Tree_val@U?$_Tree_simple_types@U?$pair@$$CBV?$basic_string@DU?$char_traits@D@std@@V?$allocator@D@2@@std@@PAU_DATAVAR@MQ2Internal@@@std@@@std@@@std@@@2@@Z 03032b30 f i MQ2DataVars.obj
 0001:00031de0       ?lower_bound@?$_Tree@V?$_Tmap_traits@V?$basic_string@DU?$char_traits@D@std@@V?$allocator@D@2@@std@@PAU_DATAVAR@MQ2Internal@@U?$less@V?$basic_string@DU?$char_traits@D@std@@V?$allocator@D@2@@std@@@2@V?$allocator@U?$pair@$$CBV?$basic_string@DU?$char_traits@D@std@@V?$allocator@D@2@@std@@PAU_DATAVAR@MQ2Internal@@@std@@@2@$0A@@std@@@std@@QAE?AV?$_Tree_iterator@V?$_Tree_val@U?$_Tree_simple_types@U?$pair@$$CBV?$basic_string@DU?$char_traits@D@std@@V?$allocator@D@2@@std@@PAU_DATAVAR@MQ2Internal@@@std@@@std@@@std@@@2@ABV?$basic_string@DU?$char_traits@D@std@@V?$allocator@D@2@@2@@Z 03032de0 f i MQ2DataVars.obj
 0001:00031e00       ?max_size@?$_Tree@V?$_Tmap_traits@V?$basic_string@DU?$char_traits@D@std@@V?$allocator@D@2@@std@@PAU_DATAVAR@MQ2Internal@@U?$less@V?$basic_string@DU?$char_traits@D@std@@V?$allocator@D@2@@std@@@2@V?$allocator@U?$pair@$$CBV?$basic_string@DU?$char_traits@D@std@@V?$allocator@D@2@@std@@PAU_DATAVAR@MQ2Internal@@@std@@@2@$0A@@std@@@std@@QBEIXZ 03032e00 f i MQ2DataVars.obj
 0001:00031e10       ?max_size@?$_Wrap_alloc@V?$allocator@U?$_Tree_node@U?$pair@$$CBV?$basic_string@DU?$char_traits@D@std@@V?$allocator@D@2@@std@@PAU_DATAVAR@MQ2Internal@@@std@@PAX@std@@@std@@@std@@QBEIXZ 03032e10 f i MQ2DataVars.obj
 0001:00031e20       ?max_size@?$allocator@U?$_Tree_node@U?$pair@$$CBV?$basic_string@DU?$char_traits@D@std@@V?$allocator@D@2@@std@@PAU_DATAVAR@MQ2Internal@@@std@@PAX@std@@@std@@QBEIXZ 03032e20 f i MQ2DataVars.obj
 0001:00031e30       ?max_size@?$allocator_traits@V?$allocator@U?$_Tree_node@U?$pair@$$CBV?$basic_string@DU?$char_traits@D@std@@V?$allocator@D@2@@std@@PAU_DATAVAR@MQ2Internal@@@std@@PAX@std@@@std@@@std@@SAIABV?$allocator@U?$_Tree_node@U?$pair@$$CBV?$basic_string@DU?$char_traits@D@std@@V?$allocator@D@2@@std@@PAU_DATAVAR@MQ2Internal@@@std@@PAX@std@@@2@@Z 03032e30 f i MQ2DataVars.obj
 0001:00031e40       ?pointer_to@?$pointer_traits@PAU?$pair@$$CBV?$basic_string@DU?$char_traits@D@std@@V?$allocator@D@2@@std@@PAU_DATAVAR@MQ2Internal@@@std@@@std@@SAPAU?$pair@$$CBV?$basic_string@DU?$char_traits@D@std@@V?$allocator@D@2@@std@@PAU_DATAVAR@MQ2Internal@@@2@AAU32@@Z 03032e40 f i MQ2DataVars.obj
 0001:00031e50       ?size@?$_Tree@V?$_Tmap_traits@V?$basic_string@DU?$char_traits@D@std@@V?$allocator@D@2@@std@@PAU_DATAVAR@MQ2Internal@@U?$less@V?$basic_string@DU?$char_traits@D@std@@V?$allocator@D@2@@std@@@2@V?$allocator@U?$pair@$$CBV?$basic_string@DU?$char_traits@D@std@@V?$allocator@D@2@@std@@PAU_DATAVAR@MQ2Internal@@@std@@@2@$0A@@std@@@std@@QBEIXZ 03032e50 f i MQ2DataVars.obj
 0001:00031e60       ?stristr@Blech@@SAPBDPBD0@Z 03032e60 f i MQ2DataVars.obj
 0001:00031f30       _FindMQ2DataVariable       03032f30 f i MQ2DataVars.obj
 0001:00032050       _InitializeMQ2Detours      03033050 f   MQ2DetourAPI.obj
 0001:00032090       _ShutdownMQ2Detours        03033090 f   MQ2DetourAPI.obj
 0001:000320d0       _AddDetour                 030330d0 f   MQ2DetourAPI.obj
 0001:000321c0       _AddDetourf                030331c0 f   MQ2DetourAPI.obj
 0001:00032220       _RemoveDetour              03033220 f   MQ2DetourAPI.obj
 0001:000322d0       ?FindDetour@@YAPAU_OurDetours@@K@Z 030332d0 f   MQ2DetourAPI.obj
 0001:000322f0       ?RemoveOurDetours@@YAXXZ   030332f0 f   MQ2DetourAPI.obj
 0001:00032360       ?doit_tramp@CObfuscator@@QAEHHH@Z 03033360 f   MQ2DetourAPI.obj
 0001:00032380       ?doit_detour@CObfuscator@@QAEHHH@Z 03033380 f   MQ2DetourAPI.obj
 0001:000323d0       ?emotify@@YAXXZ            030333d0 f   MQ2DetourAPI.obj
 0001:000323f0       ?emotify2@@YAXPAD@Z        030333f0 f   MQ2DetourAPI.obj
 0001:00032430       ?Trampoline@CEmoteHook@@QAEXXZ 03033430 f   MQ2DetourAPI.obj
 0001:00032450       ?Detour@CEmoteHook@@QAEXXZ 03033450 f   MQ2DetourAPI.obj
 0001:00032460       ?memcheck0@@YAHPAEH@Z      03033460 f   MQ2DetourAPI.obj
 0001:000324f0       ?memcheck1@@YAHPAEHUmckey@@@Z 030334f0 f   MQ2DetourAPI.obj
 0001:000325f0       ?memcheck2@@YAHPAEHUmckey@@@Z 030335f0 f   MQ2DetourAPI.obj
 0001:000326e0       ?memcheck3@@YAHPAEHUmckey@@@Z 030336e0 f   MQ2DetourAPI.obj
 0001:000327d0       ?memcheck4@@YAHPAEHUmckey@@@Z 030337d0 f   MQ2DetourAPI.obj
 0001:000328c0       ?HookInlineChecks@@YAXH@Z  030338c0 f   MQ2DetourAPI.obj
 0001:00032ae0       ?HookMemChecker@@YAXH@Z    03033ae0 f   MQ2DetourAPI.obj
 0001:00032d30       ?CrashDetected_Trampoline@@YAXXZ 03033d30 f   MQ2DetourAPI.obj
 0001:00032d50       ?CrashDetected_Detour@@YAXXZ 03033d50 f   MQ2DetourAPI.obj
 0001:00032d70       ?LoadFrontEnd_Trampoline@@YAHXZ 03033d70 f   MQ2DetourAPI.obj
 0001:00032d90       ?LoadFrontEnd_Detour@@YAHXZ 03033d90 f   MQ2DetourAPI.obj
 0001:00032de0       _InitializeMQ2DInput       03033de0 f   MQ2DInput.obj
 0001:00032f10       _ShutdownMQ2DInput         03033f10 f   MQ2DInput.obj
 0001:00032fc0       ?DInputDataDetour@@YGJPAUIDirectInputDevice8A@@KPAUDIDEVICEOBJECTDATA@@PAKK@Z 03033fc0 f   MQ2DInput.obj
 0001:00033190       ?DInputStateDetour@@YGJPAUIDirectInputDevice8A@@KPAX@Z 03034190 f   MQ2DInput.obj
 0001:00033220       ?DInputAcquireDetour@@YGJPAUIDirectInputDevice8A@@@Z 03034220 f   MQ2DInput.obj
 0001:00033260       ?InitOffsets@MQ2Globals@@YA_NXZ 03034260 f   MQ2Globals.obj
 0001:000338b0       ??$_Allocate@U?$_Tree_node@U?$pair@$$CBV?$basic_string@DU?$char_traits@D@std@@V?$allocator@D@2@@std@@PAU_MACROBLOCK@MQ2Internal@@@std@@PAX@std@@@std@@YAPAU?$_Tree_node@U?$pair@$$CBV?$basic_string@DU?$char_traits@D@std@@V?$allocator@D@2@@std@@PAU_MACROBLOCK@MQ2Internal@@@std@@PAX@0@IPAU10@@Z 030348b0 f i MQ2Globals.obj
 0001:000338e0       ??$_Allocate@U?$_Tree_node@U?$pair@$$CBV?$basic_string@DU?$char_traits@D@std@@V?$allocator@D@2@@std@@PAU_SPAWNINFO@EQData@@@std@@PAX@std@@@std@@YAPAU?$_Tree_node@U?$pair@$$CBV?$basic_string@DU?$char_traits@D@std@@V?$allocator@D@2@@std@@PAU_SPAWNINFO@EQData@@@std@@PAX@0@IPAU10@@Z 030348e0 f i MQ2Globals.obj
 0001:00033910       ??$addressof@PAU?$_Tree_node@U?$pair@$$CBV?$basic_string@DU?$char_traits@D@std@@V?$allocator@D@2@@std@@PAU_MACROBLOCK@MQ2Internal@@@std@@PAX@std@@@std@@YAPAPAU?$_Tree_node@U?$pair@$$CBV?$basic_string@DU?$char_traits@D@std@@V?$allocator@D@2@@std@@PAU_MACROBLOCK@MQ2Internal@@@std@@PAX@0@AAPAU10@@Z 03034910 f i MQ2Globals.obj
 0001:00033920       ??$addressof@PAU?$_Tree_node@U?$pair@$$CBV?$basic_string@DU?$char_traits@D@std@@V?$allocator@D@2@@std@@PAU_SPAWNINFO@EQData@@@std@@PAX@std@@@std@@YAPAPAU?$_Tree_node@U?$pair@$$CBV?$basic_string@DU?$char_traits@D@std@@V?$allocator@D@2@@std@@PAU_SPAWNINFO@EQData@@@std@@PAX@0@AAPAU10@@Z 03034920 f i MQ2Globals.obj
 0001:00033930       ??$addressof@U?$pair@$$CBV?$basic_string@DU?$char_traits@D@std@@V?$allocator@D@2@@std@@PAU_MACROBLOCK@MQ2Internal@@@std@@@std@@YAPAU?$pair@$$CBV?$basic_string@DU?$char_traits@D@std@@V?$allocator@D@2@@std@@PAU_MACROBLOCK@MQ2Internal@@@0@AAU10@@Z 03034930 f i MQ2Globals.obj
 0001:00033940       ??$addressof@U?$pair@$$CBV?$basic_string@DU?$char_traits@D@std@@V?$allocator@D@2@@std@@PAU_SPAWNINFO@EQData@@@std@@@std@@YAPAU?$pair@$$CBV?$basic_string@DU?$char_traits@D@std@@V?$allocator@D@2@@std@@PAU_SPAWNINFO@EQData@@@0@AAU10@@Z 03034940 f i MQ2Globals.obj
 0001:00033950       ??$construct@PAU?$_Tree_node@U?$pair@$$CBV?$basic_string@DU?$char_traits@D@std@@V?$allocator@D@2@@std@@PAU_MACROBLOCK@MQ2Internal@@@std@@PAX@std@@AAPAU12@@?$_Wrap_alloc@V?$allocator@U?$_Tree_node@U?$pair@$$CBV?$basic_string@DU?$char_traits@D@std@@V?$allocator@D@2@@std@@PAU_MACROBLOCK@MQ2Internal@@@std@@PAX@std@@@std@@@std@@QAEXPAPAU?$_Tree_node@U?$pair@$$CBV?$basic_string@DU?$char_traits@D@std@@V?$allocator@D@2@@std@@PAU_MACROBLOCK@MQ2Internal@@@std@@PAX@1@AAPAU21@@Z 03034950 f i MQ2Globals.obj
 0001:00033970       ??$construct@PAU?$_Tree_node@U?$pair@$$CBV?$basic_string@DU?$char_traits@D@std@@V?$allocator@D@2@@std@@PAU_MACROBLOCK@MQ2Internal@@@std@@PAX@std@@AAPAU12@@?$allocator@U?$_Tree_node@U?$pair@$$CBV?$basic_string@DU?$char_traits@D@std@@V?$allocator@D@2@@std@@PAU_MACROBLOCK@MQ2Internal@@@std@@PAX@std@@@std@@QAEXPAPAU?$_Tree_node@U?$pair@$$CBV?$basic_string@DU?$char_traits@D@std@@V?$allocator@D@2@@std@@PAU_MACROBLOCK@MQ2Internal@@@std@@PAX@1@AAPAU21@@Z 03034970 f i MQ2Globals.obj
 0001:00033990       ??$construct@PAU?$_Tree_node@U?$pair@$$CBV?$basic_string@DU?$char_traits@D@std@@V?$allocator@D@2@@std@@PAU_MACROBLOCK@MQ2Internal@@@std@@PAX@std@@AAPAU12@@?$allocator_traits@V?$allocator@U?$_Tree_node@U?$pair@$$CBV?$basic_string@DU?$char_traits@D@std@@V?$allocator@D@2@@std@@PAU_MACROBLOCK@MQ2Internal@@@std@@PAX@std@@@std@@@std@@SAXAAV?$allocator@U?$_Tree_node@U?$pair@$$CBV?$basic_string@DU?$char_traits@D@std@@V?$allocator@D@2@@std@@PAU_MACROBLOCK@MQ2Internal@@@std@@PAX@std@@@1@PAPAU?$_Tree_node@U?$pair@$$CBV?$basic_string@DU?$char_traits@D@std@@V?$allocator@D@2@@std@@PAU_MACROBLOCK@MQ2Internal@@@std@@PAX@1@AAPAU31@@Z 03034990 f i MQ2Globals.obj
 0001:000339b0       ??$construct@PAU?$_Tree_node@U?$pair@$$CBV?$basic_string@DU?$char_traits@D@std@@V?$allocator@D@2@@std@@PAU_SPAWNINFO@EQData@@@std@@PAX@std@@AAPAU12@@?$_Wrap_alloc@V?$allocator@U?$_Tree_node@U?$pair@$$CBV?$basic_string@DU?$char_traits@D@std@@V?$allocator@D@2@@std@@PAU_SPAWNINFO@EQData@@@std@@PAX@std@@@std@@@std@@QAEXPAPAU?$_Tree_node@U?$pair@$$CBV?$basic_string@DU?$char_traits@D@std@@V?$allocator@D@2@@std@@PAU_SPAWNINFO@EQData@@@std@@PAX@1@AAPAU21@@Z 030349b0 f i MQ2Globals.obj
 0001:000339d0       ??$construct@PAU?$_Tree_node@U?$pair@$$CBV?$basic_string@DU?$char_traits@D@std@@V?$allocator@D@2@@std@@PAU_SPAWNINFO@EQData@@@std@@PAX@std@@AAPAU12@@?$allocator@U?$_Tree_node@U?$pair@$$CBV?$basic_string@DU?$char_traits@D@std@@V?$allocator@D@2@@std@@PAU_SPAWNINFO@EQData@@@std@@PAX@std@@@std@@QAEXPAPAU?$_Tree_node@U?$pair@$$CBV?$basic_string@DU?$char_traits@D@std@@V?$allocator@D@2@@std@@PAU_SPAWNINFO@EQData@@@std@@PAX@1@AAPAU21@@Z 030349d0 f i MQ2Globals.obj
 0001:000339f0       ??$construct@PAU?$_Tree_node@U?$pair@$$CBV?$basic_string@DU?$char_traits@D@std@@V?$allocator@D@2@@std@@PAU_SPAWNINFO@EQData@@@std@@PAX@std@@AAPAU12@@?$allocator_traits@V?$allocator@U?$_Tree_node@U?$pair@$$CBV?$basic_string@DU?$char_traits@D@std@@V?$allocator@D@2@@std@@PAU_SPAWNINFO@EQData@@@std@@PAX@std@@@std@@@std@@SAXAAV?$allocator@U?$_Tree_node@U?$pair@$$CBV?$basic_string@DU?$char_traits@D@std@@V?$allocator@D@2@@std@@PAU_SPAWNINFO@EQData@@@std@@PAX@std@@@1@PAPAU?$_Tree_node@U?$pair@$$CBV?$basic_string@DU?$char_traits@D@std@@V?$allocator@D@2@@std@@PAU_SPAWNINFO@EQData@@@std@@PAX@1@AAPAU31@@Z 030349f0 f i MQ2Globals.obj
 0001:00033a10       ??$destroy@PAU?$_Tree_node@U?$pair@$$CBV?$basic_string@DU?$char_traits@D@std@@V?$allocator@D@2@@std@@PAU_MACROBLOCK@MQ2Internal@@@std@@PAX@std@@@?$_Wrap_alloc@V?$allocator@U?$_Tree_node@U?$pair@$$CBV?$basic_string@DU?$char_traits@D@std@@V?$allocator@D@2@@std@@PAU_MACROBLOCK@MQ2Internal@@@std@@PAX@std@@@std@@@std@@QAEXPAPAU?$_Tree_node@U?$pair@$$CBV?$basic_string@DU?$char_traits@D@std@@V?$allocator@D@2@@std@@PAU_MACROBLOCK@MQ2Internal@@@std@@PAX@1@@Z 03034a10 f i MQ2Globals.obj
 0001:00033a20       ??$destroy@PAU?$_Tree_node@U?$pair@$$CBV?$basic_string@DU?$char_traits@D@std@@V?$allocator@D@2@@std@@PAU_MACROBLOCK@MQ2Internal@@@std@@PAX@std@@@?$allocator@U?$_Tree_node@U?$pair@$$CBV?$basic_string@DU?$char_traits@D@std@@V?$allocator@D@2@@std@@PAU_MACROBLOCK@MQ2Internal@@@std@@PAX@std@@@std@@QAEXPAPAU?$_Tree_node@U?$pair@$$CBV?$basic_string@DU?$char_traits@D@std@@V?$allocator@D@2@@std@@PAU_MACROBLOCK@MQ2Internal@@@std@@PAX@1@@Z 03034a20 f i MQ2Globals.obj
 0001:00033a30       ??$destroy@PAU?$_Tree_node@U?$pair@$$CBV?$basic_string@DU?$char_traits@D@std@@V?$allocator@D@2@@std@@PAU_MACROBLOCK@MQ2Internal@@@std@@PAX@std@@@?$allocator_traits@V?$allocator@U?$_Tree_node@U?$pair@$$CBV?$basic_string@DU?$char_traits@D@std@@V?$allocator@D@2@@std@@PAU_MACROBLOCK@MQ2Internal@@@std@@PAX@std@@@std@@@std@@SAXAAV?$allocator@U?$_Tree_node@U?$pair@$$CBV?$basic_string@DU?$char_traits@D@std@@V?$allocator@D@2@@std@@PAU_MACROBLOCK@MQ2Internal@@@std@@PAX@std@@@1@PAPAU?$_Tree_node@U?$pair@$$CBV?$basic_string@DU?$char_traits@D@std@@V?$allocator@D@2@@std@@PAU_MACROBLOCK@MQ2Internal@@@std@@PAX@1@@Z 03034a30 f i MQ2Globals.obj
 0001:00033a40       ??$destroy@PAU?$_Tree_node@U?$pair@$$CBV?$basic_string@DU?$char_traits@D@std@@V?$allocator@D@2@@std@@PAU_SPAWNINFO@EQData@@@std@@PAX@std@@@?$_Wrap_alloc@V?$allocator@U?$_Tree_node@U?$pair@$$CBV?$basic_string@DU?$char_traits@D@std@@V?$allocator@D@2@@std@@PAU_SPAWNINFO@EQData@@@std@@PAX@std@@@std@@@std@@QAEXPAPAU?$_Tree_node@U?$pair@$$CBV?$basic_string@DU?$char_traits@D@std@@V?$allocator@D@2@@std@@PAU_SPAWNINFO@EQData@@@std@@PAX@1@@Z 03034a40 f i MQ2Globals.obj
 0001:00033a50       ??$destroy@PAU?$_Tree_node@U?$pair@$$CBV?$basic_string@DU?$char_traits@D@std@@V?$allocator@D@2@@std@@PAU_SPAWNINFO@EQData@@@std@@PAX@std@@@?$allocator@U?$_Tree_node@U?$pair@$$CBV?$basic_string@DU?$char_traits@D@std@@V?$allocator@D@2@@std@@PAU_SPAWNINFO@EQData@@@std@@PAX@std@@@std@@QAEXPAPAU?$_Tree_node@U?$pair@$$CBV?$basic_string@DU?$char_traits@D@std@@V?$allocator@D@2@@std@@PAU_SPAWNINFO@EQData@@@std@@PAX@1@@Z 03034a50 f i MQ2Globals.obj
 0001:00033a60       ??$destroy@PAU?$_Tree_node@U?$pair@$$CBV?$basic_string@DU?$char_traits@D@std@@V?$allocator@D@2@@std@@PAU_SPAWNINFO@EQData@@@std@@PAX@std@@@?$allocator_traits@V?$allocator@U?$_Tree_node@U?$pair@$$CBV?$basic_string@DU?$char_traits@D@std@@V?$allocator@D@2@@std@@PAU_SPAWNINFO@EQData@@@std@@PAX@std@@@std@@@std@@SAXAAV?$allocator@U?$_Tree_node@U?$pair@$$CBV?$basic_string@DU?$char_traits@D@std@@V?$allocator@D@2@@std@@PAU_SPAWNINFO@EQData@@@std@@PAX@std@@@1@PAPAU?$_Tree_node@U?$pair@$$CBV?$basic_string@DU?$char_traits@D@std@@V?$allocator@D@2@@std@@PAU_SPAWNINFO@EQData@@@std@@PAX@1@@Z 03034a60 f i MQ2Globals.obj
 0001:00033a70       ??$destroy@U?$pair@$$CBV?$basic_string@DU?$char_traits@D@std@@V?$allocator@D@2@@std@@PAU_MACROBLOCK@MQ2Internal@@@std@@@?$_Wrap_alloc@V?$allocator@U?$_Tree_node@U?$pair@$$CBV?$basic_string@DU?$char_traits@D@std@@V?$allocator@D@2@@std@@PAU_MACROBLOCK@MQ2Internal@@@std@@PAX@std@@@std@@@std@@QAEXPAU?$pair@$$CBV?$basic_string@DU?$char_traits@D@std@@V?$allocator@D@2@@std@@PAU_MACROBLOCK@MQ2Internal@@@1@@Z 03034a70 f i MQ2Globals.obj
 0001:00033aa0       ??$destroy@U?$pair@$$CBV?$basic_string@DU?$char_traits@D@std@@V?$allocator@D@2@@std@@PAU_MACROBLOCK@MQ2Internal@@@std@@@?$allocator@U?$_Tree_node@U?$pair@$$CBV?$basic_string@DU?$char_traits@D@std@@V?$allocator@D@2@@std@@PAU_MACROBLOCK@MQ2Internal@@@std@@PAX@std@@@std@@QAEXPAU?$pair@$$CBV?$basic_string@DU?$char_traits@D@std@@V?$allocator@D@2@@std@@PAU_MACROBLOCK@MQ2Internal@@@1@@Z 03034aa0 f i MQ2Globals.obj
 0001:00033ad0       ??$destroy@U?$pair@$$CBV?$basic_string@DU?$char_traits@D@std@@V?$allocator@D@2@@std@@PAU_MACROBLOCK@MQ2Internal@@@std@@@?$allocator_traits@V?$allocator@U?$_Tree_node@U?$pair@$$CBV?$basic_string@DU?$char_traits@D@std@@V?$allocator@D@2@@std@@PAU_MACROBLOCK@MQ2Internal@@@std@@PAX@std@@@std@@@std@@SAXAAV?$allocator@U?$_Tree_node@U?$pair@$$CBV?$basic_string@DU?$char_traits@D@std@@V?$allocator@D@2@@std@@PAU_MACROBLOCK@MQ2Internal@@@std@@PAX@std@@@1@PAU?$pair@$$CBV?$basic_string@DU?$char_traits@D@std@@V?$allocator@D@2@@std@@PAU_MACROBLOCK@MQ2Internal@@@1@@Z 03034ad0 f i MQ2Globals.obj
 0001:00033b00       ??$destroy@U?$pair@$$CBV?$basic_string@DU?$char_traits@D@std@@V?$allocator@D@2@@std@@PAU_SPAWNINFO@EQData@@@std@@@?$_Wrap_alloc@V?$allocator@U?$_Tree_node@U?$pair@$$CBV?$basic_string@DU?$char_traits@D@std@@V?$allocator@D@2@@std@@PAU_SPAWNINFO@EQData@@@std@@PAX@std@@@std@@@std@@QAEXPAU?$pair@$$CBV?$basic_string@DU?$char_traits@D@std@@V?$allocator@D@2@@std@@PAU_SPAWNINFO@EQData@@@1@@Z 03034b00 f i MQ2Globals.obj
 0001:00033b30       ??$destroy@U?$pair@$$CBV?$basic_string@DU?$char_traits@D@std@@V?$allocator@D@2@@std@@PAU_SPAWNINFO@EQData@@@std@@@?$allocator@U?$_Tree_node@U?$pair@$$CBV?$basic_string@DU?$char_traits@D@std@@V?$allocator@D@2@@std@@PAU_SPAWNINFO@EQData@@@std@@PAX@std@@@std@@QAEXPAU?$pair@$$CBV?$basic_string@DU?$char_traits@D@std@@V?$allocator@D@2@@std@@PAU_SPAWNINFO@EQData@@@1@@Z 03034b30 f i MQ2Globals.obj
 0001:00033b60       ??$destroy@U?$pair@$$CBV?$basic_string@DU?$char_traits@D@std@@V?$allocator@D@2@@std@@PAU_SPAWNINFO@EQData@@@std@@@?$allocator_traits@V?$allocator@U?$_Tree_node@U?$pair@$$CBV?$basic_string@DU?$char_traits@D@std@@V?$allocator@D@2@@std@@PAU_SPAWNINFO@EQData@@@std@@PAX@std@@@std@@@std@@SAXAAV?$allocator@U?$_Tree_node@U?$pair@$$CBV?$basic_string@DU?$char_traits@D@std@@V?$allocator@D@2@@std@@PAU_SPAWNINFO@EQData@@@std@@PAX@std@@@1@PAU?$pair@$$CBV?$basic_string@DU?$char_traits@D@std@@V?$allocator@D@2@@std@@PAU_SPAWNINFO@EQData@@@1@@Z 03034b60 f i MQ2Globals.obj
 0001:00033b90       ??$forward@AAPAU?$_Tree_node@U?$pair@$$CBV?$basic_string@DU?$char_traits@D@std@@V?$allocator@D@2@@std@@PAU_MACROBLOCK@MQ2Internal@@@std@@PAX@std@@@std@@YAAAPAU?$_Tree_node@U?$pair@$$CBV?$basic_string@DU?$char_traits@D@std@@V?$allocator@D@2@@std@@PAU_MACROBLOCK@MQ2Internal@@@std@@PAX@0@AAPAU10@@Z 03034b90 f i MQ2Globals.obj
 0001:00033ba0       ??$forward@AAPAU?$_Tree_node@U?$pair@$$CBV?$basic_string@DU?$char_traits@D@std@@V?$allocator@D@2@@std@@PAU_SPAWNINFO@EQData@@@std@@PAX@std@@@std@@YAAAPAU?$_Tree_node@U?$pair@$$CBV?$basic_string@DU?$char_traits@D@std@@V?$allocator@D@2@@std@@PAU_SPAWNINFO@EQData@@@std@@PAX@0@AAPAU10@@Z 03034ba0 f i MQ2Globals.obj
 0001:00033bb0       ??0?$_Tree@V?$_Tmap_traits@V?$basic_string@DU?$char_traits@D@std@@V?$allocator@D@2@@std@@PAU_MACROBLOCK@MQ2Internal@@U?$less@V?$basic_string@DU?$char_traits@D@std@@V?$allocator@D@2@@std@@@2@V?$allocator@U?$pair@$$CBV?$basic_string@DU?$char_traits@D@std@@V?$allocator@D@2@@std@@PAU_MACROBLOCK@MQ2Internal@@@std@@@2@$0A@@std@@@std@@QAE@ABU?$less@V?$basic_string@DU?$char_traits@D@std@@V?$allocator@D@2@@std@@@1@ABV?$allocator@U?$pair@$$CBV?$basic_string@DU?$char_traits@D@std@@V?$allocator@D@2@@std@@PAU_MACROBLOCK@MQ2Internal@@@std@@@1@@Z 03034bb0 f i MQ2Globals.obj
 0001:00033bd0       ??0?$_Tree@V?$_Tmap_traits@V?$basic_string@DU?$char_traits@D@std@@V?$allocator@D@2@@std@@PAU_SPAWNINFO@EQData@@U?$less@V?$basic_string@DU?$char_traits@D@std@@V?$allocator@D@2@@std@@@2@V?$allocator@U?$pair@$$CBV?$basic_string@DU?$char_traits@D@std@@V?$allocator@D@2@@std@@PAU_SPAWNINFO@EQData@@@std@@@2@$0A@@std@@@std@@QAE@ABU?$less@V?$basic_string@DU?$char_traits@D@std@@V?$allocator@D@2@@std@@@1@ABV?$allocator@U?$pair@$$CBV?$basic_string@DU?$char_traits@D@std@@V?$allocator@D@2@@std@@PAU_SPAWNINFO@EQData@@@std@@@1@@Z 03034bd0 f i MQ2Globals.obj
 0001:00033bf0       ??0?$_Tree_alloc@$0A@U?$_Tree_base_types@U?$pair@$$CBV?$basic_string@DU?$char_traits@D@std@@V?$allocator@D@2@@std@@PAU_MACROBLOCK@MQ2Internal@@@std@@V?$allocator@U?$pair@$$CBV?$basic_string@DU?$char_traits@D@std@@V?$allocator@D@2@@std@@PAU_MACROBLOCK@MQ2Internal@@@std@@@2@@std@@@std@@QAE@ABV?$allocator@U?$pair@$$CBV?$basic_string@DU?$char_traits@D@std@@V?$allocator@D@2@@std@@PAU_MACROBLOCK@MQ2Internal@@@std@@@1@@Z 03034bf0 f i MQ2Globals.obj
 0001:00033c10       ??0?$_Tree_alloc@$0A@U?$_Tree_base_types@U?$pair@$$CBV?$basic_string@DU?$char_traits@D@std@@V?$allocator@D@2@@std@@PAU_SPAWNINFO@EQData@@@std@@V?$allocator@U?$pair@$$CBV?$basic_string@DU?$char_traits@D@std@@V?$allocator@D@2@@std@@PAU_SPAWNINFO@EQData@@@std@@@2@@std@@@std@@QAE@ABV?$allocator@U?$pair@$$CBV?$basic_string@DU?$char_traits@D@std@@V?$allocator@D@2@@std@@PAU_SPAWNINFO@EQData@@@std@@@1@@Z 03034c10 f i MQ2Globals.obj
 0001:00033c30       ??0?$_Tree_buy@U?$pair@$$CBV?$basic_string@DU?$char_traits@D@std@@V?$allocator@D@2@@std@@PAU_MACROBLOCK@MQ2Internal@@@std@@V?$allocator@U?$pair@$$CBV?$basic_string@DU?$char_traits@D@std@@V?$allocator@D@2@@std@@PAU_MACROBLOCK@MQ2Internal@@@std@@@2@@std@@QAE@ABV?$allocator@U?$pair@$$CBV?$basic_string@DU?$char_traits@D@std@@V?$allocator@D@2@@std@@PAU_MACROBLOCK@MQ2Internal@@@std@@@1@@Z 03034c30 f i MQ2Globals.obj
 0001:00033c50       ??0?$_Tree_buy@U?$pair@$$CBV?$basic_string@DU?$char_traits@D@std@@V?$allocator@D@2@@std@@PAU_SPAWNINFO@EQData@@@std@@V?$allocator@U?$pair@$$CBV?$basic_string@DU?$char_traits@D@std@@V?$allocator@D@2@@std@@PAU_SPAWNINFO@EQData@@@std@@@2@@std@@QAE@ABV?$allocator@U?$pair@$$CBV?$basic_string@DU?$char_traits@D@std@@V?$allocator@D@2@@std@@PAU_SPAWNINFO@EQData@@@std@@@1@@Z 03034c50 f i MQ2Globals.obj
 0001:00033c70       ??0?$_Tree_comp@$0A@V?$_Tmap_traits@V?$basic_string@DU?$char_traits@D@std@@V?$allocator@D@2@@std@@PAU_MACROBLOCK@MQ2Internal@@U?$less@V?$basic_string@DU?$char_traits@D@std@@V?$allocator@D@2@@std@@@2@V?$allocator@U?$pair@$$CBV?$basic_string@DU?$char_traits@D@std@@V?$allocator@D@2@@std@@PAU_MACROBLOCK@MQ2Internal@@@std@@@2@$0A@@std@@@std@@QAE@ABU?$less@V?$basic_string@DU?$char_traits@D@std@@V?$allocator@D@2@@std@@@1@ABV?$allocator@U?$pair@$$CBV?$basic_string@DU?$char_traits@D@std@@V?$allocator@D@2@@std@@PAU_MACROBLOCK@MQ2Internal@@@std@@@1@@Z 03034c70 f i MQ2Globals.obj
 0001:00033c90       ??0?$_Tree_comp@$0A@V?$_Tmap_traits@V?$basic_string@DU?$char_traits@D@std@@V?$allocator@D@2@@std@@PAU_SPAWNINFO@EQData@@U?$less@V?$basic_string@DU?$char_traits@D@std@@V?$allocator@D@2@@std@@@2@V?$allocator@U?$pair@$$CBV?$basic_string@DU?$char_traits@D@std@@V?$allocator@D@2@@std@@PAU_SPAWNINFO@EQData@@@std@@@2@$0A@@std@@@std@@QAE@ABU?$less@V?$basic_string@DU?$char_traits@D@std@@V?$allocator@D@2@@std@@@1@ABV?$allocator@U?$pair@$$CBV?$basic_string@DU?$char_traits@D@std@@V?$allocator@D@2@@std@@PAU_SPAWNINFO@EQData@@@std@@@1@@Z 03034c90 f i MQ2Globals.obj
 0001:00033cb0       ??0?$_Tree_const_iterator@V?$_Tree_val@U?$_Tree_simple_types@U?$pair@$$CBV?$basic_string@DU?$char_traits@D@std@@V?$allocator@D@2@@std@@PAU_MACROBLOCK@MQ2Internal@@@std@@@std@@@std@@@std@@QAE@PAU?$_Tree_node@U?$pair@$$CBV?$basic_string@DU?$char_traits@D@std@@V?$allocator@D@2@@std@@PAU_MACROBLOCK@MQ2Internal@@@std@@PAX@1@PBV?$_Tree_val@U?$_Tree_simple_types@U?$pair@$$CBV?$basic_string@DU?$char_traits@D@std@@V?$allocator@D@2@@std@@PAU_MACROBLOCK@MQ2Internal@@@std@@@std@@@1@@Z 03034cb0 f i MQ2Globals.obj
 0001:00033cc0       ??0?$_Tree_const_iterator@V?$_Tree_val@U?$_Tree_simple_types@U?$pair@$$CBV?$basic_string@DU?$char_traits@D@std@@V?$allocator@D@2@@std@@PAU_SPAWNINFO@EQData@@@std@@@std@@@std@@@std@@QAE@PAU?$_Tree_node@U?$pair@$$CBV?$basic_string@DU?$char_traits@D@std@@V?$allocator@D@2@@std@@PAU_SPAWNINFO@EQData@@@std@@PAX@1@PBV?$_Tree_val@U?$_Tree_simple_types@U?$pair@$$CBV?$basic_string@DU?$char_traits@D@std@@V?$allocator@D@2@@std@@PAU_SPAWNINFO@EQData@@@std@@@std@@@1@@Z 03034cc0 f i MQ2Globals.obj
 0001:00033cd0       ??0?$_Tree_iterator@V?$_Tree_val@U?$_Tree_simple_types@U?$pair@$$CBV?$basic_string@DU?$char_traits@D@std@@V?$allocator@D@2@@std@@PAU_MACROBLOCK@MQ2Internal@@@std@@@std@@@std@@@std@@QAE@PAU?$_Tree_node@U?$pair@$$CBV?$basic_string@DU?$char_traits@D@std@@V?$allocator@D@2@@std@@PAU_MACROBLOCK@MQ2Internal@@@std@@PAX@1@PBV?$_Tree_val@U?$_Tree_simple_types@U?$pair@$$CBV?$basic_string@DU?$char_traits@D@std@@V?$allocator@D@2@@std@@PAU_MACROBLOCK@MQ2Internal@@@std@@@std@@@1@@Z 03034cd0 f i MQ2Globals.obj
 0001:00033ce0       ??0?$_Tree_iterator@V?$_Tree_val@U?$_Tree_simple_types@U?$pair@$$CBV?$basic_string@DU?$char_traits@D@std@@V?$allocator@D@2@@std@@PAU_SPAWNINFO@EQData@@@std@@@std@@@std@@@std@@QAE@PAU?$_Tree_node@U?$pair@$$CBV?$basic_string@DU?$char_traits@D@std@@V?$allocator@D@2@@std@@PAU_SPAWNINFO@EQData@@@std@@PAX@1@PBV?$_Tree_val@U?$_Tree_simple_types@U?$pair@$$CBV?$basic_string@DU?$char_traits@D@std@@V?$allocator@D@2@@std@@PAU_SPAWNINFO@EQData@@@std@@@std@@@1@@Z 03034ce0 f i MQ2Globals.obj
 0001:00033cf0       ??0?$_Tree_unchecked_const_iterator@V?$_Tree_val@U?$_Tree_simple_types@U?$pair@$$CBV?$basic_string@DU?$char_traits@D@std@@V?$allocator@D@2@@std@@PAU_MACROBLOCK@MQ2Internal@@@std@@@std@@@std@@U_Iterator_base0@2@@std@@QAE@PAU?$_Tree_node@U?$pair@$$CBV?$basic_string@DU?$char_traits@D@std@@V?$allocator@D@2@@std@@PAU_MACROBLOCK@MQ2Internal@@@std@@PAX@1@PBV?$_Tree_val@U?$_Tree_simple_types@U?$pair@$$CBV?$basic_string@DU?$char_traits@D@std@@V?$allocator@D@2@@std@@PAU_MACROBLOCK@MQ2Internal@@@std@@@std@@@1@@Z 03034cf0 f i MQ2Globals.obj
 0001:00033d00       ??0?$_Tree_unchecked_const_iterator@V?$_Tree_val@U?$_Tree_simple_types@U?$pair@$$CBV?$basic_string@DU?$char_traits@D@std@@V?$allocator@D@2@@std@@PAU_SPAWNINFO@EQData@@@std@@@std@@@std@@U_Iterator_base0@2@@std@@QAE@PAU?$_Tree_node@U?$pair@$$CBV?$basic_string@DU?$char_traits@D@std@@V?$allocator@D@2@@std@@PAU_SPAWNINFO@EQData@@@std@@PAX@1@PBV?$_Tree_val@U?$_Tree_simple_types@U?$pair@$$CBV?$basic_string@DU?$char_traits@D@std@@V?$allocator@D@2@@std@@PAU_SPAWNINFO@EQData@@@std@@@std@@@1@@Z 03034d00 f i MQ2Globals.obj
 0001:00033d10       ??0?$_Tree_val@U?$_Tree_simple_types@U?$pair@$$CBV?$basic_string@DU?$char_traits@D@std@@V?$allocator@D@2@@std@@PAU_MACROBLOCK@MQ2Internal@@@std@@@std@@@std@@QAE@XZ 03034d10 f i MQ2Globals.obj
 0001:00033d20       ??0?$_Tree_val@U?$_Tree_simple_types@U?$pair@$$CBV?$basic_string@DU?$char_traits@D@std@@V?$allocator@D@2@@std@@PAU_SPAWNINFO@EQData@@@std@@@std@@@std@@QAE@XZ 03034d20 f i MQ2Globals.obj
 0001:00033d30       ??0?$_Wrap_alloc@V?$allocator@U?$_Tree_node@U?$pair@$$CBV?$basic_string@DU?$char_traits@D@std@@V?$allocator@D@2@@std@@PAU_MACROBLOCK@MQ2Internal@@@std@@PAX@std@@@std@@@std@@QAE@XZ 03034d30 f i MQ2Globals.obj
 0001:00033d40       ??0?$_Wrap_alloc@V?$allocator@U?$_Tree_node@U?$pair@$$CBV?$basic_string@DU?$char_traits@D@std@@V?$allocator@D@2@@std@@PAU_SPAWNINFO@EQData@@@std@@PAX@std@@@std@@@std@@QAE@XZ 03034d40 f i MQ2Globals.obj
 0001:00033d50       ??0?$allocator@U?$_Tree_node@U?$pair@$$CBV?$basic_string@DU?$char_traits@D@std@@V?$allocator@D@2@@std@@PAU_MACROBLOCK@MQ2Internal@@@std@@PAX@std@@@std@@QAE@XZ 03034d50 f i MQ2Globals.obj
 0001:00033d60       ??0?$allocator@U?$_Tree_node@U?$pair@$$CBV?$basic_string@DU?$char_traits@D@std@@V?$allocator@D@2@@std@@PAU_SPAWNINFO@EQData@@@std@@PAX@std@@@std@@QAE@XZ 03034d60 f i MQ2Globals.obj
 0001:00033d70       ??0?$allocator@U?$pair@$$CBV?$basic_string@DU?$char_traits@D@std@@V?$allocator@D@2@@std@@PAU_MACROBLOCK@MQ2Internal@@@std@@@std@@QAE@XZ 03034d70 f i MQ2Globals.obj
 0001:00033d80       ??0?$allocator@U?$pair@$$CBV?$basic_string@DU?$char_traits@D@std@@V?$allocator@D@2@@std@@PAU_SPAWNINFO@EQData@@@std@@@std@@QAE@XZ 03034d80 f i MQ2Globals.obj
 0001:00033d90       ??0?$map@V?$basic_string@DU?$char_traits@D@std@@V?$allocator@D@2@@std@@PAU_MACROBLOCK@MQ2Internal@@U?$less@V?$basic_string@DU?$char_traits@D@std@@V?$allocator@D@2@@std@@@2@V?$allocator@U?$pair@$$CBV?$basic_string@DU?$char_traits@D@std@@V?$allocator@D@2@@std@@PAU_MACROBLOCK@MQ2Internal@@@std@@@2@@std@@QAE@XZ 03034d90 f i MQ2Globals.obj
 0001:00033db0       ??0?$map@V?$basic_string@DU?$char_traits@D@std@@V?$allocator@D@2@@std@@PAU_SPAWNINFO@EQData@@U?$less@V?$basic_string@DU?$char_traits@D@std@@V?$allocator@D@2@@std@@@2@V?$allocator@U?$pair@$$CBV?$basic_string@DU?$char_traits@D@std@@V?$allocator@D@2@@std@@PAU_SPAWNINFO@EQData@@@std@@@2@@std@@QAE@XZ 03034db0 f i MQ2Globals.obj
 0001:00033dd0       ??1?$_Tree@V?$_Tmap_traits@V?$basic_string@DU?$char_traits@D@std@@V?$allocator@D@2@@std@@PAU_MACROBLOCK@MQ2Internal@@U?$less@V?$basic_string@DU?$char_traits@D@std@@V?$allocator@D@2@@std@@@2@V?$allocator@U?$pair@$$CBV?$basic_string@DU?$char_traits@D@std@@V?$allocator@D@2@@std@@PAU_MACROBLOCK@MQ2Internal@@@std@@@2@$0A@@std@@@std@@QAE@XZ 03034dd0 f i MQ2Globals.obj
 0001:00033e00       ??1?$_Tree@V?$_Tmap_traits@V?$basic_string@DU?$char_traits@D@std@@V?$allocator@D@2@@std@@PAU_SPAWNINFO@EQData@@U?$less@V?$basic_string@DU?$char_traits@D@std@@V?$allocator@D@2@@std@@@2@V?$allocator@U?$pair@$$CBV?$basic_string@DU?$char_traits@D@std@@V?$allocator@D@2@@std@@PAU_SPAWNINFO@EQData@@@std@@@2@$0A@@std@@@std@@QAE@XZ 03034e00 f i MQ2Globals.obj
 0001:00033e30       ??1?$_Tree_alloc@$0A@U?$_Tree_base_types@U?$pair@$$CBV?$basic_string@DU?$char_traits@D@std@@V?$allocator@D@2@@std@@PAU_MACROBLOCK@MQ2Internal@@@std@@V?$allocator@U?$pair@$$CBV?$basic_string@DU?$char_traits@D@std@@V?$allocator@D@2@@std@@PAU_MACROBLOCK@MQ2Internal@@@std@@@2@@std@@@std@@QAE@XZ 03034e30 f i MQ2Globals.obj
 0001:00033e40       ??1?$_Tree_alloc@$0A@U?$_Tree_base_types@U?$pair@$$CBV?$basic_string@DU?$char_traits@D@std@@V?$allocator@D@2@@std@@PAU_SPAWNINFO@EQData@@@std@@V?$allocator@U?$pair@$$CBV?$basic_string@DU?$char_traits@D@std@@V?$allocator@D@2@@std@@PAU_SPAWNINFO@EQData@@@std@@@2@@std@@@std@@QAE@XZ 03034e40 f i MQ2Globals.obj
 0001:00033e50       ??1?$_Tree_buy@U?$pair@$$CBV?$basic_string@DU?$char_traits@D@std@@V?$allocator@D@2@@std@@PAU_MACROBLOCK@MQ2Internal@@@std@@V?$allocator@U?$pair@$$CBV?$basic_string@DU?$char_traits@D@std@@V?$allocator@D@2@@std@@PAU_MACROBLOCK@MQ2Internal@@@std@@@2@@std@@QAE@XZ 03034e50 f i MQ2Globals.obj
 0001:00033e60       ??1?$_Tree_buy@U?$pair@$$CBV?$basic_string@DU?$char_traits@D@std@@V?$allocator@D@2@@std@@PAU_SPAWNINFO@EQData@@@std@@V?$allocator@U?$pair@$$CBV?$basic_string@DU?$char_traits@D@std@@V?$allocator@D@2@@std@@PAU_SPAWNINFO@EQData@@@std@@@2@@std@@QAE@XZ 03034e60 f i MQ2Globals.obj
 0001:00033e70       ??1?$_Tree_comp@$0A@V?$_Tmap_traits@V?$basic_string@DU?$char_traits@D@std@@V?$allocator@D@2@@std@@PAU_MACROBLOCK@MQ2Internal@@U?$less@V?$basic_string@DU?$char_traits@D@std@@V?$allocator@D@2@@std@@@2@V?$allocator@U?$pair@$$CBV?$basic_string@DU?$char_traits@D@std@@V?$allocator@D@2@@std@@PAU_MACROBLOCK@MQ2Internal@@@std@@@2@$0A@@std@@@std@@QAE@XZ 03034e70 f i MQ2Globals.obj
 0001:00033e80       ??1?$_Tree_comp@$0A@V?$_Tmap_traits@V?$basic_string@DU?$char_traits@D@std@@V?$allocator@D@2@@std@@PAU_SPAWNINFO@EQData@@U?$less@V?$basic_string@DU?$char_traits@D@std@@V?$allocator@D@2@@std@@@2@V?$allocator@U?$pair@$$CBV?$basic_string@DU?$char_traits@D@std@@V?$allocator@D@2@@std@@PAU_SPAWNINFO@EQData@@@std@@@2@$0A@@std@@@std@@QAE@XZ 03034e80 f i MQ2Globals.obj
 0001:00033e90       ??1?$map@V?$basic_string@DU?$char_traits@D@std@@V?$allocator@D@2@@std@@PAU_MACROBLOCK@MQ2Internal@@U?$less@V?$basic_string@DU?$char_traits@D@std@@V?$allocator@D@2@@std@@@2@V?$allocator@U?$pair@$$CBV?$basic_string@DU?$char_traits@D@std@@V?$allocator@D@2@@std@@PAU_MACROBLOCK@MQ2Internal@@@std@@@2@@std@@QAE@XZ 03034e90 f i MQ2Globals.obj
 0001:00033ec0       ??1?$map@V?$basic_string@DU?$char_traits@D@std@@V?$allocator@D@2@@std@@PAU_SPAWNINFO@EQData@@U?$less@V?$basic_string@DU?$char_traits@D@std@@V?$allocator@D@2@@std@@@2@V?$allocator@U?$pair@$$CBV?$basic_string@DU?$char_traits@D@std@@V?$allocator@D@2@@std@@PAU_SPAWNINFO@EQData@@@std@@@2@@std@@QAE@XZ 03034ec0 f i MQ2Globals.obj
 0001:00033ef0       ??1?$pair@$$CBV?$basic_string@DU?$char_traits@D@std@@V?$allocator@D@2@@std@@PAU_MACROBLOCK@MQ2Internal@@@std@@QAE@XZ 03034ef0 f i MQ2Globals.obj
 0001:00033f20       ??1?$pair@$$CBV?$basic_string@DU?$char_traits@D@std@@V?$allocator@D@2@@std@@PAU_SPAWNINFO@EQData@@@std@@QAE@XZ 03034f20 f i MQ2Globals.obj
 0001:00033f50       ??8?$_Tree_const_iterator@V?$_Tree_val@U?$_Tree_simple_types@U?$pair@$$CBV?$basic_string@DU?$char_traits@D@std@@V?$allocator@D@2@@std@@PAU_MACROBLOCK@MQ2Internal@@@std@@@std@@@std@@@std@@QBE_NABV01@@Z 03034f50 f i MQ2Globals.obj
 0001:00033f70       ??8?$_Tree_const_iterator@V?$_Tree_val@U?$_Tree_simple_types@U?$pair@$$CBV?$basic_string@DU?$char_traits@D@std@@V?$allocator@D@2@@std@@PAU_SPAWNINFO@EQData@@@std@@@std@@@std@@@std@@QBE_NABV01@@Z 03034f70 f i MQ2Globals.obj
 0001:00033f90       ??9?$_Tree_const_iterator@V?$_Tree_val@U?$_Tree_simple_types@U?$pair@$$CBV?$basic_string@DU?$char_traits@D@std@@V?$allocator@D@2@@std@@PAU_MACROBLOCK@MQ2Internal@@@std@@@std@@@std@@@std@@QBE_NABV01@@Z 03034f90 f i MQ2Globals.obj
 0001:00033fb0       ??9?$_Tree_const_iterator@V?$_Tree_val@U?$_Tree_simple_types@U?$pair@$$CBV?$basic_string@DU?$char_traits@D@std@@V?$allocator@D@2@@std@@PAU_SPAWNINFO@EQData@@@std@@@std@@@std@@@std@@QBE_NABV01@@Z 03034fb0 f i MQ2Globals.obj
 0001:00033fd0       ??E?$_Tree_const_iterator@V?$_Tree_val@U?$_Tree_simple_types@U?$pair@$$CBV?$basic_string@DU?$char_traits@D@std@@V?$allocator@D@2@@std@@PAU_MACROBLOCK@MQ2Internal@@@std@@@std@@@std@@@std@@QAE?AV01@H@Z 03034fd0 f i MQ2Globals.obj
 0001:00033ff0       ??E?$_Tree_const_iterator@V?$_Tree_val@U?$_Tree_simple_types@U?$pair@$$CBV?$basic_string@DU?$char_traits@D@std@@V?$allocator@D@2@@std@@PAU_MACROBLOCK@MQ2Internal@@@std@@@std@@@std@@@std@@QAEAAV01@XZ 03034ff0 f i MQ2Globals.obj
 0001:00034000       ??E?$_Tree_const_iterator@V?$_Tree_val@U?$_Tree_simple_types@U?$pair@$$CBV?$basic_string@DU?$char_traits@D@std@@V?$allocator@D@2@@std@@PAU_SPAWNINFO@EQData@@@std@@@std@@@std@@@std@@QAE?AV01@H@Z 03035000 f i MQ2Globals.obj
 0001:00034020       ??E?$_Tree_const_iterator@V?$_Tree_val@U?$_Tree_simple_types@U?$pair@$$CBV?$basic_string@DU?$char_traits@D@std@@V?$allocator@D@2@@std@@PAU_SPAWNINFO@EQData@@@std@@@std@@@std@@@std@@QAEAAV01@XZ 03035020 f i MQ2Globals.obj
 0001:00034030       ??E?$_Tree_unchecked_const_iterator@V?$_Tree_val@U?$_Tree_simple_types@U?$pair@$$CBV?$basic_string@DU?$char_traits@D@std@@V?$allocator@D@2@@std@@PAU_MACROBLOCK@MQ2Internal@@@std@@@std@@@std@@U_Iterator_base0@2@@std@@QAEAAV01@XZ 03035030 f i MQ2Globals.obj
 0001:00034080       ??E?$_Tree_unchecked_const_iterator@V?$_Tree_val@U?$_Tree_simple_types@U?$pair@$$CBV?$basic_string@DU?$char_traits@D@std@@V?$allocator@D@2@@std@@PAU_SPAWNINFO@EQData@@@std@@@std@@@std@@U_Iterator_base0@2@@std@@QAEAAV01@XZ 03035080 f i MQ2Globals.obj
 0001:000340d0       ??_G?$pair@$$CBV?$basic_string@DU?$char_traits@D@std@@V?$allocator@D@2@@std@@PAU_MACROBLOCK@MQ2Internal@@@std@@QAEPAXI@Z 030350d0 f i MQ2Globals.obj
 0001:00034110       ??_G?$pair@$$CBV?$basic_string@DU?$char_traits@D@std@@V?$allocator@D@2@@std@@PAU_SPAWNINFO@EQData@@@std@@QAEPAXI@Z 03035110 f i MQ2Globals.obj
 0001:00034150       ?_Buyheadnode@?$_Tree_alloc@$0A@U?$_Tree_base_types@U?$pair@$$CBV?$basic_string@DU?$char_traits@D@std@@V?$allocator@D@2@@std@@PAU_MACROBLOCK@MQ2Internal@@@std@@V?$allocator@U?$pair@$$CBV?$basic_string@DU?$char_traits@D@std@@V?$allocator@D@2@@std@@PAU_MACROBLOCK@MQ2Internal@@@std@@@2@@std@@@std@@QAEPAU?$_Tree_node@U?$pair@$$CBV?$basic_string@DU?$char_traits@D@std@@V?$allocator@D@2@@std@@PAU_MACROBLOCK@MQ2Internal@@@std@@PAX@2@XZ 03035150 f i MQ2Globals.obj
 0001:000341e0       ?_Buyheadnode@?$_Tree_alloc@$0A@U?$_Tree_base_types@U?$pair@$$CBV?$basic_string@DU?$char_traits@D@std@@V?$allocator@D@2@@std@@PAU_SPAWNINFO@EQData@@@std@@V?$allocator@U?$pair@$$CBV?$basic_string@DU?$char_traits@D@std@@V?$allocator@D@2@@std@@PAU_SPAWNINFO@EQData@@@std@@@2@@std@@@std@@QAEPAU?$_Tree_node@U?$pair@$$CBV?$basic_string@DU?$char_traits@D@std@@V?$allocator@D@2@@std@@PAU_SPAWNINFO@EQData@@@std@@PAX@2@XZ 030351e0 f i MQ2Globals.obj
 0001:00034270       ?_Color@?$_Tree_val@U?$_Tree_simple_types@U?$pair@$$CBV?$basic_string@DU?$char_traits@D@std@@V?$allocator@D@2@@std@@PAU_MACROBLOCK@MQ2Internal@@@std@@@std@@@std@@SAAADPAU?$_Tree_node@U?$pair@$$CBV?$basic_string@DU?$char_traits@D@std@@V?$allocator@D@2@@std@@PAU_MACROBLOCK@MQ2Internal@@@std@@PAX@2@@Z 03035270 f i MQ2Globals.obj
 0001:00034280       ?_Color@?$_Tree_val@U?$_Tree_simple_types@U?$pair@$$CBV?$basic_string@DU?$char_traits@D@std@@V?$allocator@D@2@@std@@PAU_SPAWNINFO@EQData@@@std@@@std@@@std@@SAAADPAU?$_Tree_node@U?$pair@$$CBV?$basic_string@DU?$char_traits@D@std@@V?$allocator@D@2@@std@@PAU_SPAWNINFO@EQData@@@std@@PAX@2@@Z 03035280 f i MQ2Globals.obj
 0001:00034290       ?_Erase@?$_Tree@V?$_Tmap_traits@V?$basic_string@DU?$char_traits@D@std@@V?$allocator@D@2@@std@@PAU_MACROBLOCK@MQ2Internal@@U?$less@V?$basic_string@DU?$char_traits@D@std@@V?$allocator@D@2@@std@@@2@V?$allocator@U?$pair@$$CBV?$basic_string@DU?$char_traits@D@std@@V?$allocator@D@2@@std@@PAU_MACROBLOCK@MQ2Internal@@@std@@@2@$0A@@std@@@std@@IAEXPAU?$_Tree_node@U?$pair@$$CBV?$basic_string@DU?$char_traits@D@std@@V?$allocator@D@2@@std@@PAU_MACROBLOCK@MQ2Internal@@@std@@PAX@2@@Z 03035290 f i MQ2Globals.obj
 0001:000342f0       ?_Erase@?$_Tree@V?$_Tmap_traits@V?$basic_string@DU?$char_traits@D@std@@V?$allocator@D@2@@std@@PAU_SPAWNINFO@EQData@@U?$less@V?$basic_string@DU?$char_traits@D@std@@V?$allocator@D@2@@std@@@2@V?$allocator@U?$pair@$$CBV?$basic_string@DU?$char_traits@D@std@@V?$allocator@D@2@@std@@PAU_SPAWNINFO@EQData@@@std@@@2@$0A@@std@@@std@@IAEXPAU?$_Tree_node@U?$pair@$$CBV?$basic_string@DU?$char_traits@D@std@@V?$allocator@D@2@@std@@PAU_SPAWNINFO@EQData@@@std@@PAX@2@@Z 030352f0 f i MQ2Globals.obj
 0001:00034350       ?_Freeheadnode@?$_Tree_alloc@$0A@U?$_Tree_base_types@U?$pair@$$CBV?$basic_string@DU?$char_traits@D@std@@V?$allocator@D@2@@std@@PAU_MACROBLOCK@MQ2Internal@@@std@@V?$allocator@U?$pair@$$CBV?$basic_string@DU?$char_traits@D@std@@V?$allocator@D@2@@std@@PAU_MACROBLOCK@MQ2Internal@@@std@@@2@@std@@@std@@QAEXPAU?$_Tree_node@U?$pair@$$CBV?$basic_string@DU?$char_traits@D@std@@V?$allocator@D@2@@std@@PAU_MACROBLOCK@MQ2Internal@@@std@@PAX@2@@Z 03035350 f i MQ2Globals.obj
 0001:00034370       ?_Freeheadnode@?$_Tree_alloc@$0A@U?$_Tree_base_types@U?$pair@$$CBV?$basic_string@DU?$char_traits@D@std@@V?$allocator@D@2@@std@@PAU_SPAWNINFO@EQData@@@std@@V?$allocator@U?$pair@$$CBV?$basic_string@DU?$char_traits@D@std@@V?$allocator@D@2@@std@@PAU_SPAWNINFO@EQData@@@std@@@2@@std@@@std@@QAEXPAU?$_Tree_node@U?$pair@$$CBV?$basic_string@DU?$char_traits@D@std@@V?$allocator@D@2@@std@@PAU_SPAWNINFO@EQData@@@std@@PAX@2@@Z 03035370 f i MQ2Globals.obj
 0001:00034390       ?_Getal@?$_Tree_alloc@$0A@U?$_Tree_base_types@U?$pair@$$CBV?$basic_string@DU?$char_traits@D@std@@V?$allocator@D@2@@std@@PAU_MACROBLOCK@MQ2Internal@@@std@@V?$allocator@U?$pair@$$CBV?$basic_string@DU?$char_traits@D@std@@V?$allocator@D@2@@std@@PAU_MACROBLOCK@MQ2Internal@@@std@@@2@@std@@@std@@QBE?AU?$_Wrap_alloc@V?$allocator@U?$_Tree_node@U?$pair@$$CBV?$basic_string@DU?$char_traits@D@std@@V?$allocator@D@2@@std@@PAU_MACROBLOCK@MQ2Internal@@@std@@PAX@std@@@std@@@2@XZ 03035390 f i MQ2Globals.obj
 0001:000343a0       ?_Getal@?$_Tree_alloc@$0A@U?$_Tree_base_types@U?$pair@$$CBV?$basic_string@DU?$char_traits@D@std@@V?$allocator@D@2@@std@@PAU_SPAWNINFO@EQData@@@std@@V?$allocator@U?$pair@$$CBV?$basic_string@DU?$char_traits@D@std@@V?$allocator@D@2@@std@@PAU_SPAWNINFO@EQData@@@std@@@2@@std@@@std@@QBE?AU?$_Wrap_alloc@V?$allocator@U?$_Tree_node@U?$pair@$$CBV?$basic_string@DU?$char_traits@D@std@@V?$allocator@D@2@@std@@PAU_SPAWNINFO@EQData@@@std@@PAX@std@@@std@@@2@XZ 030353a0 f i MQ2Globals.obj
 0001:000343b0       ?_Isnil@?$_Tree_val@U?$_Tree_simple_types@U?$pair@$$CBV?$basic_string@DU?$char_traits@D@std@@V?$allocator@D@2@@std@@PAU_MACROBLOCK@MQ2Internal@@@std@@@std@@@std@@SAAADPAU?$_Tree_node@U?$pair@$$CBV?$basic_string@DU?$char_traits@D@std@@V?$allocator@D@2@@std@@PAU_MACROBLOCK@MQ2Internal@@@std@@PAX@2@@Z 030353b0 f i MQ2Globals.obj
 0001:000343c0       ?_Isnil@?$_Tree_val@U?$_Tree_simple_types@U?$pair@$$CBV?$basic_string@DU?$char_traits@D@std@@V?$allocator@D@2@@std@@PAU_SPAWNINFO@EQData@@@std@@@std@@@std@@SAAADPAU?$_Tree_node@U?$pair@$$CBV?$basic_string@DU?$char_traits@D@std@@V?$allocator@D@2@@std@@PAU_SPAWNINFO@EQData@@@std@@PAX@2@@Z 030353c0 f i MQ2Globals.obj
 0001:000343d0       ?_Left@?$_Tree_val@U?$_Tree_simple_types@U?$pair@$$CBV?$basic_string@DU?$char_traits@D@std@@V?$allocator@D@2@@std@@PAU_MACROBLOCK@MQ2Internal@@@std@@@std@@@std@@SAAAPAU?$_Tree_node@U?$pair@$$CBV?$basic_string@DU?$char_traits@D@std@@V?$allocator@D@2@@std@@PAU_MACROBLOCK@MQ2Internal@@@std@@PAX@2@PAU32@@Z 030353d0 f i MQ2Globals.obj
 0001:000343e0       ?_Left@?$_Tree_val@U?$_Tree_simple_types@U?$pair@$$CBV?$basic_string@DU?$char_traits@D@std@@V?$allocator@D@2@@std@@PAU_SPAWNINFO@EQData@@@std@@@std@@@std@@SAAAPAU?$_Tree_node@U?$pair@$$CBV?$basic_string@DU?$char_traits@D@std@@V?$allocator@D@2@@std@@PAU_SPAWNINFO@EQData@@@std@@PAX@2@PAU32@@Z 030353e0 f i MQ2Globals.obj
 0001:000343f0       ?_Lmost@?$_Tree@V?$_Tmap_traits@V?$basic_string@DU?$char_traits@D@std@@V?$allocator@D@2@@std@@PAU_MACROBLOCK@MQ2Internal@@U?$less@V?$basic_string@DU?$char_traits@D@std@@V?$allocator@D@2@@std@@@2@V?$allocator@U?$pair@$$CBV?$basic_string@DU?$char_traits@D@std@@V?$allocator@D@2@@std@@PAU_MACROBLOCK@MQ2Internal@@@std@@@2@$0A@@std@@@std@@IBEAAPAU?$_Tree_node@U?$pair@$$CBV?$basic_string@DU?$char_traits@D@std@@V?$allocator@D@2@@std@@PAU_MACROBLOCK@MQ2Internal@@@std@@PAX@2@XZ 030353f0 f i MQ2Globals.obj
 0001:00034400       ?_Lmost@?$_Tree@V?$_Tmap_traits@V?$basic_string@DU?$char_traits@D@std@@V?$allocator@D@2@@std@@PAU_SPAWNINFO@EQData@@U?$less@V?$basic_string@DU?$char_traits@D@std@@V?$allocator@D@2@@std@@@2@V?$allocator@U?$pair@$$CBV?$basic_string@DU?$char_traits@D@std@@V?$allocator@D@2@@std@@PAU_SPAWNINFO@EQData@@@std@@@2@$0A@@std@@@std@@IBEAAPAU?$_Tree_node@U?$pair@$$CBV?$basic_string@DU?$char_traits@D@std@@V?$allocator@D@2@@std@@PAU_SPAWNINFO@EQData@@@std@@PAX@2@XZ 03035400 f i MQ2Globals.obj
 0001:00034410       ?_Lrotate@?$_Tree@V?$_Tmap_traits@V?$basic_string@DU?$char_traits@D@std@@V?$allocator@D@2@@std@@PAU_MACROBLOCK@MQ2Internal@@U?$less@V?$basic_string@DU?$char_traits@D@std@@V?$allocator@D@2@@std@@@2@V?$allocator@U?$pair@$$CBV?$basic_string@DU?$char_traits@D@std@@V?$allocator@D@2@@std@@PAU_MACROBLOCK@MQ2Internal@@@std@@@2@$0A@@std@@@std@@IAEXPAU?$_Tree_node@U?$pair@$$CBV?$basic_string@DU?$char_traits@D@std@@V?$allocator@D@2@@std@@PAU_MACROBLOCK@MQ2Internal@@@std@@PAX@2@@Z 03035410 f i MQ2Globals.obj
 0001:00034470       ?_Lrotate@?$_Tree@V?$_Tmap_traits@V?$basic_string@DU?$char_traits@D@std@@V?$allocator@D@2@@std@@PAU_SPAWNINFO@EQData@@U?$less@V?$basic_string@DU?$char_traits@D@std@@V?$allocator@D@2@@std@@@2@V?$allocator@U?$pair@$$CBV?$basic_string@DU?$char_traits@D@std@@V?$allocator@D@2@@std@@PAU_SPAWNINFO@EQData@@@std@@@2@$0A@@std@@@std@@IAEXPAU?$_Tree_node@U?$pair@$$CBV?$basic_string@DU?$char_traits@D@std@@V?$allocator@D@2@@std@@PAU_SPAWNINFO@EQData@@@std@@PAX@2@@Z 03035470 f i MQ2Globals.obj
 0001:000344d0       ?_Max@?$_Tree_val@U?$_Tree_simple_types@U?$pair@$$CBV?$basic_string@DU?$char_traits@D@std@@V?$allocator@D@2@@std@@PAU_MACROBLOCK@MQ2Internal@@@std@@@std@@@std@@SAPAU?$_Tree_node@U?$pair@$$CBV?$basic_string@DU?$char_traits@D@std@@V?$allocator@D@2@@std@@PAU_MACROBLOCK@MQ2Internal@@@std@@PAX@2@PAU32@@Z 030354d0 f i MQ2Globals.obj
 0001:000344f0       ?_Max@?$_Tree_val@U?$_Tree_simple_types@U?$pair@$$CBV?$basic_string@DU?$char_traits@D@std@@V?$allocator@D@2@@std@@PAU_SPAWNINFO@EQData@@@std@@@std@@@std@@SAPAU?$_Tree_node@U?$pair@$$CBV?$basic_string@DU?$char_traits@D@std@@V?$allocator@D@2@@std@@PAU_SPAWNINFO@EQData@@@std@@PAX@2@PAU32@@Z 030354f0 f i MQ2Globals.obj
 0001:00034510       ?_Min@?$_Tree_val@U?$_Tree_simple_types@U?$pair@$$CBV?$basic_string@DU?$char_traits@D@std@@V?$allocator@D@2@@std@@PAU_MACROBLOCK@MQ2Internal@@@std@@@std@@@std@@SAPAU?$_Tree_node@U?$pair@$$CBV?$basic_string@DU?$char_traits@D@std@@V?$allocator@D@2@@std@@PAU_MACROBLOCK@MQ2Internal@@@std@@PAX@2@PAU32@@Z 03035510 f i MQ2Globals.obj
 0001:00034530       ?_Min@?$_Tree_val@U?$_Tree_simple_types@U?$pair@$$CBV?$basic_string@DU?$char_traits@D@std@@V?$allocator@D@2@@std@@PAU_SPAWNINFO@EQData@@@std@@@std@@@std@@SAPAU?$_Tree_node@U?$pair@$$CBV?$basic_string@DU?$char_traits@D@std@@V?$allocator@D@2@@std@@PAU_SPAWNINFO@EQData@@@std@@PAX@2@PAU32@@Z 03035530 f i MQ2Globals.obj
 0001:00034550       ?_Mynode@?$_Tree_unchecked_const_iterator@V?$_Tree_val@U?$_Tree_simple_types@U?$pair@$$CBV?$basic_string@DU?$char_traits@D@std@@V?$allocator@D@2@@std@@PAU_MACROBLOCK@MQ2Internal@@@std@@@std@@@std@@U_Iterator_base0@2@@std@@QBEPAU?$_Tree_node@U?$pair@$$CBV?$basic_string@DU?$char_traits@D@std@@V?$allocator@D@2@@std@@PAU_MACROBLOCK@MQ2Internal@@@std@@PAX@2@XZ 03035550 f i MQ2Globals.obj
 0001:00034560       ?_Mynode@?$_Tree_unchecked_const_iterator@V?$_Tree_val@U?$_Tree_simple_types@U?$pair@$$CBV?$basic_string@DU?$char_traits@D@std@@V?$allocator@D@2@@std@@PAU_SPAWNINFO@EQData@@@std@@@std@@@std@@U_Iterator_base0@2@@std@@QBEPAU?$_Tree_node@U?$pair@$$CBV?$basic_string@DU?$char_traits@D@std@@V?$allocator@D@2@@std@@PAU_SPAWNINFO@EQData@@@std@@PAX@2@XZ 03035560 f i MQ2Globals.obj
 0001:00034570       ?_Myval@?$_Tree_val@U?$_Tree_simple_types@U?$pair@$$CBV?$basic_string@DU?$char_traits@D@std@@V?$allocator@D@2@@std@@PAU_MACROBLOCK@MQ2Internal@@@std@@@std@@@std@@SAAAU?$pair@$$CBV?$basic_string@DU?$char_traits@D@std@@V?$allocator@D@2@@std@@PAU_MACROBLOCK@MQ2Internal@@@2@PAU?$_Tree_node@U?$pair@$$CBV?$basic_string@DU?$char_traits@D@std@@V?$allocator@D@2@@std@@PAU_MACROBLOCK@MQ2Internal@@@std@@PAX@2@@Z 03035570 f i MQ2Globals.obj
 0001:00034580       ?_Myval@?$_Tree_val@U?$_Tree_simple_types@U?$pair@$$CBV?$basic_string@DU?$char_traits@D@std@@V?$allocator@D@2@@std@@PAU_SPAWNINFO@EQData@@@std@@@std@@@std@@SAAAU?$pair@$$CBV?$basic_string@DU?$char_traits@D@std@@V?$allocator@D@2@@std@@PAU_SPAWNINFO@EQData@@@2@PAU?$_Tree_node@U?$pair@$$CBV?$basic_string@DU?$char_traits@D@std@@V?$allocator@D@2@@std@@PAU_SPAWNINFO@EQData@@@std@@PAX@2@@Z 03035580 f i MQ2Globals.obj
 0001:00034590       ?_Parent@?$_Tree_val@U?$_Tree_simple_types@U?$pair@$$CBV?$basic_string@DU?$char_traits@D@std@@V?$allocator@D@2@@std@@PAU_MACROBLOCK@MQ2Internal@@@std@@@std@@@std@@SAAAPAU?$_Tree_node@U?$pair@$$CBV?$basic_string@DU?$char_traits@D@std@@V?$allocator@D@2@@std@@PAU_MACROBLOCK@MQ2Internal@@@std@@PAX@2@PAU32@@Z 03035590 f i MQ2Globals.obj
 0001:000345a0       ?_Parent@?$_Tree_val@U?$_Tree_simple_types@U?$pair@$$CBV?$basic_string@DU?$char_traits@D@std@@V?$allocator@D@2@@std@@PAU_SPAWNINFO@EQData@@@std@@@std@@@std@@SAAAPAU?$_Tree_node@U?$pair@$$CBV?$basic_string@DU?$char_traits@D@std@@V?$allocator@D@2@@std@@PAU_SPAWNINFO@EQData@@@std@@PAX@2@PAU32@@Z 030355a0 f i MQ2Globals.obj
 0001:000345b0       ?_Right@?$_Tree_val@U?$_Tree_simple_types@U?$pair@$$CBV?$basic_string@DU?$char_traits@D@std@@V?$allocator@D@2@@std@@PAU_MACROBLOCK@MQ2Internal@@@std@@@std@@@std@@SAAAPAU?$_Tree_node@U?$pair@$$CBV?$basic_string@DU?$char_traits@D@std@@V?$allocator@D@2@@std@@PAU_MACROBLOCK@MQ2Internal@@@std@@PAX@2@PAU32@@Z 030355b0 f i MQ2Globals.obj
 0001:000345c0       ?_Right@?$_Tree_val@U?$_Tree_simple_types@U?$pair@$$CBV?$basic_string@DU?$char_traits@D@std@@V?$allocator@D@2@@std@@PAU_SPAWNINFO@EQData@@@std@@@std@@@std@@SAAAPAU?$_Tree_node@U?$pair@$$CBV?$basic_string@DU?$char_traits@D@std@@V?$allocator@D@2@@std@@PAU_SPAWNINFO@EQData@@@std@@PAX@2@PAU32@@Z 030355c0 f i MQ2Globals.obj
 0001:000345d0       ?_Rmost@?$_Tree@V?$_Tmap_traits@V?$basic_string@DU?$char_traits@D@std@@V?$allocator@D@2@@std@@PAU_MACROBLOCK@MQ2Internal@@U?$less@V?$basic_string@DU?$char_traits@D@std@@V?$allocator@D@2@@std@@@2@V?$allocator@U?$pair@$$CBV?$basic_string@DU?$char_traits@D@std@@V?$allocator@D@2@@std@@PAU_MACROBLOCK@MQ2Internal@@@std@@@2@$0A@@std@@@std@@IBEAAPAU?$_Tree_node@U?$pair@$$CBV?$basic_string@DU?$char_traits@D@std@@V?$allocator@D@2@@std@@PAU_MACROBLOCK@MQ2Internal@@@std@@PAX@2@XZ 030355d0 f i MQ2Globals.obj
 0001:000345e0       ?_Rmost@?$_Tree@V?$_Tmap_traits@V?$basic_string@DU?$char_traits@D@std@@V?$allocator@D@2@@std@@PAU_SPAWNINFO@EQData@@U?$less@V?$basic_string@DU?$char_traits@D@std@@V?$allocator@D@2@@std@@@2@V?$allocator@U?$pair@$$CBV?$basic_string@DU?$char_traits@D@std@@V?$allocator@D@2@@std@@PAU_SPAWNINFO@EQData@@@std@@@2@$0A@@std@@@std@@IBEAAPAU?$_Tree_node@U?$pair@$$CBV?$basic_string@DU?$char_traits@D@std@@V?$allocator@D@2@@std@@PAU_SPAWNINFO@EQData@@@std@@PAX@2@XZ 030355e0 f i MQ2Globals.obj
 0001:000345f0       ?_Root@?$_Tree@V?$_Tmap_traits@V?$basic_string@DU?$char_traits@D@std@@V?$allocator@D@2@@std@@PAU_MACROBLOCK@MQ2Internal@@U?$less@V?$basic_string@DU?$char_traits@D@std@@V?$allocator@D@2@@std@@@2@V?$allocator@U?$pair@$$CBV?$basic_string@DU?$char_traits@D@std@@V?$allocator@D@2@@std@@PAU_MACROBLOCK@MQ2Internal@@@std@@@2@$0A@@std@@@std@@IBEAAPAU?$_Tree_node@U?$pair@$$CBV?$basic_string@DU?$char_traits@D@std@@V?$allocator@D@2@@std@@PAU_MACROBLOCK@MQ2Internal@@@std@@PAX@2@XZ 030355f0 f i MQ2Globals.obj
 0001:00034600       ?_Root@?$_Tree@V?$_Tmap_traits@V?$basic_string@DU?$char_traits@D@std@@V?$allocator@D@2@@std@@PAU_SPAWNINFO@EQData@@U?$less@V?$basic_string@DU?$char_traits@D@std@@V?$allocator@D@2@@std@@@2@V?$allocator@U?$pair@$$CBV?$basic_string@DU?$char_traits@D@std@@V?$allocator@D@2@@std@@PAU_SPAWNINFO@EQData@@@std@@@2@$0A@@std@@@std@@IBEAAPAU?$_Tree_node@U?$pair@$$CBV?$basic_string@DU?$char_traits@D@std@@V?$allocator@D@2@@std@@PAU_SPAWNINFO@EQData@@@std@@PAX@2@XZ 03035600 f i MQ2Globals.obj
 0001:00034610       ?_Rrotate@?$_Tree@V?$_Tmap_traits@V?$basic_string@DU?$char_traits@D@std@@V?$allocator@D@2@@std@@PAU_MACROBLOCK@MQ2Internal@@U?$less@V?$basic_string@DU?$char_traits@D@std@@V?$allocator@D@2@@std@@@2@V?$allocator@U?$pair@$$CBV?$basic_string@DU?$char_traits@D@std@@V?$allocator@D@2@@std@@PAU_MACROBLOCK@MQ2Internal@@@std@@@2@$0A@@std@@@std@@IAEXPAU?$_Tree_node@U?$pair@$$CBV?$basic_string@DU?$char_traits@D@std@@V?$allocator@D@2@@std@@PAU_MACROBLOCK@MQ2Internal@@@std@@PAX@2@@Z 03035610 f i MQ2Globals.obj
 0001:00034670       ?_Rrotate@?$_Tree@V?$_Tmap_traits@V?$basic_string@DU?$char_traits@D@std@@V?$allocator@D@2@@std@@PAU_SPAWNINFO@EQData@@U?$less@V?$basic_string@DU?$char_traits@D@std@@V?$allocator@D@2@@std@@@2@V?$allocator@U?$pair@$$CBV?$basic_string@DU?$char_traits@D@std@@V?$allocator@D@2@@std@@PAU_SPAWNINFO@EQData@@@std@@@2@$0A@@std@@@std@@IAEXPAU?$_Tree_node@U?$pair@$$CBV?$basic_string@DU?$char_traits@D@std@@V?$allocator@D@2@@std@@PAU_SPAWNINFO@EQData@@@std@@PAX@2@@Z 03035670 f i MQ2Globals.obj
 0001:000346d0       ?_Tidy@?$_Tree@V?$_Tmap_traits@V?$basic_string@DU?$char_traits@D@std@@V?$allocator@D@2@@std@@PAU_MACROBLOCK@MQ2Internal@@U?$less@V?$basic_string@DU?$char_traits@D@std@@V?$allocator@D@2@@std@@@2@V?$allocator@U?$pair@$$CBV?$basic_string@DU?$char_traits@D@std@@V?$allocator@D@2@@std@@PAU_MACROBLOCK@MQ2Internal@@@std@@@2@$0A@@std@@@std@@IAEXXZ 030356d0 f i MQ2Globals.obj
 0001:000346f0       ?_Tidy@?$_Tree@V?$_Tmap_traits@V?$basic_string@DU?$char_traits@D@std@@V?$allocator@D@2@@std@@PAU_SPAWNINFO@EQData@@U?$less@V?$basic_string@DU?$char_traits@D@std@@V?$allocator@D@2@@std@@@2@V?$allocator@U?$pair@$$CBV?$basic_string@DU?$char_traits@D@std@@V?$allocator@D@2@@std@@PAU_SPAWNINFO@EQData@@@std@@@2@$0A@@std@@@std@@IAEXXZ 030356f0 f i MQ2Globals.obj
 0001:00034710       ?allocate@?$_Wrap_alloc@V?$allocator@U?$_Tree_node@U?$pair@$$CBV?$basic_string@DU?$char_traits@D@std@@V?$allocator@D@2@@std@@PAU_MACROBLOCK@MQ2Internal@@@std@@PAX@std@@@std@@@std@@QAEPAU?$_Tree_node@U?$pair@$$CBV?$basic_string@DU?$char_traits@D@std@@V?$allocator@D@2@@std@@PAU_MACROBLOCK@MQ2Internal@@@std@@PAX@2@I@Z 03035710 f i MQ2Globals.obj
 0001:00034750       ?allocate@?$_Wrap_alloc@V?$allocator@U?$_Tree_node@U?$pair@$$CBV?$basic_string@DU?$char_traits@D@std@@V?$allocator@D@2@@std@@PAU_SPAWNINFO@EQData@@@std@@PAX@std@@@std@@@std@@QAEPAU?$_Tree_node@U?$pair@$$CBV?$basic_string@DU?$char_traits@D@std@@V?$allocator@D@2@@std@@PAU_SPAWNINFO@EQData@@@std@@PAX@2@I@Z 03035750 f i MQ2Globals.obj
 0001:00034790       ?allocate@?$allocator@U?$_Tree_node@U?$pair@$$CBV?$basic_string@DU?$char_traits@D@std@@V?$allocator@D@2@@std@@PAU_MACROBLOCK@MQ2Internal@@@std@@PAX@std@@@std@@QAEPAU?$_Tree_node@U?$pair@$$CBV?$basic_string@DU?$char_traits@D@std@@V?$allocator@D@2@@std@@PAU_MACROBLOCK@MQ2Internal@@@std@@PAX@2@I@Z 03035790 f i MQ2Globals.obj
 0001:000347d0       ?allocate@?$allocator@U?$_Tree_node@U?$pair@$$CBV?$basic_string@DU?$char_traits@D@std@@V?$allocator@D@2@@std@@PAU_SPAWNINFO@EQData@@@std@@PAX@std@@@std@@QAEPAU?$_Tree_node@U?$pair@$$CBV?$basic_string@DU?$char_traits@D@std@@V?$allocator@D@2@@std@@PAU_SPAWNINFO@EQData@@@std@@PAX@2@I@Z 030357d0 f i MQ2Globals.obj
 0001:00034810       ?begin@?$_Tree@V?$_Tmap_traits@V?$basic_string@DU?$char_traits@D@std@@V?$allocator@D@2@@std@@PAU_MACROBLOCK@MQ2Internal@@U?$less@V?$basic_string@DU?$char_traits@D@std@@V?$allocator@D@2@@std@@@2@V?$allocator@U?$pair@$$CBV?$basic_string@DU?$char_traits@D@std@@V?$allocator@D@2@@std@@PAU_MACROBLOCK@MQ2Internal@@@std@@@2@$0A@@std@@@std@@QAE?AV?$_Tree_iterator@V?$_Tree_val@U?$_Tree_simple_types@U?$pair@$$CBV?$basic_string@DU?$char_traits@D@std@@V?$allocator@D@2@@std@@PAU_MACROBLOCK@MQ2Internal@@@std@@@std@@@std@@@2@XZ 03035810 f i MQ2Globals.obj
 0001:00034820       ?begin@?$_Tree@V?$_Tmap_traits@V?$basic_string@DU?$char_traits@D@std@@V?$allocator@D@2@@std@@PAU_SPAWNINFO@EQData@@U?$less@V?$basic_string@DU?$char_traits@D@std@@V?$allocator@D@2@@std@@@2@V?$allocator@U?$pair@$$CBV?$basic_string@DU?$char_traits@D@std@@V?$allocator@D@2@@std@@PAU_SPAWNINFO@EQData@@@std@@@2@$0A@@std@@@std@@QAE?AV?$_Tree_iterator@V?$_Tree_val@U?$_Tree_simple_types@U?$pair@$$CBV?$basic_string@DU?$char_traits@D@std@@V?$allocator@D@2@@std@@PAU_SPAWNINFO@EQData@@@std@@@std@@@std@@@2@XZ 03035820 f i MQ2Globals.obj
 0001:00034830       ?clear@?$_Tree@V?$_Tmap_traits@V?$basic_string@DU?$char_traits@D@std@@V?$allocator@D@2@@std@@PAU_MACROBLOCK@MQ2Internal@@U?$less@V?$basic_string@DU?$char_traits@D@std@@V?$allocator@D@2@@std@@@2@V?$allocator@U?$pair@$$CBV?$basic_string@DU?$char_traits@D@std@@V?$allocator@D@2@@std@@PAU_MACROBLOCK@MQ2Internal@@@std@@@2@$0A@@std@@@std@@QAEXXZ 03035830 f i MQ2Globals.obj
 0001:00034860       ?clear@?$_Tree@V?$_Tmap_traits@V?$basic_string@DU?$char_traits@D@std@@V?$allocator@D@2@@std@@PAU_SPAWNINFO@EQData@@U?$less@V?$basic_string@DU?$char_traits@D@std@@V?$allocator@D@2@@std@@@2@V?$allocator@U?$pair@$$CBV?$basic_string@DU?$char_traits@D@std@@V?$allocator@D@2@@std@@PAU_SPAWNINFO@EQData@@@std@@@2@$0A@@std@@@std@@QAEXXZ 03035860 f i MQ2Globals.obj
 0001:00034890       ?deallocate@?$_Wrap_alloc@V?$allocator@U?$_Tree_node@U?$pair@$$CBV?$basic_string@DU?$char_traits@D@std@@V?$allocator@D@2@@std@@PAU_MACROBLOCK@MQ2Internal@@@std@@PAX@std@@@std@@@std@@QAEXPAU?$_Tree_node@U?$pair@$$CBV?$basic_string@DU?$char_traits@D@std@@V?$allocator@D@2@@std@@PAU_MACROBLOCK@MQ2Internal@@@std@@PAX@2@I@Z 03035890 f i MQ2Globals.obj
 0001:000348b0       ?deallocate@?$_Wrap_alloc@V?$allocator@U?$_Tree_node@U?$pair@$$CBV?$basic_string@DU?$char_traits@D@std@@V?$allocator@D@2@@std@@PAU_SPAWNINFO@EQData@@@std@@PAX@std@@@std@@@std@@QAEXPAU?$_Tree_node@U?$pair@$$CBV?$basic_string@DU?$char_traits@D@std@@V?$allocator@D@2@@std@@PAU_SPAWNINFO@EQData@@@std@@PAX@2@I@Z 030358b0 f i MQ2Globals.obj
 0001:000348d0       ?deallocate@?$allocator@U?$_Tree_node@U?$pair@$$CBV?$basic_string@DU?$char_traits@D@std@@V?$allocator@D@2@@std@@PAU_MACROBLOCK@MQ2Internal@@@std@@PAX@std@@@std@@QAEXPAU?$_Tree_node@U?$pair@$$CBV?$basic_string@DU?$char_traits@D@std@@V?$allocator@D@2@@std@@PAU_MACROBLOCK@MQ2Internal@@@std@@PAX@2@I@Z 030358d0 f i MQ2Globals.obj
 0001:000348f0       ?deallocate@?$allocator@U?$_Tree_node@U?$pair@$$CBV?$basic_string@DU?$char_traits@D@std@@V?$allocator@D@2@@std@@PAU_SPAWNINFO@EQData@@@std@@PAX@std@@@std@@QAEXPAU?$_Tree_node@U?$pair@$$CBV?$basic_string@DU?$char_traits@D@std@@V?$allocator@D@2@@std@@PAU_SPAWNINFO@EQData@@@std@@PAX@2@I@Z 030358f0 f i MQ2Globals.obj
 0001:00034910       ?end@?$_Tree@V?$_Tmap_traits@V?$basic_string@DU?$char_traits@D@std@@V?$allocator@D@2@@std@@PAU_MACROBLOCK@MQ2Internal@@U?$less@V?$basic_string@DU?$char_traits@D@std@@V?$allocator@D@2@@std@@@2@V?$allocator@U?$pair@$$CBV?$basic_string@DU?$char_traits@D@std@@V?$allocator@D@2@@std@@PAU_MACROBLOCK@MQ2Internal@@@std@@@2@$0A@@std@@@std@@QAE?AV?$_Tree_iterator@V?$_Tree_val@U?$_Tree_simple_types@U?$pair@$$CBV?$basic_string@DU?$char_traits@D@std@@V?$allocator@D@2@@std@@PAU_MACROBLOCK@MQ2Internal@@@std@@@std@@@std@@@2@XZ 03035910 f i MQ2Globals.obj
 0001:00034920       ?end@?$_Tree@V?$_Tmap_traits@V?$basic_string@DU?$char_traits@D@std@@V?$allocator@D@2@@std@@PAU_SPAWNINFO@EQData@@U?$less@V?$basic_string@DU?$char_traits@D@std@@V?$allocator@D@2@@std@@@2@V?$allocator@U?$pair@$$CBV?$basic_string@DU?$char_traits@D@std@@V?$allocator@D@2@@std@@PAU_SPAWNINFO@EQData@@@std@@@2@$0A@@std@@@std@@QAE?AV?$_Tree_iterator@V?$_Tree_val@U?$_Tree_simple_types@U?$pair@$$CBV?$basic_string@DU?$char_traits@D@std@@V?$allocator@D@2@@std@@PAU_SPAWNINFO@EQData@@@std@@@std@@@std@@@2@XZ 03035920 f i MQ2Globals.obj
 0001:00034930       ?erase@?$_Tree@V?$_Tmap_traits@V?$basic_string@DU?$char_traits@D@std@@V?$allocator@D@2@@std@@PAU_MACROBLOCK@MQ2Internal@@U?$less@V?$basic_string@DU?$char_traits@D@std@@V?$allocator@D@2@@std@@@2@V?$allocator@U?$pair@$$CBV?$basic_string@DU?$char_traits@D@std@@V?$allocator@D@2@@std@@PAU_MACROBLOCK@MQ2Internal@@@std@@@2@$0A@@std@@@std@@QAE?AV?$_Tree_iterator@V?$_Tree_val@U?$_Tree_simple_types@U?$pair@$$CBV?$basic_string@DU?$char_traits@D@std@@V?$allocator@D@2@@std@@PAU_MACROBLOCK@MQ2Internal@@@std@@@std@@@std@@@2@V?$_Tree_const_iterator@V?$_Tree_val@U?$_Tree_simple_types@U?$pair@$$CBV?$basic_string@DU?$char_traits@D@std@@V?$allocator@D@2@@std@@PAU_MACROBLOCK@MQ2Internal@@@std@@@std@@@std@@@2@0@Z 03035930 f i MQ2Globals.obj
 0001:000349f0       ?erase@?$_Tree@V?$_Tmap_traits@V?$basic_string@DU?$char_traits@D@std@@V?$allocator@D@2@@std@@PAU_MACROBLOCK@MQ2Internal@@U?$less@V?$basic_string@DU?$char_traits@D@std@@V?$allocator@D@2@@std@@@2@V?$allocator@U?$pair@$$CBV?$basic_string@DU?$char_traits@D@std@@V?$allocator@D@2@@std@@PAU_MACROBLOCK@MQ2Internal@@@std@@@2@$0A@@std@@@std@@QAE?AV?$_Tree_iterator@V?$_Tree_val@U?$_Tree_simple_types@U?$pair@$$CBV?$basic_string@DU?$char_traits@D@std@@V?$allocator@D@2@@std@@PAU_MACROBLOCK@MQ2Internal@@@std@@@std@@@std@@@2@V?$_Tree_const_iterator@V?$_Tree_val@U?$_Tree_simple_types@U?$pair@$$CBV?$basic_string@DU?$char_traits@D@std@@V?$allocator@D@2@@std@@PAU_MACROBLOCK@MQ2Internal@@@std@@@std@@@std@@@2@@Z 030359f0 f i MQ2Globals.obj
 0001:00034ca0       ?erase@?$_Tree@V?$_Tmap_traits@V?$basic_string@DU?$char_traits@D@std@@V?$allocator@D@2@@std@@PAU_SPAWNINFO@EQData@@U?$less@V?$basic_string@DU?$char_traits@D@std@@V?$allocator@D@2@@std@@@2@V?$allocator@U?$pair@$$CBV?$basic_string@DU?$char_traits@D@std@@V?$allocator@D@2@@std@@PAU_SPAWNINFO@EQData@@@std@@@2@$0A@@std@@@std@@QAE?AV?$_Tree_iterator@V?$_Tree_val@U?$_Tree_simple_types@U?$pair@$$CBV?$basic_string@DU?$char_traits@D@std@@V?$allocator@D@2@@std@@PAU_SPAWNINFO@EQData@@@std@@@std@@@std@@@2@V?$_Tree_const_iterator@V?$_Tree_val@U?$_Tree_simple_types@U?$pair@$$CBV?$basic_string@DU?$char_traits@D@std@@V?$allocator@D@2@@std@@PAU_SPAWNINFO@EQData@@@std@@@std@@@std@@@2@0@Z 03035ca0 f i MQ2Globals.obj
 0001:00034d60       ?erase@?$_Tree@V?$_Tmap_traits@V?$basic_string@DU?$char_traits@D@std@@V?$allocator@D@2@@std@@PAU_SPAWNINFO@EQData@@U?$less@V?$basic_string@DU?$char_traits@D@std@@V?$allocator@D@2@@std@@@2@V?$allocator@U?$pair@$$CBV?$basic_string@DU?$char_traits@D@std@@V?$allocator@D@2@@std@@PAU_SPAWNINFO@EQData@@@std@@@2@$0A@@std@@@std@@QAE?AV?$_Tree_iterator@V?$_Tree_val@U?$_Tree_simple_types@U?$pair@$$CBV?$basic_string@DU?$char_traits@D@std@@V?$allocator@D@2@@std@@PAU_SPAWNINFO@EQData@@@std@@@std@@@std@@@2@V?$_Tree_const_iterator@V?$_Tree_val@U?$_Tree_simple_types@U?$pair@$$CBV?$basic_string@DU?$char_traits@D@std@@V?$allocator@D@2@@std@@PAU_SPAWNINFO@EQData@@@std@@@std@@@std@@@2@@Z 03035d60 f i MQ2Globals.obj
 0001:00035010       _InitializeMQ2KeyBinds     03036010 f   MQ2KeyBinds.obj
 0001:00035070       _ShutdownMQ2KeyBinds       03036070 f   MQ2KeyBinds.obj
 0001:000350e0       _PressMQ2KeyBind           030360e0 f   MQ2KeyBinds.obj
 0001:00035120       _SetMQ2KeyBind             03036120 f   MQ2KeyBinds.obj
 0001:000351f0       _AddMQ2KeyBind             030361f0 f   MQ2KeyBinds.obj
 0001:00035370       _RemoveMQ2KeyBind          03036370 f   MQ2KeyBinds.obj
 0001:00035470       _GetMQ2KeyBind             03036470 f   MQ2KeyBinds.obj
 0001:000354b0       _DumpBinds                 030364b0 f   MQ2KeyBinds.obj
 0001:00035670       _MQ2HandleKeyDown          03036670 f   MQ2KeyBinds.obj
 0001:00035720       _MQ2HandleKeyUp            03036720 f   MQ2KeyBinds.obj
 0001:000357e0       _MQ2KeyBindCommand         030367e0 f   MQ2KeyBinds.obj
 0001:00035da0       ?SetEQKeyBindByNumber@@YAHKHAAVKeyCombo@EQClasses@@@Z 03036da0 f   MQ2KeyBinds.obj
 0001:00035e00       ?ClearCommandStateArray_Trampoline@KeypressHandlerHook@@QAEXXZ 03036e00 f   MQ2KeyBinds.obj
 0001:00035e20       ?HandleKeyDown_Trampoline@KeypressHandlerHook@@QAE_NABVKeyCombo@EQClasses@@@Z 03036e20 f   MQ2KeyBinds.obj
 0001:00035e40       ?HandleKeyUp_Trampoline@KeypressHandlerHook@@QAE_NABVKeyCombo@EQClasses@@@Z 03036e40 f   MQ2KeyBinds.obj
 0001:00035e60       ?DoRangedBind@@YAXPADH@Z   03036e60 f   MQ2KeyBinds.obj
 0001:00035ea0       ??$?0ABV?$basic_string@DU?$char_traits@D@std@@V?$allocator@D@2@@std@@$$$V@?$pair@$$CBV?$basic_string@DU?$char_traits@D@std@@V?$allocator@D@2@@std@@K@std@@QAE@Upiecewise_construct_t@1@V?$tuple@ABV?$basic_string@DU?$char_traits@D@std@@V?$allocator@D@2@@std@@@1@V?$tuple@$$$V@1@@Z 03036ea0 f i MQ2KeyBinds.obj
 0001:00035ee0       ??$?0ABV?$basic_string@DU?$char_traits@D@std@@V?$allocator@D@2@@std@@@?$_Tuple_val@ABV?$basic_string@DU?$char_traits@D@std@@V?$allocator@D@2@@std@@@std@@QAE@ABV?$basic_string@DU?$char_traits@D@std@@V?$allocator@D@2@@1@@Z 03036ee0 f i MQ2KeyBinds.obj
 0001:00035ef0       ??$?0ABV?$basic_string@DU?$char_traits@D@std@@V?$allocator@D@2@@std@@PAPAX@?$tuple@ABV?$basic_string@DU?$char_traits@D@std@@V?$allocator@D@2@@std@@@std@@QAE@$$QAV01@@Z 03036ef0 f i MQ2KeyBinds.obj
 0001:00035f00       ??$?0V?$tuple@ABV?$basic_string@DU?$char_traits@D@std@@V?$allocator@D@2@@std@@@std@@V?$tuple@$$$V@1@$0A@$S@?$pair@$$CBV?$basic_string@DU?$char_traits@D@std@@V?$allocator@D@2@@std@@K@std@@QAE@AAV?$tuple@ABV?$basic_string@DU?$char_traits@D@std@@V?$allocator@D@2@@std@@@1@AAV?$tuple@$$$V@1@U?$_Arg_idx@$0A@@1@U?$_Arg_idx@$S@1@@Z 03036f00 f i MQ2KeyBinds.obj
 0001:00035f40       ??$_Buynode@ABUpiecewise_construct_t@std@@V?$tuple@ABV?$basic_string@DU?$char_traits@D@std@@V?$allocator@D@2@@std@@@2@V?$tuple@$$$V@2@@?$_Tree_buy@U?$pair@$$CBV?$basic_string@DU?$char_traits@D@std@@V?$allocator@D@2@@std@@K@std@@V?$allocator@U?$pair@$$CBV?$basic_string@DU?$char_traits@D@std@@V?$allocator@D@2@@std@@K@std@@@2@@std@@QAEPAU?$_Tree_node@U?$pair@$$CBV?$basic_string@DU?$char_traits@D@std@@V?$allocator@D@2@@std@@K@std@@PAX@1@ABUpiecewise_construct_t@1@$$QAV?$tuple@ABV?$basic_string@DU?$char_traits@D@std@@V?$allocator@D@2@@std@@@1@$$QAV?$tuple@$$$V@1@@Z 03036f40 f i MQ2KeyBinds.obj
 0001:00035fc0       ??$_Transform@PADV?$_String_iterator@V?$_String_val@U?$_Simple_types@D@std@@@std@@@std@@P6AHH@Z@std@@YA?AV?$_String_iterator@V?$_String_val@U?$_Simple_types@D@std@@@std@@@0@PAD0V10@P6AHH@Z@Z 03036fc0 f i MQ2KeyBinds.obj
 0001:00036020       ??$_Unchecked@V?$_String_val@U?$_Simple_types@D@std@@@std@@@std@@YAPADV?$_String_iterator@V?$_String_val@U?$_Simple_types@D@std@@@std@@@0@@Z 03037020 f i MQ2KeyBinds.obj
 0001:00036030       ??$construct@U?$pair@$$CBV?$basic_string@DU?$char_traits@D@std@@V?$allocator@D@2@@std@@K@std@@ABUpiecewise_construct_t@2@V?$tuple@ABV?$basic_string@DU?$char_traits@D@std@@V?$allocator@D@2@@std@@@2@V?$tuple@$$$V@2@@?$_Wrap_alloc@V?$allocator@U?$_Tree_node@U?$pair@$$CBV?$basic_string@DU?$char_traits@D@std@@V?$allocator@D@2@@std@@K@std@@PAX@std@@@std@@@std@@QAEXPAU?$pair@$$CBV?$basic_string@DU?$char_traits@D@std@@V?$allocator@D@2@@std@@K@1@ABUpiecewise_construct_t@1@$$QAV?$tuple@ABV?$basic_string@DU?$char_traits@D@std@@V?$allocator@D@2@@std@@@1@$$QAV?$tuple@$$$V@1@@Z 03037030 f i MQ2KeyBinds.obj
 0001:00036070       ??$construct@U?$pair@$$CBV?$basic_string@DU?$char_traits@D@std@@V?$allocator@D@2@@std@@K@std@@ABUpiecewise_construct_t@2@V?$tuple@ABV?$basic_string@DU?$char_traits@D@std@@V?$allocator@D@2@@std@@@2@V?$tuple@$$$V@2@@?$allocator@U?$_Tree_node@U?$pair@$$CBV?$basic_string@DU?$char_traits@D@std@@V?$allocator@D@2@@std@@K@std@@PAX@std@@@std@@QAEXPAU?$pair@$$CBV?$basic_string@DU?$char_traits@D@std@@V?$allocator@D@2@@std@@K@1@ABUpiecewise_construct_t@1@$$QAV?$tuple@ABV?$basic_string@DU?$char_traits@D@std@@V?$allocator@D@2@@std@@@1@$$QAV?$tuple@$$$V@1@@Z 03037070 f i MQ2KeyBinds.obj
 0001:000360b0       ??$construct@U?$pair@$$CBV?$basic_string@DU?$char_traits@D@std@@V?$allocator@D@2@@std@@K@std@@ABUpiecewise_construct_t@2@V?$tuple@ABV?$basic_string@DU?$char_traits@D@std@@V?$allocator@D@2@@std@@@2@V?$tuple@$$$V@2@@?$allocator_traits@V?$allocator@U?$_Tree_node@U?$pair@$$CBV?$basic_string@DU?$char_traits@D@std@@V?$allocator@D@2@@std@@K@std@@PAX@std@@@std@@@std@@SAXAAV?$allocator@U?$_Tree_node@U?$pair@$$CBV?$basic_string@DU?$char_traits@D@std@@V?$allocator@D@2@@std@@K@std@@PAX@std@@@1@PAU?$pair@$$CBV?$basic_string@DU?$char_traits@D@std@@V?$allocator@D@2@@std@@K@1@ABUpiecewise_construct_t@1@$$QAV?$tuple@ABV?$basic_string@DU?$char_traits@D@std@@V?$allocator@D@2@@std@@@1@$$QAV?$tuple@$$$V@1@@Z 030370b0 f i MQ2KeyBinds.obj
 0001:000360f0       ??$emplace_hint@ABUpiecewise_construct_t@std@@V?$tuple@ABV?$basic_string@DU?$char_traits@D@std@@V?$allocator@D@2@@std@@@2@V?$tuple@$$$V@2@@?$_Tree@V?$_Tmap_traits@V?$basic_string@DU?$char_traits@D@std@@V?$allocator@D@2@@std@@KU?$less@V?$basic_string@DU?$char_traits@D@std@@V?$allocator@D@2@@std@@@2@V?$allocator@U?$pair@$$CBV?$basic_string@DU?$char_traits@D@std@@V?$allocator@D@2@@std@@K@std@@@2@$0A@@std@@@std@@QAE?AV?$_Tree_iterator@V?$_Tree_val@U?$_Tree_simple_types@U?$pair@$$CBV?$basic_string@DU?$char_traits@D@std@@V?$allocator@D@2@@std@@K@std@@@std@@@std@@@1@V?$_Tree_const_iterator@V?$_Tree_val@U?$_Tree_simple_types@U?$pair@$$CBV?$basic_string@DU?$char_traits@D@std@@V?$allocator@D@2@@std@@K@std@@@std@@@std@@@1@ABUpiecewise_construct_t@1@$$QAV?$tuple@ABV?$basic_string@DU?$char_traits@D@std@@V?$allocator@D@2@@std@@@1@$$QAV?$tuple@$$$V@1@@Z 030370f0 f i MQ2KeyBinds.obj
 0001:00036120       ??$forward@ABV?$basic_string@DU?$char_traits@D@std@@V?$allocator@D@2@@std@@@std@@YAABV?$basic_string@DU?$char_traits@D@std@@V?$allocator@D@2@@0@ABV10@@Z 03037120 f i MQ2KeyBinds.obj
 0001:00036130       ??$forward@V?$tuple@ABV?$basic_string@DU?$char_traits@D@std@@V?$allocator@D@2@@std@@@std@@@std@@YA$$QAV?$tuple@ABV?$basic_string@DU?$char_traits@D@std@@V?$allocator@D@2@@std@@@0@AAV10@@Z 03037130 f i MQ2KeyBinds.obj
 0001:00036140       ??$forward_as_tuple@ABV?$basic_string@DU?$char_traits@D@std@@V?$allocator@D@2@@std@@@std@@YA?AV?$tuple@ABV?$basic_string@DU?$char_traits@D@std@@V?$allocator@D@2@@std@@@0@ABV?$basic_string@DU?$char_traits@D@std@@V?$allocator@D@2@@0@@Z 03037140 f i MQ2KeyBinds.obj
 0001:00036150       ??$get@$0A@ABV?$basic_string@DU?$char_traits@D@std@@V?$allocator@D@2@@std@@@std@@YAABV?$basic_string@DU?$char_traits@D@std@@V?$allocator@D@2@@0@$$QAV?$tuple@ABV?$basic_string@DU?$char_traits@D@std@@V?$allocator@D@2@@std@@@0@@Z 03037150 f i MQ2KeyBinds.obj
 0001:00036160       ??$move@AAV?$tuple@ABV?$basic_string@DU?$char_traits@D@std@@V?$allocator@D@2@@std@@@std@@@std@@YA$$QAV?$tuple@ABV?$basic_string@DU?$char_traits@D@std@@V?$allocator@D@2@@std@@@0@AAV10@@Z 03037160 f i MQ2KeyBinds.obj
 0001:00036170       ??$transform@V?$_String_iterator@V?$_String_val@U?$_Simple_types@D@std@@@std@@@std@@V12@P6AHH@Z@std@@YA?AV?$_String_iterator@V?$_String_val@U?$_Simple_types@D@std@@@std@@@0@V10@00P6AHH@Z@Z 03037170 f i MQ2KeyBinds.obj
 0001:000361a0       ??0?$CIndex@PAUMQ2KeyBind@@@MQ2Internal@@QAE@K@Z 030371a0 f i MQ2KeyBinds.obj
 0001:000361d0       ??0?$_String_const_iterator@V?$_String_val@U?$_Simple_types@D@std@@@std@@@std@@QAE@PBDPBU_Container_base0@1@@Z 030371d0 f i MQ2KeyBinds.obj
 0001:000361e0       ??0?$_String_iterator@V?$_String_val@U?$_Simple_types@D@std@@@std@@@std@@QAE@PADPBU_Container_base0@1@@Z 030371e0 f i MQ2KeyBinds.obj
 0001:000361f0       ??0?$_Wrap_alloc@V?$allocator@D@std@@@std@@QAE@ABV?$allocator@D@1@@Z 030371f0 f i MQ2KeyBinds.obj
 0001:00036200       ??0?$allocator@D@std@@QAE@ABV01@@Z 03037200 f i MQ2KeyBinds.obj
 0001:00036210       ??0?$basic_string@DU?$char_traits@D@std@@V?$allocator@D@2@@std@@QAE@ABV01@@Z 03037210 f i MQ2KeyBinds.obj
 0001:00036240       ??0?$tuple@ABV?$basic_string@DU?$char_traits@D@std@@V?$allocator@D@2@@std@@@std@@QAE@ABV?$basic_string@DU?$char_traits@D@std@@V?$allocator@D@2@@1@@Z 03037240 f i MQ2KeyBinds.obj
 0001:00036250       ??0MQ2KeyBind@@QAE@XZ      03037250 f i MQ2KeyBinds.obj
 0001:00036270       ??1?$CIndex@PAUMQ2KeyBind@@@MQ2Internal@@QAE@XZ 03037270 f i MQ2KeyBinds.obj
 0001:000362b0       ??8?$_String_const_iterator@V?$_String_val@U?$_Simple_types@D@std@@@std@@@std@@QBE_NABV01@@Z 030372b0 f i MQ2KeyBinds.obj
 0001:000362d0       ??9?$_String_const_iterator@V?$_String_val@U?$_Simple_types@D@std@@@std@@@std@@QBE_NABV01@@Z 030372d0 f i MQ2KeyBinds.obj
 0001:000362f0       ??A?$CIndex@PAUMQ2KeyBind@@@MQ2Internal@@QAEAAPAUMQ2KeyBind@@K@Z 030372f0 f i MQ2KeyBinds.obj
 0001:00036300       ??A?$map@V?$basic_string@DU?$char_traits@D@std@@V?$allocator@D@2@@std@@KU?$less@V?$basic_string@DU?$char_traits@D@std@@V?$allocator@D@2@@std@@@2@V?$allocator@U?$pair@$$CBV?$basic_string@DU?$char_traits@D@std@@V?$allocator@D@2@@std@@K@std@@@2@@std@@QAEAAKABV?$basic_string@DU?$char_traits@D@std@@V?$allocator@D@2@@1@@Z 03037300 f i MQ2KeyBinds.obj
 0001:00036380       ??D?$_String_const_iterator@V?$_String_val@U?$_Simple_types@D@std@@@std@@@std@@QBEABDXZ 03037380 f i MQ2KeyBinds.obj
 0001:00036390       ??D?$_String_iterator@V?$_String_val@U?$_Simple_types@D@std@@@std@@@std@@QBEAADXZ 03037390 f i MQ2KeyBinds.obj
 0001:000363a0       ??E?$_String_const_iterator@V?$_String_val@U?$_Simple_types@D@std@@@std@@@std@@QAEAAV01@XZ 030373a0 f i MQ2KeyBinds.obj
 0001:000363b0       ??E?$_String_iterator@V?$_String_val@U?$_Simple_types@D@std@@@std@@@std@@QAEAAV01@XZ 030373b0 f i MQ2KeyBinds.obj
 0001:000363c0       ?Cleanup@?$CIndex@PAUMQ2KeyBind@@@MQ2Internal@@QAEXXZ 030373c0 f i MQ2KeyBinds.obj
 0001:00036400       ?ClearCommandStateArray_Hook@KeypressHandlerHook@@QAEXXZ 03037400 f i MQ2KeyBinds.obj
 0001:00036450       ?GetUnused@?$CIndex@PAUMQ2KeyBind@@@MQ2Internal@@QAEKXZ 03037450 f i MQ2KeyBinds.obj
 0001:000364a0       ?HandleKeyDown_Hook@KeypressHandlerHook@@QAE_NABVKeyCombo@EQClasses@@@Z 030374a0 f i MQ2KeyBinds.obj
 0001:000364e0       ?HandleKeyUp_Hook@KeypressHandlerHook@@QAE_NABVKeyCombo@EQClasses@@@Z 030374e0 f i MQ2KeyBinds.obj
 0001:00036530       ?KeyBindByName@@YAPAUMQ2KeyBind@@PAD@Z 03037530 f i MQ2KeyBinds.obj
 0001:000365f0       ?Resize@?$CIndex@PAUMQ2KeyBind@@@MQ2Internal@@QAEXK@Z 030375f0 f i MQ2KeyBinds.obj
 0001:000366a0       ?SetKeyBindNameMap@@YAXPADK@Z 030376a0 f i MQ2KeyBinds.obj
 0001:00036750       ?_Compat@?$_String_const_iterator@V?$_String_val@U?$_Simple_types@D@std@@@std@@@std@@QBEXABV12@@Z 03037750 f i MQ2KeyBinds.obj
 0001:00036760       ?_Get_rest@?$tuple@ABV?$basic_string@DU?$char_traits@D@std@@V?$allocator@D@2@@std@@@std@@QAEAAV?$tuple@$$$V@2@XZ 03037760 f i MQ2KeyBinds.obj
 0001:00036770       ?_Unchecked@?$_String_iterator@V?$_String_val@U?$_Simple_types@D@std@@@std@@@std@@QBEPADXZ 03037770 f i MQ2KeyBinds.obj
 0001:00036780       ?begin@?$basic_string@DU?$char_traits@D@std@@V?$allocator@D@2@@std@@QAE?AV?$_String_iterator@V?$_String_val@U?$_Simple_types@D@std@@@std@@@2@XZ 03037780 f i MQ2KeyBinds.obj
 0001:000367a0       ?end@?$basic_string@DU?$char_traits@D@std@@V?$allocator@D@2@@std@@QAE?AV?$_String_iterator@V?$_String_val@U?$_Simple_types@D@std@@@std@@@2@XZ 030377a0 f i MQ2KeyBinds.obj
 0001:000367d0       ?select_on_container_copy_construction@?$_Wrap_alloc@V?$allocator@D@std@@@std@@QBE?AU12@XZ 030377d0 f i MQ2KeyBinds.obj
 0001:000367e0       ?select_on_container_copy_construction@?$allocator@D@std@@QBE?AV12@XZ 030377e0 f i MQ2KeyBinds.obj
 0001:000367f0       ?select_on_container_copy_construction@?$allocator_traits@V?$allocator@D@std@@@std@@SA?AV?$allocator@D@2@ABV32@@Z 030377f0 f i MQ2KeyBinds.obj
 0001:00036860       _DumpStack                 03037860 f   MQ2MacroCommands.obj
 0001:00036930       _EndMacro                  03037930 f   MQ2MacroCommands.obj
 0001:00036cb0       _FailIf                    03037cb0 f   MQ2MacroCommands.obj
 0001:00036e30       _AddMacroLine              03037e30 f   MQ2MacroCommands.obj
 0001:000375a0       _GetFuncParam              030385a0 f   MQ2MacroCommands.obj
 0001:00037760       _Include                   03038760 f   MQ2MacroCommands.obj
 0001:00037920       _NewIf                     03038920 f   MQ2MacroCommands.obj
 0001:00037a50       _Call                      03038a50 f   MQ2MacroCommands.obj
 0001:00037dc0       _Cleanup                   03038dc0 f   MQ2MacroCommands.obj
 0001:00037ec0       _Delay                     03038ec0 f   MQ2MacroCommands.obj
 0001:00038000       _DoEvents                  03039000 f   MQ2MacroCommands.obj
 0001:00038340       _For                       03039340 f   MQ2MacroCommands.obj
 0001:00038580       _Goto                      03039580 f   MQ2MacroCommands.obj
 0001:00038660       _Macro                     03039660 f   MQ2MacroCommands.obj
 0001:00038a50       _Next                      03039a50 f   MQ2MacroCommands.obj
 0001:00038de0       _Return                    03039de0 f   MQ2MacroCommands.obj
 0001:00038ea0       ?CleanMacroLine@@YAXPAD@Z  03039ea0 f   MQ2MacroCommands.obj
 0001:00038f30       ??$?0$$QAV?$basic_string@DU?$char_traits@D@std@@V?$allocator@D@2@@std@@$$$V@?$pair@$$CBV?$basic_string@DU?$char_traits@D@std@@V?$allocator@D@2@@std@@PAU_MACROBLOCK@MQ2Internal@@@std@@QAE@Upiecewise_construct_t@1@V?$tuple@$$QAV?$basic_string@DU?$char_traits@D@std@@V?$allocator@D@2@@std@@@1@V?$tuple@$$$V@1@@Z 03039f30 f i MQ2MacroCommands.obj
 0001:00038fa0       ??$?0AAV?$_Tree_iterator@V?$_Tree_val@U?$_Tree_simple_types@U?$pair@$$CBIPAU_BLECHEVENT@@@std@@@std@@@std@@@std@@_NX@?$pair@V?$_Tree_iterator@V?$_Tree_val@U?$_Tree_simple_types@U?$pair@$$CBIPAU_BLECHEVENT@@@std@@@std@@@std@@@std@@_N@std@@QAE@AAV?$_Tree_iterator@V?$_Tree_val@U?$_Tree_simple_types@U?$pair@$$CBIPAU_BLECHEVENT@@@std@@@std@@@std@@@1@$$QA_N@Z 03039fa0 f i MQ2MacroCommands.obj
 0001:00038fc0       ??$?0AAV?$_Tree_iterator@V?$_Tree_val@U?$_Tree_simple_types@U?$pair@$$CBV?$basic_string@DU?$char_traits@D@std@@V?$allocator@D@2@@std@@PAU_MACROBLOCK@MQ2Internal@@@std@@@std@@@std@@@std@@_NX@?$pair@V?$_Tree_iterator@V?$_Tree_val@U?$_Tree_simple_types@U?$pair@$$CBV?$basic_string@DU?$char_traits@D@std@@V?$allocator@D@2@@std@@PAU_MACROBLOCK@MQ2Internal@@@std@@@std@@@std@@@std@@_N@std@@QAE@AAV?$_Tree_iterator@V?$_Tree_val@U?$_Tree_simple_types@U?$pair@$$CBV?$basic_string@DU?$char_traits@D@std@@V?$allocator@D@2@@std@@PAU_MACROBLOCK@MQ2Internal@@@std@@@std@@@std@@@1@$$QA_N@Z 03039fc0 f i MQ2MacroCommands.obj
 0001:00038fe0       ??$?0ABI$$$V@?$pair@$$CBIPAU_BLECHEVENT@@@std@@QAE@Upiecewise_construct_t@1@V?$tuple@ABI@1@V?$tuple@$$$V@1@@Z 03039fe0 f i MQ2MacroCommands.obj
 0001:00039000       ??$?0ABI@?$_Tuple_val@ABI@std@@QAE@ABI@Z 0303a000 f i MQ2MacroCommands.obj
 0001:00039010       ??$?0ABIPAPAX@?$tuple@ABI@std@@QAE@$$QAV01@@Z 0303a010 f i MQ2MacroCommands.obj
 0001:00039020       ??$?0V?$_Tree_iterator@V?$_Tree_val@U?$_Tree_simple_types@U?$pair@$$CBIPAU_BLECHEVENT@@@std@@@std@@@std@@@std@@_NX@?$pair@V?$_Tree_iterator@V?$_Tree_val@U?$_Tree_simple_types@U?$pair@$$CBIPAU_BLECHEVENT@@@std@@@std@@@std@@@std@@_N@std@@QAE@$$QAV?$_Tree_iterator@V?$_Tree_val@U?$_Tree_simple_types@U?$pair@$$CBIPAU_BLECHEVENT@@@std@@@std@@@std@@@1@$$QA_N@Z 0303a020 f i MQ2MacroCommands.obj
 0001:00039040       ??$?0V?$_Tree_iterator@V?$_Tree_val@U?$_Tree_simple_types@U?$pair@$$CBV?$basic_string@DU?$char_traits@D@std@@V?$allocator@D@2@@std@@PAU_MACROBLOCK@MQ2Internal@@@std@@@std@@@std@@@std@@_NX@?$pair@V?$_Tree_iterator@V?$_Tree_val@U?$_Tree_simple_types@U?$pair@$$CBV?$basic_string@DU?$char_traits@D@std@@V?$allocator@D@2@@std@@PAU_MACROBLOCK@MQ2Internal@@@std@@@std@@@std@@@std@@_N@std@@QAE@$$QAV?$_Tree_iterator@V?$_Tree_val@U?$_Tree_simple_types@U?$pair@$$CBV?$basic_string@DU?$char_traits@D@std@@V?$allocator@D@2@@std@@PAU_MACROBLOCK@MQ2Internal@@@std@@@std@@@std@@@1@$$QA_N@Z 0303a040 f i MQ2MacroCommands.obj
 0001:00039060       ??$?0V?$tuple@$$QAV?$basic_string@DU?$char_traits@D@std@@V?$allocator@D@2@@std@@@std@@V?$tuple@$$$V@1@$0A@$S@?$pair@$$CBV?$basic_string@DU?$char_traits@D@std@@V?$allocator@D@2@@std@@PAU_MACROBLOCK@MQ2Internal@@@std@@QAE@AAV?$tuple@$$QAV?$basic_string@DU?$char_traits@D@std@@V?$allocator@D@2@@std@@@1@AAV?$tuple@$$$V@1@U?$_Arg_idx@$0A@@1@U?$_Arg_idx@$S@1@@Z 0303a060 f i MQ2MacroCommands.obj
 0001:000390d0       ??$?0V?$tuple@ABI@std@@V?$tuple@$$$V@1@$0A@$S@?$pair@$$CBIPAU_BLECHEVENT@@@std@@QAE@AAV?$tuple@ABI@1@AAV?$tuple@$$$V@1@U?$_Arg_idx@$0A@@1@U?$_Arg_idx@$S@1@@Z 0303a0d0 f i MQ2MacroCommands.obj
 0001:000390f0       ??$_Buynode@ABUpiecewise_construct_t@std@@V?$tuple@$$QAV?$basic_string@DU?$char_traits@D@std@@V?$allocator@D@2@@std@@@2@V?$tuple@$$$V@2@@?$_Tree_buy@U?$pair@$$CBV?$basic_string@DU?$char_traits@D@std@@V?$allocator@D@2@@std@@PAU_MACROBLOCK@MQ2Internal@@@std@@V?$allocator@U?$pair@$$CBV?$basic_string@DU?$char_traits@D@std@@V?$allocator@D@2@@std@@PAU_MACROBLOCK@MQ2Internal@@@std@@@2@@std@@QAEPAU?$_Tree_node@U?$pair@$$CBV?$basic_string@DU?$char_traits@D@std@@V?$allocator@D@2@@std@@PAU_MACROBLOCK@MQ2Internal@@@std@@PAX@1@ABUpiecewise_construct_t@1@$$QAV?$tuple@$$QAV?$basic_string@DU?$char_traits@D@std@@V?$allocator@D@2@@std@@@1@$$QAV?$tuple@$$$V@1@@Z 0303a0f0 f i MQ2MacroCommands.obj
 0001:00039170       ??$_Buynode@ABUpiecewise_construct_t@std@@V?$tuple@ABI@2@V?$tuple@$$$V@2@@?$_Tree_buy@U?$pair@$$CBIPAU_BLECHEVENT@@@std@@V?$allocator@U?$pair@$$CBIPAU_BLECHEVENT@@@std@@@2@@std@@QAEPAU?$_Tree_node@U?$pair@$$CBIPAU_BLECHEVENT@@@std@@PAX@1@ABUpiecewise_construct_t@1@$$QAV?$tuple@ABI@1@$$QAV?$tuple@$$$V@1@@Z 0303a170 f i MQ2MacroCommands.obj
 0001:00039200       ??$_Buynode_if_nil@AAU?$pair@$$CBIPAU_BLECHEVENT@@@std@@@?$_Tree@V?$_Tmap_traits@IPAU_BLECHEVENT@@U?$less@I@std@@V?$allocator@U?$pair@$$CBIPAU_BLECHEVENT@@@std@@@3@$0A@@std@@@std@@IAEPAU?$_Tree_node@U?$pair@$$CBIPAU_BLECHEVENT@@@std@@PAX@1@PAU21@AAU?$pair@$$CBIPAU_BLECHEVENT@@@1@@Z 0303a200 f i MQ2MacroCommands.obj
 0001:00039210       ??$_Buynode_if_nil@AAU?$pair@$$CBV?$basic_string@DU?$char_traits@D@std@@V?$allocator@D@2@@std@@PAU_MACROBLOCK@MQ2Internal@@@std@@@?$_Tree@V?$_Tmap_traits@V?$basic_string@DU?$char_traits@D@std@@V?$allocator@D@2@@std@@PAU_MACROBLOCK@MQ2Internal@@U?$less@V?$basic_string@DU?$char_traits@D@std@@V?$allocator@D@2@@std@@@2@V?$allocator@U?$pair@$$CBV?$basic_string@DU?$char_traits@D@std@@V?$allocator@D@2@@std@@PAU_MACROBLOCK@MQ2Internal@@@std@@@2@$0A@@std@@@std@@IAEPAU?$_Tree_node@U?$pair@$$CBV?$basic_string@DU?$char_traits@D@std@@V?$allocator@D@2@@std@@PAU_MACROBLOCK@MQ2Internal@@@std@@PAX@1@PAU21@AAU?$pair@$$CBV?$basic_string@DU?$char_traits@D@std@@V?$allocator@D@2@@std@@PAU_MACROBLOCK@MQ2Internal@@@1@@Z 0303a210 f i MQ2MacroCommands.obj
 0001:00039220       ??$_Insert_at@AAU?$pair@$$CBIPAU_BLECHEVENT@@@std@@PAU?$_Tree_node@U?$pair@$$CBIPAU_BLECHEVENT@@@std@@PAX@2@@?$_Tree@V?$_Tmap_traits@IPAU_BLECHEVENT@@U?$less@I@std@@V?$allocator@U?$pair@$$CBIPAU_BLECHEVENT@@@std@@@3@$0A@@std@@@std@@IAE?AV?$_Tree_iterator@V?$_Tree_val@U?$_Tree_simple_types@U?$pair@$$CBIPAU_BLECHEVENT@@@std@@@std@@@std@@@1@_NPAU?$_Tree_node@U?$pair@$$CBIPAU_BLECHEVENT@@@std@@PAX@1@AAU?$pair@$$CBIPAU_BLECHEVENT@@@1@1@Z 0303a220 f i MQ2MacroCommands.obj
 0001:00039430       ??$_Insert_at@AAU?$pair@$$CBV?$basic_string@DU?$char_traits@D@std@@V?$allocator@D@2@@std@@PAU_MACROBLOCK@MQ2Internal@@@std@@PAU?$_Tree_node@U?$pair@$$CBV?$basic_string@DU?$char_traits@D@std@@V?$allocator@D@2@@std@@PAU_MACROBLOCK@MQ2Internal@@@std@@PAX@2@@?$_Tree@V?$_Tmap_traits@V?$basic_string@DU?$char_traits@D@std@@V?$allocator@D@2@@std@@PAU_MACROBLOCK@MQ2Internal@@U?$less@V?$basic_string@DU?$char_traits@D@std@@V?$allocator@D@2@@std@@@2@V?$allocator@U?$pair@$$CBV?$basic_string@DU?$char_traits@D@std@@V?$allocator@D@2@@std@@PAU_MACROBLOCK@MQ2Internal@@@std@@@2@$0A@@std@@@std@@IAE?AV?$_Tree_iterator@V?$_Tree_val@U?$_Tree_simple_types@U?$pair@$$CBV?$basic_string@DU?$char_traits@D@std@@V?$allocator@D@2@@std@@PAU_MACROBLOCK@MQ2Internal@@@std@@@std@@@std@@@1@_NPAU?$_Tree_node@U?$pair@$$CBV?$basic_string@DU?$char_traits@D@std@@V?$allocator@D@2@@std@@PAU_MACROBLOCK@MQ2Internal@@@std@@PAX@1@AAU?$pair@$$CBV?$basic_string@DU?$char_traits@D@std@@V?$allocator@D@2@@std@@PAU_MACROBLOCK@MQ2Internal@@@1@1@Z 0303a430 f i MQ2MacroCommands.obj
 0001:00039670       ??$_Insert_hint@AAU?$pair@$$CBIPAU_BLECHEVENT@@@std@@PAU?$_Tree_node@U?$pair@$$CBIPAU_BLECHEVENT@@@std@@PAX@2@@?$_Tree@V?$_Tmap_traits@IPAU_BLECHEVENT@@U?$less@I@std@@V?$allocator@U?$pair@$$CBIPAU_BLECHEVENT@@@std@@@3@$0A@@std@@@std@@IAE?AV?$_Tree_iterator@V?$_Tree_val@U?$_Tree_simple_types@U?$pair@$$CBIPAU_BLECHEVENT@@@std@@@std@@@std@@@1@V?$_Tree_const_iterator@V?$_Tree_val@U?$_Tree_simple_types@U?$pair@$$CBIPAU_BLECHEVENT@@@std@@@std@@@std@@@1@AAU?$pair@$$CBIPAU_BLECHEVENT@@@1@PAU?$_Tree_node@U?$pair@$$CBIPAU_BLECHEVENT@@@std@@PAX@1@@Z 0303a670 f i MQ2MacroCommands.obj
 0001:000397c0       ??$_Insert_hint@AAU?$pair@$$CBV?$basic_string@DU?$char_traits@D@std@@V?$allocator@D@2@@std@@PAU_MACROBLOCK@MQ2Internal@@@std@@PAU?$_Tree_node@U?$pair@$$CBV?$basic_string@DU?$char_traits@D@std@@V?$allocator@D@2@@std@@PAU_MACROBLOCK@MQ2Internal@@@std@@PAX@2@@?$_Tree@V?$_Tmap_traits@V?$basic_string@DU?$char_traits@D@std@@V?$allocator@D@2@@std@@PAU_MACROBLOCK@MQ2Internal@@U?$less@V?$basic_string@DU?$char_traits@D@std@@V?$allocator@D@2@@std@@@2@V?$allocator@U?$pair@$$CBV?$basic_string@DU?$char_traits@D@std@@V?$allocator@D@2@@std@@PAU_MACROBLOCK@MQ2Internal@@@std@@@2@$0A@@std@@@std@@IAE?AV?$_Tree_iterator@V?$_Tree_val@U?$_Tree_simple_types@U?$pair@$$CBV?$basic_string@DU?$char_traits@D@std@@V?$allocator@D@2@@std@@PAU_MACROBLOCK@MQ2Internal@@@std@@@std@@@std@@@1@V?$_Tree_const_iterator@V?$_Tree_val@U?$_Tree_simple_types@U?$pair@$$CBV?$basic_string@DU?$char_traits@D@std@@V?$allocator@D@2@@std@@PAU_MACROBLOCK@MQ2Internal@@@std@@@std@@@std@@@1@AAU?$pair@$$CBV?$basic_string@DU?$char_traits@D@std@@V?$allocator@D@2@@std@@PAU_MACROBLOCK@MQ2Internal@@@1@PAU?$_Tree_node@U?$pair@$$CBV?$basic_string@DU?$char_traits@D@std@@V?$allocator@D@2@@std@@PAU_MACROBLOCK@MQ2Internal@@@std@@PAX@1@@Z 0303a7c0 f i MQ2MacroCommands.obj
 0001:00039970       ??$_Insert_nohint@AAU?$pair@$$CBIPAU_BLECHEVENT@@@std@@PAU?$_Tree_node@U?$pair@$$CBIPAU_BLECHEVENT@@@std@@PAX@2@@?$_Tree@V?$_Tmap_traits@IPAU_BLECHEVENT@@U?$less@I@std@@V?$allocator@U?$pair@$$CBIPAU_BLECHEVENT@@@std@@@3@$0A@@std@@@std@@IAE?AU?$pair@V?$_Tree_iterator@V?$_Tree_val@U?$_Tree_simple_types@U?$pair@$$CBIPAU_BLECHEVENT@@@std@@@std@@@std@@@std@@_N@1@_NAAU?$pair@$$CBIPAU_BLECHEVENT@@@1@PAU?$_Tree_node@U?$pair@$$CBIPAU_BLECHEVENT@@@std@@PAX@1@@Z 0303a970 f i MQ2MacroCommands.obj
 0001:00039a80       ??$_Insert_nohint@AAU?$pair@$$CBV?$basic_string@DU?$char_traits@D@std@@V?$allocator@D@2@@std@@PAU_MACROBLOCK@MQ2Internal@@@std@@PAU?$_Tree_node@U?$pair@$$CBV?$basic_string@DU?$char_traits@D@std@@V?$allocator@D@2@@std@@PAU_MACROBLOCK@MQ2Internal@@@std@@PAX@2@@?$_Tree@V?$_Tmap_traits@V?$basic_string@DU?$char_traits@D@std@@V?$allocator@D@2@@std@@PAU_MACROBLOCK@MQ2Internal@@U?$less@V?$basic_string@DU?$char_traits@D@std@@V?$allocator@D@2@@std@@@2@V?$allocator@U?$pair@$$CBV?$basic_string@DU?$char_traits@D@std@@V?$allocator@D@2@@std@@PAU_MACROBLOCK@MQ2Internal@@@std@@@2@$0A@@std@@@std@@IAE?AU?$pair@V?$_Tree_iterator@V?$_Tree_val@U?$_Tree_simple_types@U?$pair@$$CBV?$basic_string@DU?$char_traits@D@std@@V?$allocator@D@2@@std@@PAU_MACROBLOCK@MQ2Internal@@@std@@@std@@@std@@@std@@_N@1@_NAAU?$pair@$$CBV?$basic_string@DU?$char_traits@D@std@@V?$allocator@D@2@@std@@PAU_MACROBLOCK@MQ2Internal@@@1@PAU?$_Tree_node@U?$pair@$$CBV?$basic_string@DU?$char_traits@D@std@@V?$allocator@D@2@@std@@PAU_MACROBLOCK@MQ2Internal@@@std@@PAX@1@@Z 0303aa80 f i MQ2MacroCommands.obj
 0001:00039b90       ??$_Kfn@$$CBIPAU_BLECHEVENT@@@?$_Tmap_traits@IPAU_BLECHEVENT@@U?$less@I@std@@V?$allocator@U?$pair@$$CBIPAU_BLECHEVENT@@@std@@@3@$0A@@std@@SAABIABU?$pair@$$CBIPAU_BLECHEVENT@@@1@@Z 0303ab90 f i MQ2MacroCommands.obj
 0001:00039ba0       ??$_Kfn@$$CBV?$basic_string@DU?$char_traits@D@std@@V?$allocator@D@2@@std@@PAU_MACROBLOCK@MQ2Internal@@@?$_Tmap_traits@V?$basic_string@DU?$char_traits@D@std@@V?$allocator@D@2@@std@@PAU_MACROBLOCK@MQ2Internal@@U?$less@V?$basic_string@DU?$char_traits@D@std@@V?$allocator@D@2@@std@@@2@V?$allocator@U?$pair@$$CBV?$basic_string@DU?$char_traits@D@std@@V?$allocator@D@2@@std@@PAU_MACROBLOCK@MQ2Internal@@@std@@@2@$0A@@std@@SAABV?$basic_string@DU?$char_traits@D@std@@V?$allocator@D@2@@1@ABU?$pair@$$CBV?$basic_string@DU?$char_traits@D@std@@V?$allocator@D@2@@std@@PAU_MACROBLOCK@MQ2Internal@@@1@@Z 0303aba0 f i MQ2MacroCommands.obj
 0001:00039bb0       ??$construct@U?$pair@$$CBIPAU_BLECHEVENT@@@std@@ABUpiecewise_construct_t@2@V?$tuple@ABI@2@V?$tuple@$$$V@2@@?$_Wrap_alloc@V?$allocator@U?$_Tree_node@U?$pair@$$CBIPAU_BLECHEVENT@@@std@@PAX@std@@@std@@@std@@QAEXPAU?$pair@$$CBIPAU_BLECHEVENT@@@1@ABUpiecewise_construct_t@1@$$QAV?$tuple@ABI@1@$$QAV?$tuple@$$$V@1@@Z 0303abb0 f i MQ2MacroCommands.obj
 0001:00039bd0       ??$construct@U?$pair@$$CBIPAU_BLECHEVENT@@@std@@ABUpiecewise_construct_t@2@V?$tuple@ABI@2@V?$tuple@$$$V@2@@?$allocator@U?$_Tree_node@U?$pair@$$CBIPAU_BLECHEVENT@@@std@@PAX@std@@@std@@QAEXPAU?$pair@$$CBIPAU_BLECHEVENT@@@1@ABUpiecewise_construct_t@1@$$QAV?$tuple@ABI@1@$$QAV?$tuple@$$$V@1@@Z 0303abd0 f i MQ2MacroCommands.obj
 0001:00039bf0       ??$construct@U?$pair@$$CBIPAU_BLECHEVENT@@@std@@ABUpiecewise_construct_t@2@V?$tuple@ABI@2@V?$tuple@$$$V@2@@?$allocator_traits@V?$allocator@U?$_Tree_node@U?$pair@$$CBIPAU_BLECHEVENT@@@std@@PAX@std@@@std@@@std@@SAXAAV?$allocator@U?$_Tree_node@U?$pair@$$CBIPAU_BLECHEVENT@@@std@@PAX@std@@@1@PAU?$pair@$$CBIPAU_BLECHEVENT@@@1@ABUpiecewise_construct_t@1@$$QAV?$tuple@ABI@1@$$QAV?$tuple@$$$V@1@@Z 0303abf0 f i MQ2MacroCommands.obj
 0001:00039c10       ??$construct@U?$pair@$$CBV?$basic_string@DU?$char_traits@D@std@@V?$allocator@D@2@@std@@PAU_MACROBLOCK@MQ2Internal@@@std@@ABUpiecewise_construct_t@2@V?$tuple@$$QAV?$basic_string@DU?$char_traits@D@std@@V?$allocator@D@2@@std@@@2@V?$tuple@$$$V@2@@?$_Wrap_alloc@V?$allocator@U?$_Tree_node@U?$pair@$$CBV?$basic_string@DU?$char_traits@D@std@@V?$allocator@D@2@@std@@PAU_MACROBLOCK@MQ2Internal@@@std@@PAX@std@@@std@@@std@@QAEXPAU?$pair@$$CBV?$basic_string@DU?$char_traits@D@std@@V?$allocator@D@2@@std@@PAU_MACROBLOCK@MQ2Internal@@@1@ABUpiecewise_construct_t@1@$$QAV?$tuple@$$QAV?$basic_string@DU?$char_traits@D@std@@V?$allocator@D@2@@std@@@1@$$QAV?$tuple@$$$V@1@@Z 0303ac10 f i MQ2MacroCommands.obj
 0001:00039c40       ??$construct@U?$pair@$$CBV?$basic_string@DU?$char_traits@D@std@@V?$allocator@D@2@@std@@PAU_MACROBLOCK@MQ2Internal@@@std@@ABUpiecewise_construct_t@2@V?$tuple@$$QAV?$basic_string@DU?$char_traits@D@std@@V?$allocator@D@2@@std@@@2@V?$tuple@$$$V@2@@?$allocator@U?$_Tree_node@U?$pair@$$CBV?$basic_string@DU?$char_traits@D@std@@V?$allocator@D@2@@std@@PAU_MACROBLOCK@MQ2Internal@@@std@@PAX@std@@@std@@QAEXPAU?$pair@$$CBV?$basic_string@DU?$char_traits@D@std@@V?$allocator@D@2@@std@@PAU_MACROBLOCK@MQ2Internal@@@1@ABUpiecewise_construct_t@1@$$QAV?$tuple@$$QAV?$basic_string@DU?$char_traits@D@std@@V?$allocator@D@2@@std@@@1@$$QAV?$tuple@$$$V@1@@Z 0303ac40 f i MQ2MacroCommands.obj
 0001:00039c70       ??$construct@U?$pair@$$CBV?$basic_string@DU?$char_traits@D@std@@V?$allocator@D@2@@std@@PAU_MACROBLOCK@MQ2Internal@@@std@@ABUpiecewise_construct_t@2@V?$tuple@$$QAV?$basic_string@DU?$char_traits@D@std@@V?$allocator@D@2@@std@@@2@V?$tuple@$$$V@2@@?$allocator_traits@V?$allocator@U?$_Tree_node@U?$pair@$$CBV?$basic_string@DU?$char_traits@D@std@@V?$allocator@D@2@@std@@PAU_MACROBLOCK@MQ2Internal@@@std@@PAX@std@@@std@@@std@@SAXAAV?$allocator@U?$_Tree_node@U?$pair@$$CBV?$basic_string@DU?$char_traits@D@std@@V?$allocator@D@2@@std@@PAU_MACROBLOCK@MQ2Internal@@@std@@PAX@std@@@1@PAU?$pair@$$CBV?$basic_string@DU?$char_traits@D@std@@V?$allocator@D@2@@std@@PAU_MACROBLOCK@MQ2Internal@@@1@ABUpiecewise_construct_t@1@$$QAV?$tuple@$$QAV?$basic_string@DU?$char_traits@D@std@@V?$allocator@D@2@@std@@@1@$$QAV?$tuple@$$$V@1@@Z 0303ac70 f i MQ2MacroCommands.obj
 0001:00039ca0       ??$emplace_hint@ABUpiecewise_construct_t@std@@V?$tuple@$$QAV?$basic_string@DU?$char_traits@D@std@@V?$allocator@D@2@@std@@@2@V?$tuple@$$$V@2@@?$_Tree@V?$_Tmap_traits@V?$basic_string@DU?$char_traits@D@std@@V?$allocator@D@2@@std@@PAU_MACROBLOCK@MQ2Internal@@U?$less@V?$basic_string@DU?$char_traits@D@std@@V?$allocator@D@2@@std@@@2@V?$allocator@U?$pair@$$CBV?$basic_string@DU?$char_traits@D@std@@V?$allocator@D@2@@std@@PAU_MACROBLOCK@MQ2Internal@@@std@@@2@$0A@@std@@@std@@QAE?AV?$_Tree_iterator@V?$_Tree_val@U?$_Tree_simple_types@U?$pair@$$CBV?$basic_string@DU?$char_traits@D@std@@V?$allocator@D@2@@std@@PAU_MACROBLOCK@MQ2Internal@@@std@@@std@@@std@@@1@V?$_Tree_const_iterator@V?$_Tree_val@U?$_Tree_simple_types@U?$pair@$$CBV?$basic_string@DU?$char_traits@D@std@@V?$allocator@D@2@@std@@PAU_MACROBLOCK@MQ2Internal@@@std@@@std@@@std@@@1@ABUpiecewise_construct_t@1@$$QAV?$tuple@$$QAV?$basic_string@DU?$char_traits@D@std@@V?$allocator@D@2@@std@@@1@$$QAV?$tuple@$$$V@1@@Z 0303aca0 f i MQ2MacroCommands.obj
 0001:00039cd0       ??$emplace_hint@ABUpiecewise_construct_t@std@@V?$tuple@ABI@2@V?$tuple@$$$V@2@@?$_Tree@V?$_Tmap_traits@IPAU_BLECHEVENT@@U?$less@I@std@@V?$allocator@U?$pair@$$CBIPAU_BLECHEVENT@@@std@@@3@$0A@@std@@@std@@QAE?AV?$_Tree_iterator@V?$_Tree_val@U?$_Tree_simple_types@U?$pair@$$CBIPAU_BLECHEVENT@@@std@@@std@@@std@@@1@V?$_Tree_const_iterator@V?$_Tree_val@U?$_Tree_simple_types@U?$pair@$$CBIPAU_BLECHEVENT@@@std@@@std@@@std@@@1@ABUpiecewise_construct_t@1@$$QAV?$tuple@ABI@1@$$QAV?$tuple@$$$V@1@@Z 0303acd0 f i MQ2MacroCommands.obj
 0001:00039d00       ??$forward@AAU?$pair@$$CBIPAU_BLECHEVENT@@@std@@@std@@YAAAU?$pair@$$CBIPAU_BLECHEVENT@@@0@AAU10@@Z 0303ad00 f i MQ2MacroCommands.obj
 0001:00039d10       ??$forward@AAU?$pair@$$CBV?$basic_string@DU?$char_traits@D@std@@V?$allocator@D@2@@std@@PAU_MACROBLOCK@MQ2Internal@@@std@@@std@@YAAAU?$pair@$$CBV?$basic_string@DU?$char_traits@D@std@@V?$allocator@D@2@@std@@PAU_MACROBLOCK@MQ2Internal@@@0@AAU10@@Z 0303ad10 f i MQ2MacroCommands.obj
 0001:00039d20       ??$forward@AAV?$_Tree_iterator@V?$_Tree_val@U?$_Tree_simple_types@U?$pair@$$CBIPAU_BLECHEVENT@@@std@@@std@@@std@@@std@@@std@@YAAAV?$_Tree_iterator@V?$_Tree_val@U?$_Tree_simple_types@U?$pair@$$CBIPAU_BLECHEVENT@@@std@@@std@@@std@@@0@AAV10@@Z 0303ad20 f i MQ2MacroCommands.obj
 0001:00039d30       ??$forward@AAV?$_Tree_iterator@V?$_Tree_val@U?$_Tree_simple_types@U?$pair@$$CBV?$basic_string@DU?$char_traits@D@std@@V?$allocator@D@2@@std@@PAU_MACROBLOCK@MQ2Internal@@@std@@@std@@@std@@@std@@@std@@YAAAV?$_Tree_iterator@V?$_Tree_val@U?$_Tree_simple_types@U?$pair@$$CBV?$basic_string@DU?$char_traits@D@std@@V?$allocator@D@2@@std@@PAU_MACROBLOCK@MQ2Internal@@@std@@@std@@@std@@@0@AAV10@@Z 0303ad30 f i MQ2MacroCommands.obj
 0001:00039d40       ??$forward@ABI@std@@YAABIABI@Z 0303ad40 f i MQ2MacroCommands.obj
 0001:00039d50       ??$forward@V?$_Tree_iterator@V?$_Tree_val@U?$_Tree_simple_types@U?$pair@$$CBIPAU_BLECHEVENT@@@std@@@std@@@std@@@std@@@std@@YA$$QAV?$_Tree_iterator@V?$_Tree_val@U?$_Tree_simple_types@U?$pair@$$CBIPAU_BLECHEVENT@@@std@@@std@@@std@@@0@AAV10@@Z 0303ad50 f i MQ2MacroCommands.obj
 0001:00039d60       ??$forward@V?$_Tree_iterator@V?$_Tree_val@U?$_Tree_simple_types@U?$pair@$$CBV?$basic_string@DU?$char_traits@D@std@@V?$allocator@D@2@@std@@PAU_MACROBLOCK@MQ2Internal@@@std@@@std@@@std@@@std@@@std@@YA$$QAV?$_Tree_iterator@V?$_Tree_val@U?$_Tree_simple_types@U?$pair@$$CBV?$basic_string@DU?$char_traits@D@std@@V?$allocator@D@2@@std@@PAU_MACROBLOCK@MQ2Internal@@@std@@@std@@@std@@@0@AAV10@@Z 0303ad60 f i MQ2MacroCommands.obj
 0001:00039d70       ??$forward@V?$tuple@ABI@std@@@std@@YA$$QAV?$tuple@ABI@0@AAV10@@Z 0303ad70 f i MQ2MacroCommands.obj
 0001:00039d80       ??$forward_as_tuple@ABI@std@@YA?AV?$tuple@ABI@0@ABI@Z 0303ad80 f i MQ2MacroCommands.obj
 0001:00039d90       ??$get@$0A@ABI@std@@YAABI$$QAV?$tuple@ABI@0@@Z 0303ad90 f i MQ2MacroCommands.obj
 0001:00039da0       ??$move@AAV?$tuple@ABI@std@@@std@@YA$$QAV?$tuple@ABI@0@AAV10@@Z 0303ada0 f i MQ2MacroCommands.obj
 0001:00039db0       ??0?$_Tree_const_iterator@V?$_Tree_val@U?$_Tree_simple_types@U?$pair@$$CBIPAU_BLECHEVENT@@@std@@@std@@@std@@@std@@QAE@XZ 0303adb0 f i MQ2MacroCommands.obj
 0001:00039dc0       ??0?$_Tree_const_iterator@V?$_Tree_val@U?$_Tree_simple_types@U?$pair@$$CBV?$basic_string@DU?$char_traits@D@std@@V?$allocator@D@2@@std@@PAU_MACROBLOCK@MQ2Internal@@@std@@@std@@@std@@@std@@QAE@XZ 0303adc0 f i MQ2MacroCommands.obj
 0001:00039dd0       ??0?$_Tree_unchecked_const_iterator@V?$_Tree_val@U?$_Tree_simple_types@U?$pair@$$CBIPAU_BLECHEVENT@@@std@@@std@@@std@@U_Iterator_base0@2@@std@@QAE@XZ 0303add0 f i MQ2MacroCommands.obj
 0001:00039de0       ??0?$_Tree_unchecked_const_iterator@V?$_Tree_val@U?$_Tree_simple_types@U?$pair@$$CBV?$basic_string@DU?$char_traits@D@std@@V?$allocator@D@2@@std@@PAU_MACROBLOCK@MQ2Internal@@@std@@@std@@@std@@U_Iterator_base0@2@@std@@QAE@XZ 0303ade0 f i MQ2MacroCommands.obj
 0001:00039df0       ??0?$tuple@ABI@std@@QAE@ABI@Z 0303adf0 f i MQ2MacroCommands.obj
 0001:00039e00       ??0BlechNode@@QAE@PAV0@PAPAV0@PBDW4eBlechStringType@@@Z 0303ae00 f i MQ2MacroCommands.obj
 0001:00039e70       ??A?$map@IPAU_BLECHEVENT@@U?$less@I@std@@V?$allocator@U?$pair@$$CBIPAU_BLECHEVENT@@@std@@@3@@std@@QAEAAPAU_BLECHEVENT@@ABI@Z 0303ae70 f i MQ2MacroCommands.obj
 0001:00039f00       ??A?$map@V?$basic_string@DU?$char_traits@D@std@@V?$allocator@D@2@@std@@PAU_MACROBLOCK@MQ2Internal@@U?$less@V?$basic_string@DU?$char_traits@D@std@@V?$allocator@D@2@@std@@@2@V?$allocator@U?$pair@$$CBV?$basic_string@DU?$char_traits@D@std@@V?$allocator@D@2@@std@@PAU_MACROBLOCK@MQ2Internal@@@std@@@2@@std@@QAEAAPAU_MACROBLOCK@MQ2Internal@@$$QAV?$basic_string@DU?$char_traits@D@std@@V?$allocator@D@2@@1@@Z 0303af00 f i MQ2MacroCommands.obj
 0001:00039f80       ??C?$_Tree_iterator@V?$_Tree_val@U?$_Tree_simple_types@U?$pair@$$CBV?$basic_string@DU?$char_traits@D@std@@V?$allocator@D@2@@std@@PAU_MACROBLOCK@MQ2Internal@@@std@@@std@@@std@@@std@@QBEPAU?$pair@$$CBV?$basic_string@DU?$char_traits@D@std@@V?$allocator@D@2@@std@@PAU_MACROBLOCK@MQ2Internal@@@1@XZ 0303af80 f i MQ2MacroCommands.obj
 0001:00039f90       ??D?$_Tree_const_iterator@V?$_Tree_val@U?$_Tree_simple_types@U?$pair@$$CBV?$basic_string@DU?$char_traits@D@std@@V?$allocator@D@2@@std@@PAU_MACROBLOCK@MQ2Internal@@@std@@@std@@@std@@@std@@QBEABU?$pair@$$CBV?$basic_string@DU?$char_traits@D@std@@V?$allocator@D@2@@std@@PAU_MACROBLOCK@MQ2Internal@@@1@XZ 0303af90 f i MQ2MacroCommands.obj
 0001:00039fa0       ??D?$_Tree_iterator@V?$_Tree_val@U?$_Tree_simple_types@U?$pair@$$CBV?$basic_string@DU?$char_traits@D@std@@V?$allocator@D@2@@std@@PAU_MACROBLOCK@MQ2Internal@@@std@@@std@@@std@@@std@@QBEAAU?$pair@$$CBV?$basic_string@DU?$char_traits@D@std@@V?$allocator@D@2@@std@@PAU_MACROBLOCK@MQ2Internal@@@1@XZ 0303afa0 f i MQ2MacroCommands.obj
 0001:00039fb0       ??F?$_Tree_const_iterator@V?$_Tree_val@U?$_Tree_simple_types@U?$pair@$$CBIPAU_BLECHEVENT@@@std@@@std@@@std@@@std@@QAEAAV01@XZ 0303afb0 f i MQ2MacroCommands.obj
 0001:00039fc0       ??F?$_Tree_const_iterator@V?$_Tree_val@U?$_Tree_simple_types@U?$pair@$$CBV?$basic_string@DU?$char_traits@D@std@@V?$allocator@D@2@@std@@PAU_MACROBLOCK@MQ2Internal@@@std@@@std@@@std@@@std@@QAEAAV01@XZ 0303afc0 f i MQ2MacroCommands.obj
 0001:00039fd0       ??F?$_Tree_iterator@V?$_Tree_val@U?$_Tree_simple_types@U?$pair@$$CBIPAU_BLECHEVENT@@@std@@@std@@@std@@@std@@QAEAAV01@XZ 0303afd0 f i MQ2MacroCommands.obj
 0001:00039fe0       ??F?$_Tree_iterator@V?$_Tree_val@U?$_Tree_simple_types@U?$pair@$$CBV?$basic_string@DU?$char_traits@D@std@@V?$allocator@D@2@@std@@PAU_MACROBLOCK@MQ2Internal@@@std@@@std@@@std@@@std@@QAEAAV01@XZ 0303afe0 f i MQ2MacroCommands.obj
 0001:00039ff0       ??F?$_Tree_unchecked_const_iterator@V?$_Tree_val@U?$_Tree_simple_types@U?$pair@$$CBIPAU_BLECHEVENT@@@std@@@std@@@std@@U_Iterator_base0@2@@std@@QAEAAV01@XZ 0303aff0 f i MQ2MacroCommands.obj
 0001:0003a050       ??F?$_Tree_unchecked_const_iterator@V?$_Tree_val@U?$_Tree_simple_types@U?$pair@$$CBV?$basic_string@DU?$char_traits@D@std@@V?$allocator@D@2@@std@@PAU_MACROBLOCK@MQ2Internal@@@std@@@std@@@std@@U_Iterator_base0@2@@std@@QAEAAV01@XZ 0303b050 f i MQ2MacroCommands.obj
 0001:0003a0b0       ??R?$less@I@std@@QBE_NABI0@Z 0303b0b0 f i MQ2MacroCommands.obj
 0001:0003a0d0       ?AddChild@BlechNode@@QAEPAV1@PBDW4eBlechStringType@@@Z 0303b0d0 f i MQ2MacroCommands.obj
 0001:0003a2f0       ?AddEvent@Blech@@QAEIPBDP6GXIPAXPAU_BLECHVALUE@@@Z1@Z 0303b2f0 f i MQ2MacroCommands.obj
 0001:0003a4d0       ?AddEvent@BlechNode@@QAEXPAU_BLECHEVENT@@@Z 0303b4d0 f i MQ2MacroCommands.obj
 0001:0003a510       ?AddNode@Blech@@AAEPAVBlechNode@@IPBDW4eBlechStringType@@@Z 0303b510 f i MQ2MacroCommands.obj
 0001:0003a740       ?AddNode@Blech@@AAEPAVBlechNode@@PAV2@PBD1W4eBlechStringType@@@Z 0303b740 f i MQ2MacroCommands.obj
 0001:0003a7d0       ?Reset@Blech@@QAEXXZ       0303b7d0 f i MQ2MacroCommands.obj
 0001:0003a810       ?_Buynode0@?$_Tree_buy@U?$pair@$$CBIPAU_BLECHEVENT@@@std@@V?$allocator@U?$pair@$$CBIPAU_BLECHEVENT@@@std@@@2@@std@@QAEPAU?$_Tree_node@U?$pair@$$CBIPAU_BLECHEVENT@@@std@@PAX@2@XZ 0303b810 f i MQ2MacroCommands.obj
 0001:0003a8a0       ?_Buynode0@?$_Tree_buy@U?$pair@$$CBV?$basic_string@DU?$char_traits@D@std@@V?$allocator@D@2@@std@@PAU_MACROBLOCK@MQ2Internal@@@std@@V?$allocator@U?$pair@$$CBV?$basic_string@DU?$char_traits@D@std@@V?$allocator@D@2@@std@@PAU_MACROBLOCK@MQ2Internal@@@std@@@2@@std@@QAEPAU?$_Tree_node@U?$pair@$$CBV?$basic_string@DU?$char_traits@D@std@@V?$allocator@D@2@@std@@PAU_MACROBLOCK@MQ2Internal@@@std@@PAX@2@XZ 0303b8a0 f i MQ2MacroCommands.obj
 0001:0003a930       ?_Destroy_if_not_nil@?$_Tree@V?$_Tmap_traits@IPAU_BLECHEVENT@@U?$less@I@std@@V?$allocator@U?$pair@$$CBIPAU_BLECHEVENT@@@std@@@3@$0A@@std@@@std@@IAEXPAU?$_Tree_node@U?$pair@$$CBIPAU_BLECHEVENT@@@std@@PAX@2@@Z 0303b930 f i MQ2MacroCommands.obj
 0001:0003a950       ?_Destroy_if_not_nil@?$_Tree@V?$_Tmap_traits@V?$basic_string@DU?$char_traits@D@std@@V?$allocator@D@2@@std@@PAU_MACROBLOCK@MQ2Internal@@U?$less@V?$basic_string@DU?$char_traits@D@std@@V?$allocator@D@2@@std@@@2@V?$allocator@U?$pair@$$CBV?$basic_string@DU?$char_traits@D@std@@V?$allocator@D@2@@std@@PAU_MACROBLOCK@MQ2Internal@@@std@@@2@$0A@@std@@@std@@IAEXPAU?$_Tree_node@U?$pair@$$CBV?$basic_string@DU?$char_traits@D@std@@V?$allocator@D@2@@std@@PAU_MACROBLOCK@MQ2Internal@@@std@@PAX@2@@Z 0303b950 f i MQ2MacroCommands.obj
 0001:0003a990       ?_Freenode0@?$_Tree_buy@U?$pair@$$CBIPAU_BLECHEVENT@@@std@@V?$allocator@U?$pair@$$CBIPAU_BLECHEVENT@@@std@@@2@@std@@QAEXPAU?$_Tree_node@U?$pair@$$CBIPAU_BLECHEVENT@@@std@@PAX@2@@Z 0303b990 f i MQ2MacroCommands.obj
 0001:0003a9b0       ?_Freenode0@?$_Tree_buy@U?$pair@$$CBV?$basic_string@DU?$char_traits@D@std@@V?$allocator@D@2@@std@@PAU_MACROBLOCK@MQ2Internal@@@std@@V?$allocator@U?$pair@$$CBV?$basic_string@DU?$char_traits@D@std@@V?$allocator@D@2@@std@@PAU_MACROBLOCK@MQ2Internal@@@std@@@2@@std@@QAEXPAU?$_Tree_node@U?$pair@$$CBV?$basic_string@DU?$char_traits@D@std@@V?$allocator@D@2@@std@@PAU_MACROBLOCK@MQ2Internal@@@std@@PAX@2@@Z 0303b9b0 f i MQ2MacroCommands.obj
 0001:0003a9d0       ?_Get_rest@?$tuple@ABI@std@@QAEAAV?$tuple@$$$V@2@XZ 0303b9d0 f i MQ2MacroCommands.obj
 0001:0003a9e0       ?_Getcomp@?$_Tree_comp@$0A@V?$_Tmap_traits@IPAU_BLECHEVENT@@U?$less@I@std@@V?$allocator@U?$pair@$$CBIPAU_BLECHEVENT@@@std@@@3@$0A@@std@@@std@@QBE?AU?$less@I@2@XZ 0303b9e0 f i MQ2MacroCommands.obj
 0001:0003a9f0       ?_Getcomp@?$_Tree_comp@$0A@V?$_Tmap_traits@V?$basic_string@DU?$char_traits@D@std@@V?$allocator@D@2@@std@@PAU_MACROBLOCK@MQ2Internal@@U?$less@V?$basic_string@DU?$char_traits@D@std@@V?$allocator@D@2@@std@@@2@V?$allocator@U?$pair@$$CBV?$basic_string@DU?$char_traits@D@std@@V?$allocator@D@2@@std@@PAU_MACROBLOCK@MQ2Internal@@@std@@@2@$0A@@std@@@std@@QBE?AU?$less@V?$basic_string@DU?$char_traits@D@std@@V?$allocator@D@2@@std@@@2@XZ 0303b9f0 f i MQ2MacroCommands.obj
 0001:0003aa00       ?_Key@?$_Tree@V?$_Tmap_traits@IPAU_BLECHEVENT@@U?$less@I@std@@V?$allocator@U?$pair@$$CBIPAU_BLECHEVENT@@@std@@@3@$0A@@std@@@std@@IBEABIPAU?$_Tree_node@U?$pair@$$CBIPAU_BLECHEVENT@@@std@@PAX@2@@Z 0303ba00 f i MQ2MacroCommands.obj
 0001:0003aa10       ?_Key@?$_Tree@V?$_Tmap_traits@V?$basic_string@DU?$char_traits@D@std@@V?$allocator@D@2@@std@@PAU_MACROBLOCK@MQ2Internal@@U?$less@V?$basic_string@DU?$char_traits@D@std@@V?$allocator@D@2@@std@@@2@V?$allocator@U?$pair@$$CBV?$basic_string@DU?$char_traits@D@std@@V?$allocator@D@2@@std@@PAU_MACROBLOCK@MQ2Internal@@@std@@@2@$0A@@std@@@std@@IBEABV?$basic_string@DU?$char_traits@D@std@@V?$allocator@D@2@@2@PAU?$_Tree_node@U?$pair@$$CBV?$basic_string@DU?$char_traits@D@std@@V?$allocator@D@2@@std@@PAU_MACROBLOCK@MQ2Internal@@@std@@PAX@2@@Z 0303ba10 f i MQ2MacroCommands.obj
 0001:0003aa20       ?_Kfn@?$_Tree@V?$_Tmap_traits@IPAU_BLECHEVENT@@U?$less@I@std@@V?$allocator@U?$pair@$$CBIPAU_BLECHEVENT@@@std@@@3@$0A@@std@@@std@@IBEABIABU?$pair@$$CBIPAU_BLECHEVENT@@@2@@Z 0303ba20 f i MQ2MacroCommands.obj
 0001:0003aa30       ?_Kfn@?$_Tree@V?$_Tmap_traits@V?$basic_string@DU?$char_traits@D@std@@V?$allocator@D@2@@std@@PAU_MACROBLOCK@MQ2Internal@@U?$less@V?$basic_string@DU?$char_traits@D@std@@V?$allocator@D@2@@std@@@2@V?$allocator@U?$pair@$$CBV?$basic_string@DU?$char_traits@D@std@@V?$allocator@D@2@@std@@PAU_MACROBLOCK@MQ2Internal@@@std@@@2@$0A@@std@@@std@@IBEABV?$basic_string@DU?$char_traits@D@std@@V?$allocator@D@2@@2@ABU?$pair@$$CBV?$basic_string@DU?$char_traits@D@std@@V?$allocator@D@2@@std@@PAU_MACROBLOCK@MQ2Internal@@@2@@Z 0303ba30 f i MQ2MacroCommands.obj
 0001:0003aa40       ?_Lbound@?$_Tree@V?$_Tmap_traits@IPAU_BLECHEVENT@@U?$less@I@std@@V?$allocator@U?$pair@$$CBIPAU_BLECHEVENT@@@std@@@3@$0A@@std@@@std@@IAEPAU?$_Tree_node@U?$pair@$$CBIPAU_BLECHEVENT@@@std@@PAX@2@ABI@Z 0303ba40 f i MQ2MacroCommands.obj
 0001:0003aa70       ?_Lbound@?$_Tree@V?$_Tmap_traits@V?$basic_string@DU?$char_traits@D@std@@V?$allocator@D@2@@std@@PAU_MACROBLOCK@MQ2Internal@@U?$less@V?$basic_string@DU?$char_traits@D@std@@V?$allocator@D@2@@std@@@2@V?$allocator@U?$pair@$$CBV?$basic_string@DU?$char_traits@D@std@@V?$allocator@D@2@@std@@PAU_MACROBLOCK@MQ2Internal@@@std@@@2@$0A@@std@@@std@@IAEPAU?$_Tree_node@U?$pair@$$CBV?$basic_string@DU?$char_traits@D@std@@V?$allocator@D@2@@std@@PAU_MACROBLOCK@MQ2Internal@@@std@@PAX@2@ABV?$basic_string@DU?$char_traits@D@std@@V?$allocator@D@2@@2@@Z 0303ba70 f i MQ2MacroCommands.obj
 0001:0003ab50       ?lower_bound@?$_Tree@V?$_Tmap_traits@IPAU_BLECHEVENT@@U?$less@I@std@@V?$allocator@U?$pair@$$CBIPAU_BLECHEVENT@@@std@@@3@$0A@@std@@@std@@QAE?AV?$_Tree_iterator@V?$_Tree_val@U?$_Tree_simple_types@U?$pair@$$CBIPAU_BLECHEVENT@@@std@@@std@@@std@@@2@ABI@Z 0303bb50 f i MQ2MacroCommands.obj
 0001:0003ab80       ?lower_bound@?$_Tree@V?$_Tmap_traits@V?$basic_string@DU?$char_traits@D@std@@V?$allocator@D@2@@std@@PAU_MACROBLOCK@MQ2Internal@@U?$less@V?$basic_string@DU?$char_traits@D@std@@V?$allocator@D@2@@std@@@2@V?$allocator@U?$pair@$$CBV?$basic_string@DU?$char_traits@D@std@@V?$allocator@D@2@@std@@PAU_MACROBLOCK@MQ2Internal@@@std@@@2@$0A@@std@@@std@@QAE?AV?$_Tree_iterator@V?$_Tree_val@U?$_Tree_simple_types@U?$pair@$$CBV?$basic_string@DU?$char_traits@D@std@@V?$allocator@D@2@@std@@PAU_MACROBLOCK@MQ2Internal@@@std@@@std@@@std@@@2@ABV?$basic_string@DU?$char_traits@D@std@@V?$allocator@D@2@@2@@Z 0303bb80 f i MQ2MacroCommands.obj
 0001:0003aba0       ?max_size@?$_Tree@V?$_Tmap_traits@IPAU_BLECHEVENT@@U?$less@I@std@@V?$allocator@U?$pair@$$CBIPAU_BLECHEVENT@@@std@@@3@$0A@@std@@@std@@QBEIXZ 0303bba0 f i MQ2MacroCommands.obj
 0001:0003abb0       ?max_size@?$_Tree@V?$_Tmap_traits@V?$basic_string@DU?$char_traits@D@std@@V?$allocator@D@2@@std@@PAU_MACROBLOCK@MQ2Internal@@U?$less@V?$basic_string@DU?$char_traits@D@std@@V?$allocator@D@2@@std@@@2@V?$allocator@U?$pair@$$CBV?$basic_string@DU?$char_traits@D@std@@V?$allocator@D@2@@std@@PAU_MACROBLOCK@MQ2Internal@@@std@@@2@$0A@@std@@@std@@QBEIXZ 0303bbb0 f i MQ2MacroCommands.obj
 0001:0003abc0       ?max_size@?$_Wrap_alloc@V?$allocator@U?$_Tree_node@U?$pair@$$CBIPAU_BLECHEVENT@@@std@@PAX@std@@@std@@@std@@QBEIXZ 0303bbc0 f i MQ2MacroCommands.obj
 0001:0003abd0       ?max_size@?$_Wrap_alloc@V?$allocator@U?$_Tree_node@U?$pair@$$CBV?$basic_string@DU?$char_traits@D@std@@V?$allocator@D@2@@std@@PAU_MACROBLOCK@MQ2Internal@@@std@@PAX@std@@@std@@@std@@QBEIXZ 0303bbd0 f i MQ2MacroCommands.obj
 0001:0003abe0       ?max_size@?$allocator@U?$_Tree_node@U?$pair@$$CBIPAU_BLECHEVENT@@@std@@PAX@std@@@std@@QBEIXZ 0303bbe0 f i MQ2MacroCommands.obj
 0001:0003abf0       ?max_size@?$allocator@U?$_Tree_node@U?$pair@$$CBV?$basic_string@DU?$char_traits@D@std@@V?$allocator@D@2@@std@@PAU_MACROBLOCK@MQ2Internal@@@std@@PAX@std@@@std@@QBEIXZ 0303bbf0 f i MQ2MacroCommands.obj
 0001:0003ac00       ?max_size@?$allocator_traits@V?$allocator@U?$_Tree_node@U?$pair@$$CBIPAU_BLECHEVENT@@@std@@PAX@std@@@std@@@std@@SAIABV?$allocator@U?$_Tree_node@U?$pair@$$CBIPAU_BLECHEVENT@@@std@@PAX@std@@@2@@Z 0303bc00 f i MQ2MacroCommands.obj
 0001:0003ac10       ?max_size@?$allocator_traits@V?$allocator@U?$_Tree_node@U?$pair@$$CBV?$basic_string@DU?$char_traits@D@std@@V?$allocator@D@2@@std@@PAU_MACROBLOCK@MQ2Internal@@@std@@PAX@std@@@std@@@std@@SAIABV?$allocator@U?$_Tree_node@U?$pair@$$CBV?$basic_string@DU?$char_traits@D@std@@V?$allocator@D@2@@std@@PAU_MACROBLOCK@MQ2Internal@@@std@@PAX@std@@@2@@Z 0303bc10 f i MQ2MacroCommands.obj
 0001:0003ac20       ?pointer_to@?$pointer_traits@PAU?$pair@$$CBV?$basic_string@DU?$char_traits@D@std@@V?$allocator@D@2@@std@@PAU_MACROBLOCK@MQ2Internal@@@std@@@std@@SAPAU?$pair@$$CBV?$basic_string@DU?$char_traits@D@std@@V?$allocator@D@2@@std@@PAU_MACROBLOCK@MQ2Internal@@@2@AAU32@@Z 0303bc20 f i MQ2MacroCommands.obj
 0001:0003ac30       ?size@?$_Tree@V?$_Tmap_traits@IPAU_BLECHEVENT@@U?$less@I@std@@V?$allocator@U?$pair@$$CBIPAU_BLECHEVENT@@@std@@@3@$0A@@std@@@std@@QBEIXZ 0303bc30 f i MQ2MacroCommands.obj
 0001:0003ac40       ?size@?$_Tree@V?$_Tmap_traits@V?$basic_string@DU?$char_traits@D@std@@V?$allocator@D@2@@std@@PAU_MACROBLOCK@MQ2Internal@@U?$less@V?$basic_string@DU?$char_traits@D@std@@V?$allocator@D@2@@std@@@2@V?$allocator@U?$pair@$$CBV?$basic_string@DU?$char_traits@D@std@@V?$allocator@D@2@@std@@PAU_MACROBLOCK@MQ2Internal@@@std@@@2@$0A@@std@@@std@@QBEIXZ 0303bc40 f i MQ2MacroCommands.obj
 0001:0003ac90       _MQ2Malloc                 0303bc90 f   MQ2Main.obj
 0001:0003aca0       _MQ2Free                   0303bca0 f   MQ2Main.obj
 0001:0003acb0       _CreateMQ2NewsWindow       0303bcb0 f   MQ2Main.obj
 0001:0003ad80       _DeleteMQ2NewsWindow       0303bd80 f   MQ2Main.obj
 0001:0003adc0       _CastRay                   0303bdc0 f   MQ2Main.obj
 0001:0003add0       _GetFastTime               0303bdd0 f   MQ2Main.obj
 0001:0003ade0       _GetXtargetType@4          0303bde0 f   MQ2Main.obj
 0001:0003adf0       _EQGetTime                 0303bdf0 f   MQ2Main.obj
 0001:0003ae00       ?MQ2Start@@YGKPAX@Z        0303be00 f   MQ2Main.obj
 0001:0003af10       _DllMain@12                0303bf10 f   MQ2Main.obj
 0001:0003b080       ?ParseINIFile@@YAHPAD@Z    0303c080 f   MQ2Main.obj
 0001:0003bb90       ?MQ2Initialize@@YA_NXZ     0303cb90 f   MQ2Main.obj
 0001:0003bf20       ?MQ2Shutdown@@YAXXZ        0303cf20 f   MQ2Main.obj
 0001:0003c0d0       ?InsertMQ2News@@YAXXZ      0303d0d0 f   MQ2Main.obj
 0001:0003c240       ?AddNewsLine@@YAXPADK@Z    0303d240 f   MQ2Main.obj
 0001:0003c2e0       ?hookCBTProc@@YGJHIJ@Z     0303d2e0 f   MQ2Main.obj
 0001:0003c300       ?InjectEnable@@YAXXZ       0303d300 f   MQ2Main.obj
 0001:0003c320       ?InjectDisable@@YAXXZ      0303d320 f   MQ2Main.obj
 0001:0003c340       ??0CCustomWnd@MQ2Internal@@QAE@PAD@Z 0303d340 f i MQ2Main.obj
 0001:0003c3c0       ??0CMQNewsWnd@@QAE@PAD@Z   0303d3c0 f i MQ2Main.obj
 0001:0003c440       ??1CCustomWnd@MQ2Internal@@QAE@XZ 0303d440 f i MQ2Main.obj
 0001:0003c460       ??1CMQNewsWnd@@QAE@XZ      0303d460 f i MQ2Main.obj
 0001:0003c480       ??_GCMQNewsWnd@@QAEPAXI@Z  0303d480 f i MQ2Main.obj
 0001:0003c4c0       ?RemovevfTable@CCustomWnd@MQ2Internal@@QAEXXZ 0303d4c0 f i MQ2Main.obj
 0001:0003c4e0       ?ReplacevfTable@CCustomWnd@MQ2Internal@@QAEXXZ 0303d4e0 f i MQ2Main.obj
 0001:0003c510       ?SetvfTable@CCustomWnd@MQ2Internal@@QAEXKK@Z 0303d510 f i MQ2Main.obj
 0001:0003c530       ?WndNotification@CMQNewsWnd@@QAEHPAVCXWnd@EQClasses@@IPAX@Z 0303d530 f i MQ2Main.obj
 0001:0003c560       ?pXWnd@CSidlScreenWnd@EQClasses@@QAEPAVCXWnd@2@XZ 0303d560 f i MQ2Main.obj
 0001:0003c570       ?strrchr@@YAPADPADH@Z      0303d570 f i MQ2Main.obj
 0001:0003c580       _IsMouseWaiting            0303d580 f   MQ2Mouse.obj
 0001:0003c5f0       _IsMouseWaitingForButton   0303d5f0 f   MQ2Mouse.obj
 0001:0003c610       _Click                     0303d610 f   MQ2Mouse.obj
 0001:0003c800       ?ExtractValue@@YAHPAD000@Z 0303d800 f   MQ2Mouse.obj
 0001:0003c8d0       ?ClickMouse@@YAXK@Z        0303d8d0 f   MQ2Mouse.obj
 0001:0003c960       ?MouseButtonUp@@YAXKKPAD@Z 0303d960 f   MQ2Mouse.obj
 0001:0003c9f0       ?ClickMouseLoc@@YAXPAD0@Z  0303d9f0 f   MQ2Mouse.obj
 0001:0003cb00       _ParseMacroParameter       0303db00 f   MQ2ParseAPI.obj
 0001:0003cb40       _InitializeParser          0303db40 f   MQ2ParseAPI.obj
 0001:0003cb70       _ShutdownParser            0303db70 f   MQ2ParseAPI.obj
 0001:0003cbb0       ?FindLastParameter@@YAHPBDAAPBDAAI@Z 0303dbb0 f   MQ2ParseAPI.obj
 0001:0003cc00       _WriteChatColor            0303dc00 f   MQ2PluginHandler.obj
 0001:0003ccd0       _InitializeMQ2Plugins      0303dcd0 f   MQ2PluginHandler.obj
 0001:0003cea0       _LoadMQ2Plugin             0303dea0 f   MQ2PluginHandler.obj
 0001:0003d2f0       _UnloadMQ2Plugin           0303e2f0 f   MQ2PluginHandler.obj
 0001:0003d430       _UnloadMQ2Plugins          0303e430 f   MQ2PluginHandler.obj
 0001:0003d480       _ShutdownMQ2Plugins        0303e480 f   MQ2PluginHandler.obj
 0001:0003d4f0       _RewriteMQ2Plugins         0303e4f0 f   MQ2PluginHandler.obj
 0001:0003d560       _PulsePlugins              0303e560 f   MQ2PluginHandler.obj
 0001:0003d5b0       _PluginsZoned              0303e5b0 f   MQ2PluginHandler.obj
 0001:0003d650       _PluginsIncomingChat       0303e650 f   MQ2PluginHandler.obj
 0001:0003d6d0       _PluginsCleanUI            0303e6d0 f   MQ2PluginHandler.obj
 0001:0003d730       _PluginsReloadUI           0303e730 f   MQ2PluginHandler.obj
 0001:0003d790       _PluginsSetGameState       0303e790 f   MQ2PluginHandler.obj
 0001:0003d970       _PluginsDrawHUD            0303e970 f   MQ2PluginHandler.obj
 0001:0003d9c0       _PluginsAddSpawn           0303e9c0 f   MQ2PluginHandler.obj
 0001:0003da60       _PluginsRemoveSpawn        0303ea60 f   MQ2PluginHandler.obj
 0001:0003db30       _PluginsAddGroundItem      0303eb30 f   MQ2PluginHandler.obj
 0001:0003dbc0       _PluginsRemoveGroundItem   0303ebc0 f   MQ2PluginHandler.obj
 0001:0003dc10       _PluginsBeginZone          0303ec10 f   MQ2PluginHandler.obj
 0001:0003dc80       _PluginsEndZone            0303ec80 f   MQ2PluginHandler.obj
 0001:0003dea0       ?checkme@@YAKPAD@Z         0303eea0 f   MQ2PluginHandler.obj
 0001:0003deb0       ??$?0AAV?$_Tree_iterator@V?$_Tree_val@U?$_Tree_simple_types@U?$pair@$$CBV?$basic_string@DU?$char_traits@D@std@@V?$allocator@D@2@@std@@PAU_SPAWNINFO@EQData@@@std@@@std@@@std@@@std@@AAV01@X@?$pair@V?$_Tree_iterator@V?$_Tree_val@U?$_Tree_simple_types@U?$pair@$$CBV?$basic_string@DU?$char_traits@D@std@@V?$allocator@D@2@@std@@PAU_SPAWNINFO@EQData@@@std@@@std@@@std@@@std@@V12@@std@@QAE@AAV?$_Tree_iterator@V?$_Tree_val@U?$_Tree_simple_types@U?$pair@$$CBV?$basic_string@DU?$char_traits@D@std@@V?$allocator@D@2@@std@@PAU_SPAWNINFO@EQData@@@std@@@std@@@std@@@1@0@Z 0303eeb0 f i MQ2PluginHandler.obj
 0001:0003ded0       ??$_Distance2@V?$_Tree_iterator@V?$_Tree_val@U?$_Tree_simple_types@U?$pair@$$CBV?$basic_string@DU?$char_traits@D@std@@V?$allocator@D@2@@std@@PAU_SPAWNINFO@EQData@@@std@@@std@@@std@@@std@@I@std@@YAXV?$_Tree_iterator@V?$_Tree_val@U?$_Tree_simple_types@U?$pair@$$CBV?$basic_string@DU?$char_traits@D@std@@V?$allocator@D@2@@std@@PAU_SPAWNINFO@EQData@@@std@@@std@@@std@@@0@0AAIUbidirectional_iterator_tag@0@@Z 0303eed0 f i MQ2PluginHandler.obj
 0001:0003df40       ??$_Distance@V?$_Tree_iterator@V?$_Tree_val@U?$_Tree_simple_types@U?$pair@$$CBV?$basic_string@DU?$char_traits@D@std@@V?$allocator@D@2@@std@@PAU_SPAWNINFO@EQData@@@std@@@std@@@std@@@std@@I@std@@YAXV?$_Tree_iterator@V?$_Tree_val@U?$_Tree_simple_types@U?$pair@$$CBV?$basic_string@DU?$char_traits@D@std@@V?$allocator@D@2@@std@@PAU_SPAWNINFO@EQData@@@std@@@std@@@std@@@0@0AAI@Z 0303ef40 f i MQ2PluginHandler.obj
 0001:0003df60       ??$_Iter_cat@V?$_Tree_iterator@V?$_Tree_val@U?$_Tree_simple_types@U?$pair@$$CBV?$basic_string@DU?$char_traits@D@std@@V?$allocator@D@2@@std@@PAU_SPAWNINFO@EQData@@@std@@@std@@@std@@@std@@@std@@YA?AUbidirectional_iterator_tag@0@ABV?$_Tree_iterator@V?$_Tree_val@U?$_Tree_simple_types@U?$pair@$$CBV?$basic_string@DU?$char_traits@D@std@@V?$allocator@D@2@@std@@PAU_SPAWNINFO@EQData@@@std@@@std@@@std@@@0@@Z 0303ef60 f i MQ2PluginHandler.obj
 0001:0003df70       ??$_Kfn@$$CBV?$basic_string@DU?$char_traits@D@std@@V?$allocator@D@2@@std@@PAU_SPAWNINFO@EQData@@@?$_Tmap_traits@V?$basic_string@DU?$char_traits@D@std@@V?$allocator@D@2@@std@@PAU_SPAWNINFO@EQData@@U?$less@V?$basic_string@DU?$char_traits@D@std@@V?$allocator@D@2@@std@@@2@V?$allocator@U?$pair@$$CBV?$basic_string@DU?$char_traits@D@std@@V?$allocator@D@2@@std@@PAU_SPAWNINFO@EQData@@@std@@@2@$0A@@std@@SAABV?$basic_string@DU?$char_traits@D@std@@V?$allocator@D@2@@1@ABU?$pair@$$CBV?$basic_string@DU?$char_traits@D@std@@V?$allocator@D@2@@std@@PAU_SPAWNINFO@EQData@@@1@@Z 0303ef70 f i MQ2PluginHandler.obj
 0001:0003df80       ??$forward@AAV?$_Tree_iterator@V?$_Tree_val@U?$_Tree_simple_types@U?$pair@$$CBV?$basic_string@DU?$char_traits@D@std@@V?$allocator@D@2@@std@@PAU_SPAWNINFO@EQData@@@std@@@std@@@std@@@std@@@std@@YAAAV?$_Tree_iterator@V?$_Tree_val@U?$_Tree_simple_types@U?$pair@$$CBV?$basic_string@DU?$char_traits@D@std@@V?$allocator@D@2@@std@@PAU_SPAWNINFO@EQData@@@std@@@std@@@std@@@0@AAV10@@Z 0303ef80 f i MQ2PluginHandler.obj
 0001:0003df90       ??E?$_Tree_iterator@V?$_Tree_val@U?$_Tree_simple_types@U?$pair@$$CBV?$basic_string@DU?$char_traits@D@std@@V?$allocator@D@2@@std@@PAU_SPAWNINFO@EQData@@@std@@@std@@@std@@@std@@QAEAAV01@XZ 0303ef90 f i MQ2PluginHandler.obj
 0001:0003dfa0       ?_Eqrange@?$_Tree@V?$_Tmap_traits@V?$basic_string@DU?$char_traits@D@std@@V?$allocator@D@2@@std@@PAU_SPAWNINFO@EQData@@U?$less@V?$basic_string@DU?$char_traits@D@std@@V?$allocator@D@2@@std@@@2@V?$allocator@U?$pair@$$CBV?$basic_string@DU?$char_traits@D@std@@V?$allocator@D@2@@std@@PAU_SPAWNINFO@EQData@@@std@@@2@$0A@@std@@@std@@IAE?AU?$pair@V?$_Tree_iterator@V?$_Tree_val@U?$_Tree_simple_types@U?$pair@$$CBV?$basic_string@DU?$char_traits@D@std@@V?$allocator@D@2@@std@@PAU_SPAWNINFO@EQData@@@std@@@std@@@std@@@std@@V12@@2@ABV?$basic_string@DU?$char_traits@D@std@@V?$allocator@D@2@@2@@Z 0303efa0 f i MQ2PluginHandler.obj
 0001:0003e1d0       ?_Getcomp@?$_Tree_comp@$0A@V?$_Tmap_traits@V?$basic_string@DU?$char_traits@D@std@@V?$allocator@D@2@@std@@PAU_SPAWNINFO@EQData@@U?$less@V?$basic_string@DU?$char_traits@D@std@@V?$allocator@D@2@@std@@@2@V?$allocator@U?$pair@$$CBV?$basic_string@DU?$char_traits@D@std@@V?$allocator@D@2@@std@@PAU_SPAWNINFO@EQData@@@std@@@2@$0A@@std@@@std@@QBE?AU?$less@V?$basic_string@DU?$char_traits@D@std@@V?$allocator@D@2@@std@@@2@XZ 0303f1d0 f i MQ2PluginHandler.obj
 0001:0003e1e0       ?_Key@?$_Tree@V?$_Tmap_traits@V?$basic_string@DU?$char_traits@D@std@@V?$allocator@D@2@@std@@PAU_SPAWNINFO@EQData@@U?$less@V?$basic_string@DU?$char_traits@D@std@@V?$allocator@D@2@@std@@@2@V?$allocator@U?$pair@$$CBV?$basic_string@DU?$char_traits@D@std@@V?$allocator@D@2@@std@@PAU_SPAWNINFO@EQData@@@std@@@2@$0A@@std@@@std@@IBEABV?$basic_string@DU?$char_traits@D@std@@V?$allocator@D@2@@2@PAU?$_Tree_node@U?$pair@$$CBV?$basic_string@DU?$char_traits@D@std@@V?$allocator@D@2@@std@@PAU_SPAWNINFO@EQData@@@std@@PAX@2@@Z 0303f1e0 f i MQ2PluginHandler.obj
 0001:0003e1f0       ?_Kfn@?$_Tree@V?$_Tmap_traits@V?$basic_string@DU?$char_traits@D@std@@V?$allocator@D@2@@std@@PAU_SPAWNINFO@EQData@@U?$less@V?$basic_string@DU?$char_traits@D@std@@V?$allocator@D@2@@std@@@2@V?$allocator@U?$pair@$$CBV?$basic_string@DU?$char_traits@D@std@@V?$allocator@D@2@@std@@PAU_SPAWNINFO@EQData@@@std@@@2@$0A@@std@@@std@@IBEABV?$basic_string@DU?$char_traits@D@std@@V?$allocator@D@2@@2@ABU?$pair@$$CBV?$basic_string@DU?$char_traits@D@std@@V?$allocator@D@2@@std@@PAU_SPAWNINFO@EQData@@@2@@Z 0303f1f0 f i MQ2PluginHandler.obj
 0001:0003e200       ?equal_range@?$_Tree@V?$_Tmap_traits@V?$basic_string@DU?$char_traits@D@std@@V?$allocator@D@2@@std@@PAU_SPAWNINFO@EQData@@U?$less@V?$basic_string@DU?$char_traits@D@std@@V?$allocator@D@2@@std@@@2@V?$allocator@U?$pair@$$CBV?$basic_string@DU?$char_traits@D@std@@V?$allocator@D@2@@std@@PAU_SPAWNINFO@EQData@@@std@@@2@$0A@@std@@@std@@QAE?AU?$pair@V?$_Tree_iterator@V?$_Tree_val@U?$_Tree_simple_types@U?$pair@$$CBV?$basic_string@DU?$char_traits@D@std@@V?$allocator@D@2@@std@@PAU_SPAWNINFO@EQData@@@std@@@std@@@std@@@std@@V12@@2@ABV?$basic_string@DU?$char_traits@D@std@@V?$allocator@D@2@@2@@Z 0303f200 f i MQ2PluginHandler.obj
 0001:0003e220       ?erase@?$_Tree@V?$_Tmap_traits@V?$basic_string@DU?$char_traits@D@std@@V?$allocator@D@2@@std@@PAU_SPAWNINFO@EQData@@U?$less@V?$basic_string@DU?$char_traits@D@std@@V?$allocator@D@2@@std@@@2@V?$allocator@U?$pair@$$CBV?$basic_string@DU?$char_traits@D@std@@V?$allocator@D@2@@std@@PAU_SPAWNINFO@EQData@@@std@@@2@$0A@@std@@@std@@QAEIABV?$basic_string@DU?$char_traits@D@std@@V?$allocator@D@2@@2@@Z 0303f220 f i MQ2PluginHandler.obj
 0001:0003e270       _InitializeMQ2Pulse        0303f270 f   MQ2Pulse.obj
 0001:0003e2c0       _ShutdownMQ2Pulse          0303f2c0 f   MQ2Pulse.obj
 0001:0003e320       ?DoNextCommand@@YAHXZ      0303f320 f   MQ2Pulse.obj
 0001:0003e4f0       ?Pulse@@YAXXZ              0303f4f0 f   MQ2Pulse.obj
 0001:0003ec00       ?Heartbeat@@YAXXZ          0303fc00 f   MQ2Pulse.obj
 0001:0003ee00       ?Trampoline_ProcessGameEvents@@YAHXZ 0303fe00 f   MQ2Pulse.obj
 0001:0003ee20       ?Detour_ProcessGameEvents@@YAHXZ 0303fe20 f   MQ2Pulse.obj
 0001:0003ee30       ?EnterZone_Trampoline@CEverQuestHook@@QAEXPAX@Z 0303fe30 f   MQ2Pulse.obj
 0001:0003ee50       ?SetGameState_Trampoline@CEverQuestHook@@QAEXK@Z 0303fe50 f   MQ2Pulse.obj
 0001:0003ee70       ?EnterZone_Detour@CEverQuestHook@@QAEXPAX@Z 0303fe70 f i MQ2Pulse.obj
 0001:0003eea0       ?SetGameState_Detour@CEverQuestHook@@QAEXK@Z 0303fea0 f i MQ2Pulse.obj
 0001:0003ef10       _InitializeMQ2Spawns       0303ff10 f   MQ2Spawns.obj
 0001:0003f200       _ShutdownMQ2Spawns         03040200 f   MQ2Spawns.obj
 0001:0003f2e0       _ProcessPendingGroundItems 030402e0 f   MQ2Spawns.obj
 0001:0003f340       _UpdateMQ2SpawnSort        03040340 f   MQ2Spawns.obj
 0001:0003f4b0       _SetNameSpriteState        030404b0 f   MQ2Spawns.obj
 0001:0003f690       _IsTargetable              03040690 f   MQ2Spawns.obj
 0001:0003fc60       _CaptionColorCmd           03040c60 f   MQ2Spawns.obj
 0001:00040030       ?AddGroundItem@@YAXXZ      03041030 f   MQ2Spawns.obj
 0001:00040080       ?RemoveGroundItem@@YAXPAU_GROUNDITEM@EQData@@@Z 03041080 f   MQ2Spawns.obj
 0001:00040100       ?FreeItemList_Trampoline@EQItemListHook@@QAEXXZ 03041100 f   MQ2Spawns.obj
 0001:00040120       ?AddItem_Trampoline@EQItemListHook@@QAEXPAU_GROUNDITEM@EQData@@@Z 03041120 f   MQ2Spawns.obj
 0001:00040140       ?DeleteItem_Trampoline@EQItemListHook@@QAEXPAU_GROUNDITEM@EQData@@@Z 03041140 f   MQ2Spawns.obj
 0001:00040160       ?SetNameSpriteTint@@YAXPAU_SPAWNINFO@EQData@@@Z 03041160 f   MQ2Spawns.obj
 0001:000403f0       ?EQPlayer_Trampoline@EQPlayerHook@@QAEXKKKKKKK@Z 030413f0 f   MQ2Spawns.obj
 0001:00040410       ?dEQPlayer_Trampoline@EQPlayerHook@@QAEXXZ 03041410 f   MQ2Spawns.obj
 0001:00040430       ?SetNameSpriteState_Trampoline@EQPlayerHook@@QAEH_N@Z 03041430 f   MQ2Spawns.obj
 0001:00040450       ?SetNameSpriteTint_Trampoline@EQPlayerHook@@QAE_NXZ 03041450 f   MQ2Spawns.obj
 0001:00040470       ?IsTargetable@EQPlayerHook@@QAE_NXZ 03041470 f   MQ2Spawns.obj
 0001:00040480       ?CanSetName@CActorEx@@QAE_NK@Z 03041480 f   MQ2Spawns.obj
 0001:00040490       ?SetNameColor@CActorEx@@QAEXAAK@Z 03041490 f   MQ2Spawns.obj
 0001:000404a0       ?ChangeBoneStringSprite@CActorEx@@QAEXHHPAD@Z 030414a0 f   MQ2Spawns.obj
 0001:000404b0       ?UpdateSpawnCaptions@@YAXXZ 030414b0 f   MQ2Spawns.obj
 0001:00040520       ?AddItem_Detour@EQItemListHook@@QAEXPAU_GROUNDITEM@EQData@@@Z 03041520 f i MQ2Spawns.obj
 0001:00040540       ?DeleteItem_Detour@EQItemListHook@@QAEXPAU_GROUNDITEM@EQData@@@Z 03041540 f i MQ2Spawns.obj
 0001:00040560       ?EQPlayer_Detour@EQPlayerHook@@QAEXKKKKKKK@Z 03041560 f i MQ2Spawns.obj
 0001:000405a0       ?EQPlayer_ExtraDetour@EQPlayerHook@@QAEXPAU_SPAWNINFO@EQData@@@Z 030415a0 f i MQ2Spawns.obj
 0001:000405d0       ?FreeItemList_Detour@EQItemListHook@@QAEXXZ 030415d0 f i MQ2Spawns.obj
 0001:00040600       ?SetNameSpriteState_Detour@EQPlayerHook@@QAEH_N@Z 03041600 f i MQ2Spawns.obj
 0001:00040630       ?SetNameSpriteTint_Detour@EQPlayerHook@@QAE_NXZ 03041630 f i MQ2Spawns.obj
 0001:00040650       ?dEQPlayer_Detour@EQPlayerHook@@QAEXXZ 03041650 f i MQ2Spawns.obj
 0001:000406b0       _GetParentWnd              030416b0 f   MQ2Utilities.obj
 0001:000406e0       _WriteChatf                030416e0 f   MQ2Utilities.obj
 0001:00040730       _ConvertCR                 03041730 f   MQ2Utilities.obj
 0001:00040780       _FixStringTable            03041780 f   MQ2Utilities.obj
 0001:000407d0       _DebugSpew                 030417d0 f   MQ2Utilities.obj
 0001:00040840       _DebugSpewAlways           03041840 f   MQ2Utilities.obj
 0001:00040920       _DebugSpewNoFile           03041920 f   MQ2Utilities.obj
 0001:00040980       _GetNextArg                03041980 f   MQ2Utilities.obj
 0001:00040a50       _GetArg                    03041a50 f   MQ2Utilities.obj
 0001:00040b60       _GetEQPath                 03041b60 f   MQ2Utilities.obj
 0001:00040bc0       _AppendCXStr               03041bc0 f   MQ2Utilities.obj
 0001:00040bd0       _SetCXStr                  03041bd0 f   MQ2Utilities.obj
 0001:00040be0       _GetCXStr                  03041be0 f   MQ2Utilities.obj
 0001:00040c70       _MQToSTML                  03041c70 f   MQ2Utilities.obj
 0001:00040ff0       _StripMQChat               03041ff0 f   MQ2Utilities.obj
 0001:00041040       _STMLToPlainText           03042040 f   MQ2Utilities.obj
 0001:000411d0       _GetSubFromLine            030421d0 f   MQ2Utilities.obj
 0001:00041230       _GetFilenameFromFullPath   03042230 f   MQ2Utilities.obj
 0001:00041280       _CompareTimes              03042280 f   MQ2Utilities.obj
 0001:000412c0       _AddFilter                 030422c0 f   MQ2Utilities.obj
 0001:00041330       _DefaultFilters            03042330 f   MQ2Utilities.obj
 0001:00041520       _ConvertHotkeyNameToKeyName 03042520 f   MQ2Utilities.obj
 0001:00041580       _ConvertItemTags           03042580 f   MQ2Utilities.obj
 0001:000415a0       _ParseKeyCombo             030425a0 f   MQ2Utilities.obj
 0001:000416e0       _DescribeKeyCombo          030426e0 f   MQ2Utilities.obj
 0001:00041790       _FindInvSlotForContents    03042790 f   MQ2Utilities.obj
 0001:000418b0       _FindInvSlot               030428b0 f   MQ2Utilities.obj
 0001:000419f0       _FindNextInvSlot           030429f0 f   MQ2Utilities.obj
 0001:00041a50       _FindMappableCommand       03042a50 f   MQ2Utilities.obj
 0001:00041aa0       _GetLanguageIDByName       03042aa0 f   MQ2Utilities.obj
 0001:00041d50       _GetSpellNameByID          03042d50 f   MQ2Utilities.obj
 0001:00041d80       _GetSpellByName            03042d80 f   MQ2Utilities.obj
 0001:000423c0       _GetLightForSpawn          030433c0 f   MQ2Utilities.obj
 0001:000423f0       _GetSpellDuration          030433f0 f   MQ2Utilities.obj
 0001:00042630       _GetDeityTeamByID          03043630 f   MQ2Utilities.obj
 0001:00042690       _ConColor                  03043690 f   MQ2Utilities.obj
 0001:00042720       _GetGuildByID              03043720 f   MQ2Utilities.obj
 0001:00042770       _GetGuildIDByName          03043770 f   MQ2Utilities.obj
 0001:00042830       _GetEnviroContainer        03043830 f   MQ2Utilities.obj
 0001:00042850       _FindContainerForContents  03043850 f   MQ2Utilities.obj
 0001:000428a0       _FindSpeed                 030438a0 f   MQ2Utilities.obj
 0001:000428e0       _IsNamed                   030438e0 f   MQ2Utilities.obj
 0001:00042af0       _GetItemLinkHash           03043af0 f   MQ2Utilities.obj
 0001:00042b10       _GetItemLink               03043b10 f   MQ2Utilities.obj
 0001:00042b70       _GetLoginName              03043b70 f   MQ2Utilities.obj
 0001:00042c50       _DistanceToPoint           03043c50 f   MQ2Utilities.obj
 0001:00042ca0       _ShowSpellSlotInfo         03043ca0 f   MQ2Utilities.obj
 0001:0004a210       _SlotValueCalculate        0304b210 f   MQ2Utilities.obj
 0001:0004acd0       _GetGameDate               0304bcd0 f   MQ2Utilities.obj
 0001:0004ad30       _GetGameTime               0304bd30 f   MQ2Utilities.obj
 0001:0004ad90       _SyntaxError               0304bd90 f   MQ2Utilities.obj
 0001:0004ae80       _MacroError                0304be80 f   MQ2Utilities.obj
 0001:0004afe0       _FatalError                0304bfe0 f   MQ2Utilities.obj
 0001:0004b120       _MQ2DataError              0304c120 f   MQ2Utilities.obj
 0001:0004b2a0       _DisplayOverlayText        0304c2a0 f   MQ2Utilities.obj
 0001:0004b300       _GetShortBuffID            0304c300 f   MQ2Utilities.obj
 0001:0004b340       _GetBuffID                 0304c340 f   MQ2Utilities.obj
 0001:0004b380       _GetLDoNTheme              0304c380 f   MQ2Utilities.obj
 0001:0004b3d0       _BuffStackTest             0304c3d0 f   MQ2Utilities.obj
 0001:0004b590       _GetItemTimer              0304c590 f   MQ2Utilities.obj
 0001:0004b5d0       _GetItemContentsBySlotID   0304c5d0 f   MQ2Utilities.obj
 0001:0004b640       _GetItemContentsByName     0304c640 f   MQ2Utilities.obj
 0001:0004b780       _LoH_HT_Ready              0304c780 f   MQ2Utilities.obj
 0001:0004b7b0       _LoadCfgFile               0304c7b0 f   MQ2Utilities.obj
 0001:0004b990       _GetFriendlyNameForGroundItem 0304c990 f   MQ2Utilities.obj
 0001:0004baa0       _ClearSearchSpawn          0304caa0 f   MQ2Utilities.obj
 0001:0004baf0       _NthNearestSpawn           0304caf0 f   MQ2Utilities.obj
 0001:0004bcb0       _CountMatchingSpawns       0304ccb0 f   MQ2Utilities.obj
 0001:0004bd30       _SearchThroughSpawns       0304cd30 f   MQ2Utilities.obj
 0001:0004be10       _SpawnMatchesSearch        0304ce10 f   MQ2Utilities.obj
 0001:0004c470       _ParseSearchSpawnArgs      0304d470 f   MQ2Utilities.obj
 0001:0004d060       _ParseSearchSpawn          0304e060 f   MQ2Utilities.obj
 0001:0004d130       _FormatSearchSpawn         0304e130 f   MQ2Utilities.obj
 0001:0004d8a0       _IsPCNear                  0304e8a0 f   MQ2Utilities.obj
 0001:0004d930       _IsInGroup                 0304e930 f   MQ2Utilities.obj
 0001:0004d9f0       _IsInRaid                  0304e9f0 f   MQ2Utilities.obj
 0001:0004da90       _IsAlert                   0304ea90 f   MQ2Utilities.obj
 0001:0004db30       _GetAlert                  0304eb30 f   MQ2Utilities.obj
 0001:0004db60       _AddNewAlertList           0304eb60 f   MQ2Utilities.obj
 0001:0004dba0       _FreeAlerts                0304eba0 f   MQ2Utilities.obj
 0001:0004dc50       _GetClosestAlert           0304ec50 f   MQ2Utilities.obj
 0001:0004dd00       _CheckAlertForRecursion    0304ed00 f   MQ2Utilities.obj
 0001:0004de60       _WriteFilterNames          0304ee60 f   MQ2Utilities.obj
 0001:0004df10       _SetDisplaySWhoFilter      0304ef10 f   MQ2Utilities.obj
 0001:0004dfe0       _RewriteSubstitutions      0304efe0 f   MQ2Utilities.obj
 0001:0004e030       _RewriteAliases            0304f030 f   MQ2Utilities.obj
 0001:0004e080       _FindSpellListByName       0304f080 f   MQ2Utilities.obj
 0001:0004e0d0       _StateHeightMultiplier     0304f0d0 f   MQ2Utilities.obj
 0001:0004e130       _thrMsgBox@4               0304f130 f   MQ2Utilities.obj
 0001:0004e160       ?SuperWhoDisplay@@YAXPAU_SPAWNINFO@EQData@@PAU_SEARCHSPAWN@MQ2Internal@@K@Z 0304f160 f   MQ2Utilities.obj
 0001:0004e470       _pWHOSORTCompare           0304f470 f   MQ2Utilities.obj
 0001:0004e6c0       ?SuperWhoDisplay@@YAXPAU_SPAWNINFO@EQData@@K@Z 0304f6c0 f   MQ2Utilities.obj
 0001:0004f4b0       _GetFullZone               030504b0 f   MQ2Utilities.obj
 0001:0004f510       _GetZoneID                 03050510 f   MQ2Utilities.obj
 0001:0004f580       _GetShortZone              03050580 f   MQ2Utilities.obj
 0001:0004f5d0       _CleanupName               030505d0 f   MQ2Utilities.obj
 0001:0004f7b0       _DistanceToSpawn3D         030507b0 f   MQ2Utilities.obj
 0001:0004f810       _EstimatedDistanceToSpawn  03050810 f   MQ2Utilities.obj
 0001:0004f8b0       _FreeAlertList             030508b0 f   MQ2Utilities.obj
 0001:0004f8f0       _PlayerHasAAAbility        030508f0 f   MQ2Utilities.obj
 0001:0004f930       _GetAAIndexByName          03050930 f   MQ2Utilities.obj
 0001:0004f9a0       _GetAAIndexByID            030509a0 f   MQ2Utilities.obj
 0001:0004f9f0       _GetSkillIDFromName        030509f0 f   MQ2Utilities.obj
 0001:0004fa40       _InHoverState              03050a40 f   MQ2Utilities.obj
 0001:0004fa60       _GetGameState              03050a60 f   MQ2Utilities.obj
 0001:0004fa80       _GetMeleeRange             03050a80 f   MQ2Utilities.obj
 0001:0004fb30       _GetSpellGemTimer          03050b30 f   MQ2Utilities.obj
 0001:0004fb70       _HasExpansion              03050b70 f   MQ2Utilities.obj
 0001:0004fb90       _AttackRanged              03050b90 f   MQ2Utilities.obj
 0001:0004fbc0       _UseAbility                03050bc0 f   MQ2Utilities.obj
 0001:0004fde0       _Calculate                 03050de0 f   MQ2Utilities.obj
 0001:0004ff20       ?StrReplaceSection@@YAXPADK0@Z 03050f20 f   MQ2Utilities.obj
 0001:0004ff80       ?Flavorator@@YAXPAD@Z      03050f80 f   MQ2Utilities.obj
 0001:00050070       ?ClearSearchItem@@YAXAAU_SEARCHITEM@MQ2Internal@@@Z 03051070 f   MQ2Utilities.obj
 0001:00050090       ?ItemMatchesSearch@@YAHAAU_SEARCHITEM@MQ2Internal@@PAU_CONTENTS@EQData@@@Z 03051090 f   MQ2Utilities.obj
 0001:000502f0       ?SearchThroughItems@@YAHAAU_SEARCHITEM@MQ2Internal@@PAPAU_CONTENTS@EQData@@PAK@Z 030512f0 f   MQ2Utilities.obj
 0001:000504c0       ?GetSpellEffectName@@YAPADJPAD@Z 030514c0 f   MQ2Utilities.obj
 0001:00050ce0       ?EvaluateRPN@@YAHPAU_CalcOp@@HAAN@Z 03051ce0 f   MQ2Utilities.obj
 0001:00051180       ?FastCalculate@@YAHPADAAN@Z 03052180 f   MQ2Utilities.obj
 0001:000520f0       _GetItemFromContents       030530f0 f   MQ2Utilities.obj
 0001:00052110       ??0?$CIndex@PAU_MQRANK@MQ2Internal@@@MQ2Internal@@QAE@XZ 03053110 f i MQ2Utilities.obj
 0001:00052130       ??0?$CIndex@PAU_SPAWNINFO@EQData@@@MQ2Internal@@QAE@XZ 03053130 f i MQ2Utilities.obj
 0001:00052150       ??1?$CIndex@PAU_MQRANK@MQ2Internal@@@MQ2Internal@@QAE@XZ 03053150 f i MQ2Utilities.obj
 0001:00052190       ??1?$CIndex@PAU_SPAWNINFO@EQData@@@MQ2Internal@@QAE@XZ 03053190 f i MQ2Utilities.obj
 0001:000521d0       ??A?$CIndex@PAU_MQRANK@MQ2Internal@@@MQ2Internal@@QAEAAPAU_MQRANK@1@K@Z 030531d0 f i MQ2Utilities.obj
 0001:000521e0       ??A?$CIndex@PAU_SPAWNINFO@EQData@@@MQ2Internal@@QAEAAPAU_SPAWNINFO@EQData@@K@Z 030531e0 f i MQ2Utilities.obj
 0001:000521f0       ??Y?$CIndex@PAU_MQRANK@MQ2Internal@@@MQ2Internal@@QAEAAPAU_MQRANK@1@AAPAU21@@Z 030531f0 f i MQ2Utilities.obj
 0001:00052250       ??Y?$CIndex@PAU_SPAWNINFO@EQData@@@MQ2Internal@@QAEAAPAU_SPAWNINFO@EQData@@AAPAU23@@Z 03053250 f i MQ2Utilities.obj
 0001:000522b0       ?Cleanup@?$CIndex@PAU_MQRANK@MQ2Internal@@@MQ2Internal@@QAEXXZ 030532b0 f i MQ2Utilities.obj
 0001:000522f0       ?GetUnused@?$CIndex@PAU_MQRANK@MQ2Internal@@@MQ2Internal@@QAEKXZ 030532f0 f i MQ2Utilities.obj
 0001:00052340       ?GetUnused@?$CIndex@PAU_SPAWNINFO@EQData@@@MQ2Internal@@QAEKXZ 03053340 f i MQ2Utilities.obj
 0001:00052390       ?Resize@?$CIndex@PAU_MQRANK@MQ2Internal@@@MQ2Internal@@QAEXK@Z 03053390 f i MQ2Utilities.obj
 0001:00052440       ?Resize@?$CIndex@PAU_SPAWNINFO@EQData@@@MQ2Internal@@QAEXK@Z 03053440 f i MQ2Utilities.obj
 0001:000524f0       ?abs@@YAJJ@Z               030534f0 f i MQ2Utilities.obj
 0001:00052500       ?abs@@YAMM@Z               03053500 f i MQ2Utilities.obj
 0001:00052530       _InitializeMQ2Windows      03053530 f   MQ2Windows.obj
 0001:00053440       _ShutdownMQ2Windows        03054440 f   MQ2Windows.obj
 0001:000534e0       _RemoveXMLFile             030544e0 f   MQ2Windows.obj
 0001:00053560       _AddXMLFile                03054560 f   MQ2Windows.obj
 0001:00053750       _SendWndClick              03054750 f   MQ2Windows.obj
 0001:000539a0       _SendWndNotification       030549a0 f   MQ2Windows.obj
 0001:00053a80       _AddWindow                 03054a80 f   MQ2Windows.obj
 0001:00053c00       _RemoveWindow              03054c00 f   MQ2Windows.obj
 0001:00053cf0       _FindMQ2Window             03054cf0 f   MQ2Windows.obj
 0001:00053ed0       _SendListSelect            03054ed0 f   MQ2Windows.obj
 0001:00053fb0       _SendWndClick2             03054fb0 f   MQ2Windows.obj
 0001:000541f0       ?GenerateMQUI@@YA_NXZ      030551f0 f   MQ2Windows.obj
 0001:00054620       ?DestroyMQUI@@YAXXZ        03055620 f   MQ2Windows.obj
 0001:00054740       ?Init_Trampoline@CSidlInitHook@@QAEXPAVCXStr@EQClasses@@H@Z 03055740 f   MQ2Windows.obj
 0001:00054760       ?RemoveWnd_Trampoline@CXWndManagerHook@@QAEHPAVCXWnd@EQClasses@@@Z 03055760 f   MQ2Windows.obj
 0001:00054780       ?XMLRead_Trampoline@CXMLSOMDocumentBaseHook@@QAEHPAVCXStr@EQClasses@@000@Z 03055780 f   MQ2Windows.obj
 0001:000547a0       ?ListWindows@@YAXPAU_SPAWNINFO@EQData@@PAD@Z 030557a0 f   MQ2Windows.obj
 0001:00054900       ?WndNotify@@YAXPAU_SPAWNINFO@EQData@@PAD@Z 03055900 f   MQ2Windows.obj
 0001:00054ba0       ?ItemNotify@@YAXPAU_SPAWNINFO@EQData@@PAD@Z 03055ba0 f   MQ2Windows.obj
 0001:00055120       ?ListItemSlots@@YAXPAU_SPAWNINFO@EQData@@PAD@Z 03056120 f   MQ2Windows.obj
 0001:000551c0       ?SendTabSelect@@YA_NPAD0K@Z 030561c0 f   MQ2Windows.obj
 0001:00055270       ?RecurseAndListWindows@@YAHPAU_CSIDLWND@EQUIStructs@@@Z 03056270 f   MQ2Windows.obj
 0001:00055350       ??0?$CIndex@PAU_WindowInfo@@@MQ2Internal@@QAE@K@Z 03056350 f i MQ2Windows.obj
 0001:00055380       ??1?$CIndex@PAU_WindowInfo@@@MQ2Internal@@QAE@XZ 03056380 f i MQ2Windows.obj
 0001:000553c0       ??A?$CIndex@PAU_WindowInfo@@@MQ2Internal@@QAEAAPAU_WindowInfo@@K@Z 030563c0 f i MQ2Windows.obj
 0001:000553d0       ?Cleanup@?$CIndex@PAU_WindowInfo@@@MQ2Internal@@QAEXXZ 030563d0 f i MQ2Windows.obj
 0001:00055410       ?GetUnused@?$CIndex@PAU_WindowInfo@@@MQ2Internal@@QAEKXZ 03056410 f i MQ2Windows.obj
 0001:00055460       ?Init_Detour@CSidlInitHook@@QAEXPAVCXStr@EQClasses@@H@Z 03056460 f i MQ2Windows.obj
 0001:00055600       ?RemoveWnd_Detour@CXWndManagerHook@@QAEHPAVCXWnd@EQClasses@@@Z 03056600 f i MQ2Windows.obj
 0001:00055720       ?Resize@?$CIndex@PAU_WindowInfo@@@MQ2Internal@@QAEXK@Z 03056720 f i MQ2Windows.obj
 0001:000557d0       ?XMLRead@CXMLSOMDocumentBaseHook@@QAEHPAVCXStr@EQClasses@@000@Z 030567d0 f i MQ2Windows.obj
 0001:00055888       _PlaySoundA@12             03056888 f   winmm:WINMM.dll
 0001:0005588e       _InitializeCriticalSection@4 0305688e f   kernel32:KERNEL32.dll
 0001:00055894       _EnterCriticalSection@4    03056894 f   kernel32:KERNEL32.dll
 0001:0005589a       _LeaveCriticalSection@4    0305689a f   kernel32:KERNEL32.dll
 0001:000558a0       _DeleteCriticalSection@4   030568a0 f   kernel32:KERNEL32.dll
 0001:000558a6       _GetTickCount@0            030568a6 f   kernel32:KERNEL32.dll
 0001:000558ac       _GetModuleHandleA@4        030568ac f   kernel32:KERNEL32.dll
 0001:000558b2       _GetProcAddress@8          030568b2 f   kernel32:KERNEL32.dll
 0001:000558b8       _GetPrivateProfileStringA@24 030568b8 f   kernel32:KERNEL32.dll
 0001:000558be       _FindClose@4               030568be f   kernel32:KERNEL32.dll
 0001:000558c4       _FindFirstFileA@8          030568c4 f   kernel32:KERNEL32.dll
 0001:000558ca       _FindNextFileA@8           030568ca f   kernel32:KERNEL32.dll
 0001:000558d0       _Beep@8                    030568d0 f   kernel32:KERNEL32.dll
 0001:000558d6       _CreateThread@24           030568d6 f   kernel32:KERNEL32.dll
 0001:000558dc       _WritePrivateProfileStringA@16 030568dc f   kernel32:KERNEL32.dll
 0001:000558e2       _OutputDebugStringA@4      030568e2 f   kernel32:KERNEL32.dll
 0001:000558e8       _FileTimeToSystemTime@8    030568e8 f   kernel32:KERNEL32.dll
 0001:000558ee       _GetCurrentProcess@0       030568ee f   kernel32:KERNEL32.dll
 0001:000558f4       _VirtualProtectEx@20       030568f4 f   kernel32:KERNEL32.dll
 0001:000558fa       _WriteProcessMemory@20     030568fa f   kernel32:KERNEL32.dll
 0001:00055900       _Sleep@4                   03056900 f   kernel32:KERNEL32.dll
 0001:00055906       _GetModuleFileNameA@12     03056906 f   kernel32:KERNEL32.dll
 0001:0005590c       _GetPrivateProfileIntA@16  0305690c f   kernel32:KERNEL32.dll
 0001:00055912       _FreeLibrary@4             03056912 f   kernel32:KERNEL32.dll
 0001:00055918       _LoadLibraryA@4            03056918 f   kernel32:KERNEL32.dll
 0001:0005591e       _WritePrivateProfileSectionA@12 0305691e f   kernel32:KERNEL32.dll
 0001:00055924       _CallNextHookEx@16         03056924 f   user32:USER32.dll
 0001:0005592a       _MessageBoxA@16            0305692a f   user32:USER32.dll
 0001:00055930       _SetWindowsHookExA@16      03056930 f   user32:USER32.dll
 0001:00055936       _UnhookWindowsHookEx@4     03056936 f   user32:USER32.dll
 0001:0005593c       _ShellExecuteA@24          0305693c f   shell32:SHELL32.dll
 0001:00055942       ??0bad_alloc@std@@QAE@ABV01@@Z 03056942 f i libcpmt:xthrow.obj
 0001:0005595d       ??0bad_alloc@std@@QAE@XZ   0305695d f i libcpmt:xthrow.obj
 0001:00055983       ??0bad_function_call@std@@QAE@ABV01@@Z 03056983 f i libcpmt:xthrow.obj
 0001:0005599e       ??0bad_function_call@std@@QAE@PBD@Z 0305699e f i libcpmt:xthrow.obj
 0001:000559b2       ??0invalid_argument@std@@QAE@ABV01@@Z 030569b2 f i libcpmt:xthrow.obj
 0001:000559cd       ??0invalid_argument@std@@QAE@PBD@Z 030569cd f i libcpmt:xthrow.obj
 0001:000559ef       ??0length_error@std@@QAE@ABV01@@Z 030569ef f i libcpmt:xthrow.obj
 0001:00055a0a       ??0length_error@std@@QAE@PBD@Z 03056a0a f i libcpmt:xthrow.obj
 0001:00055a2c       ??0logic_error@std@@QAE@ABV01@@Z 03056a2c f i libcpmt:xthrow.obj
 0001:00055a47       ??0logic_error@std@@QAE@PBD@Z 03056a47 f i libcpmt:xthrow.obj
 0001:00055a63       ??0out_of_range@std@@QAE@ABV01@@Z 03056a63 f i libcpmt:xthrow.obj
 0001:00055a7e       ??0out_of_range@std@@QAE@PBD@Z 03056a7e f i libcpmt:xthrow.obj
 0001:00055aa0       ??0overflow_error@std@@QAE@ABV01@@Z 03056aa0 f i libcpmt:xthrow.obj
 0001:00055abb       ??0overflow_error@std@@QAE@PBD@Z 03056abb f i libcpmt:xthrow.obj
 0001:00055add       ??0regex_error@std@@QAE@ABV01@@Z 03056add f i libcpmt:xthrow.obj
 0001:00055b01       ??0regex_error@std@@QAE@W4error_type@regex_constants@1@@Z 03056b01 f i libcpmt:xthrow.obj
 0001:00055b31       ??0runtime_error@std@@QAE@ABV01@@Z 03056b31 f i libcpmt:xthrow.obj
 0001:00055b4c       ??0runtime_error@std@@QAE@PBD@Z 03056b4c f i libcpmt:xthrow.obj
 0001:00055b68       ??1bad_alloc@std@@UAE@XZ   03056b68 f i libcpmt:xthrow.obj
 0001:00055b73       ??1bad_function_call@std@@UAE@XZ 03056b73 f i libcpmt:xthrow.obj
 0001:00055b78       ??1invalid_argument@std@@UAE@XZ 03056b78 f i libcpmt:xthrow.obj
 0001:00055b7d       ??1length_error@std@@UAE@XZ 03056b7d f i libcpmt:xthrow.obj
 0001:00055b82       ??1logic_error@std@@UAE@XZ 03056b82 f i libcpmt:xthrow.obj
 0001:00055b87       ??1out_of_range@std@@UAE@XZ 03056b87 f i libcpmt:xthrow.obj
 0001:00055b8c       ??1overflow_error@std@@UAE@XZ 03056b8c f i libcpmt:xthrow.obj
 0001:00055b91       ??1regex_error@std@@UAE@XZ 03056b91 f i libcpmt:xthrow.obj
 0001:00055b96       ??1runtime_error@std@@UAE@XZ 03056b96 f i libcpmt:xthrow.obj
 0001:00055b9b       ??3@YAXPAX0@Z              03056b9b f i libcpmt:xthrow.obj
 0001:00055b9c       ??_Ebad_alloc@std@@UAEPAXI@Z 03056b9c f i libcpmt:xthrow.obj
 0001:00055b9c       ??_Gbad_alloc@std@@UAEPAXI@Z 03056b9c f i libcpmt:xthrow.obj
 0001:00055bc1       ??_Ebad_function_call@std@@UAEPAXI@Z 03056bc1 f i libcpmt:xthrow.obj
 0001:00055bc1       ??_Gbad_function_call@std@@UAEPAXI@Z 03056bc1 f i libcpmt:xthrow.obj
 0001:00055be0       ??_Einvalid_argument@std@@UAEPAXI@Z 03056be0 f i libcpmt:xthrow.obj
 0001:00055be0       ??_Ginvalid_argument@std@@UAEPAXI@Z 03056be0 f i libcpmt:xthrow.obj
 0001:00055bff       ??_Elength_error@std@@UAEPAXI@Z 03056bff f i libcpmt:xthrow.obj
 0001:00055bff       ??_Glength_error@std@@UAEPAXI@Z 03056bff f i libcpmt:xthrow.obj
 0001:00055c1e       ??_Glogic_error@std@@UAEPAXI@Z 03056c1e f i libcpmt:xthrow.obj
 0001:00055c1e       ??_Elogic_error@std@@UAEPAXI@Z 03056c1e f i libcpmt:xthrow.obj
 0001:00055c3d       ??_Gout_of_range@std@@UAEPAXI@Z 03056c3d f i libcpmt:xthrow.obj
 0001:00055c3d       ??_Eout_of_range@std@@UAEPAXI@Z 03056c3d f i libcpmt:xthrow.obj
 0001:00055c5c       ??_Goverflow_error@std@@UAEPAXI@Z 03056c5c f i libcpmt:xthrow.obj
 0001:00055c5c       ??_Eoverflow_error@std@@UAEPAXI@Z 03056c5c f i libcpmt:xthrow.obj
 0001:00055c7b       ??_Gregex_error@std@@UAEPAXI@Z 03056c7b f i libcpmt:xthrow.obj
 0001:00055c7b       ??_Eregex_error@std@@UAEPAXI@Z 03056c7b f i libcpmt:xthrow.obj
 0001:00055c9a       ??_Eruntime_error@std@@UAEPAXI@Z 03056c9a f i libcpmt:xthrow.obj
 0001:00055c9a       ??_Gruntime_error@std@@UAEPAXI@Z 03056c9a f i libcpmt:xthrow.obj
 0001:00055cb9       ?_Stringify@regex_error@std@@CAPBDW4error_type@regex_constants@2@@Z 03056cb9 f i libcpmt:xthrow.obj
 0001:00055d79       ?_Xbad_alloc@std@@YAXXZ    03056d79 f   libcpmt:xthrow.obj
 0001:00055daa       ?_Xbad_function_call@std@@YAXXZ 03056daa f   libcpmt:xthrow.obj
 0001:00055dce       ?_Xinvalid_argument@std@@YAXPBD@Z 03056dce f   libcpmt:xthrow.obj
 0001:00055dfc       ?_Xlength_error@std@@YAXPBD@Z 03056dfc f   libcpmt:xthrow.obj
 0001:00055e2a       ?_Xout_of_range@std@@YAXPBD@Z 03056e2a f   libcpmt:xthrow.obj
 0001:00055e58       ?_Xoverflow_error@std@@YAXPBD@Z 03056e58 f   libcpmt:xthrow.obj
 0001:00055e86       ?_Xregex_error@std@@YAXW4error_type@regex_constants@1@@Z 03056e86 f   libcpmt:xthrow.obj
 0001:00055ea6       ?_Xruntime_error@std@@YAXPBD@Z 03056ea6 f   libcpmt:xthrow.obj
 0001:00055ed4       ?what@bad_function_call@std@@UBEPBDXZ 03056ed4 f i libcpmt:xthrow.obj
 0001:00055eda       ?_Syserror_map@std@@YAPBDH@Z 03056eda f   libcpmt:syserror.obj
 0001:00055f04       ?_Winerror_map@std@@YAPBDH@Z 03056f04 f   libcpmt:syserror.obj
 0001:00055f2e       __get_purecall_handler     03056f2e f   LIBCMT:purevirt.obj
 0001:00055f3b       __purecall                 03056f3b f   LIBCMT:purevirt.obj
 0001:00055f5d       __set_purecall_handler     03056f5d f   LIBCMT:purevirt.obj
 0001:00055f82       ??2@YAPAXI@Z               03056f82 f   LIBCMT:new.obj
 0001:00055fd3       ??3@YAXPAX@Z               03056fd3 f   LIBCMT:delete.obj
 0001:00055fd8       ___onexitinit              03056fd8 f   LIBCMT:onexit.obj
 0001:00056007       __onexit                   03057007 f   LIBCMT:onexit.obj
 0001:00056103       _atexit                    03057103 f   LIBCMT:onexit.obj
 0001:00056120       _memmove                   03057120 f   LIBCMT:memmove.obj
 0001:00056764       __cabs                     03057764 f   LIBCMT:hypot.obj
 0001:00056783       __hypot                    03057783 f   LIBCMT:hypot.obj
 0001:000569ee       __CxxThrowException@8      030579ee f   LIBCMT:throw.obj
 0001:00056b21       ?_CallCatchBlock2@@YAPAXPAUEHRegistrationNode@@PBU_s_FuncInfo@@PAXHK@Z 03057b21 f   LIBCMT:_trnsctrl_.obj
 0001:00056b81       ?_CallMemberFunction0@@YGXPAX0@Z 03057b81 f   LIBCMT:_trnsctrl_.obj
 0001:00056b88       ?_CallMemberFunction1@@YGXPAX00@Z 03057b88 f   LIBCMT:_trnsctrl_.obj
 0001:00056b8f       ?_CallMemberFunction2@@YGXPAX00H@Z 03057b8f f   LIBCMT:_trnsctrl_.obj
 0001:00056b96       ?_CallSETranslator@@YAHPAUEHExceptionRecord@@PAUEHRegistrationNode@@PAX2PBU_s_FuncInfo@@H1@Z 03057b96 f   LIBCMT:_trnsctrl_.obj
 0001:00056c6d       ?_GetRangeOfTrysToCheck@@YAPBU_s_TryBlockMapEntry@@PBU_s_FuncInfo@@HHPAI1@Z 03057c6d f   LIBCMT:_trnsctrl_.obj
 0001:00056ceb       ?_JumpToContinuation@@YGXPAXPAUEHRegistrationNode@@@Z 03057ceb f   LIBCMT:_trnsctrl_.obj
 0001:00056d1d       ?_UnwindNestedFrames@@YGXPAUEHRegistrationNode@@PAUEHExceptionRecord@@@Z 03057d1d f   LIBCMT:_trnsctrl_.obj
 0001:00056d72       __CreateFrameInfo          03057d72 f   LIBCMT:_trnsctrl_.obj
 0001:00056d9c       __FindAndUnlinkFrame       03057d9c f   LIBCMT:_trnsctrl_.obj
 0001:00056dec       __IsExceptionObjectToBeDestroyed 03057dec f   LIBCMT:_trnsctrl_.obj
 0001:00056e15       ___CxxFrameHandler         03057e15 f   LIBCMT:_trnsctrl_.obj
 0001:00056e4b       ___CxxFrameHandler2        03057e4b f   LIBCMT:_trnsctrl_.obj
 0001:00056e81       ___CxxFrameHandler3        03057e81 f   LIBCMT:_trnsctrl_.obj
 0001:00056eb7       ___CxxLongjmpUnwind@4      03057eb7 f   LIBCMT:_trnsctrl_.obj
 0001:00056ee0       _memcpy                    03057ee0 f   LIBCMT:memcpy.obj
 0001:00057530       _memset                    03058530 f   LIBCMT:memset.obj
 0001:000575c0       ??0type_info@@AAE@ABV0@@Z  030585c0 f   LIBCMT:typinfo.obj
 0001:000575cb       ??1type_info@@UAE@XZ       030585cb f   LIBCMT:typinfo.obj
 0001:000575d9       ??4type_info@@AAEAAV0@ABV0@@Z 030585d9 f   LIBCMT:typinfo.obj
 0001:000575de       ??8type_info@@QBE_NABV0@@Z 030585de f   LIBCMT:typinfo.obj
 0001:000575fc       ??9type_info@@QBE_NABV0@@Z 030585fc f   LIBCMT:typinfo.obj
 0001:0005761b       ??_Etype_info@@UAEPAXI@Z   0305861b f i LIBCMT:typinfo.obj
 0001:0005761b       ??_Gtype_info@@UAEPAXI@Z   0305861b f i LIBCMT:typinfo.obj
 0001:0005763a       ?_name_internal_method@type_info@@QBEPBDPAU__type_info_node@@@Z 0305863a f   LIBCMT:typinfo.obj
 0001:0005764c       ?_type_info_dtor_internal_method@type_info@@QAEXXZ 0305864c f   LIBCMT:typinfo.obj
 0001:00057654       ?before@type_info@@QBE_NABV1@@Z 03058654 f   LIBCMT:typinfo.obj
 0001:00057674       ?name@type_info@@QBEPBDPAU__type_info_node@@@Z 03058674 f   LIBCMT:typinfo.obj
 0001:00057686       ?raw_name@type_info@@QBEPBDXZ 03058686 f   LIBCMT:typinfo.obj
 0001:0005768a       __fpmath                   0305868a f   LIBCMT:fpinit.obj
 0001:000576a1       ___setfflag                030586a1 f   LIBCMT:fpinit.obj
 0001:000576b4       __cfltcvt_init             030586b4 f   LIBCMT:fpinit.obj
 0001:00057714       __scprintf                 03058714 f   LIBCMT:sprintf.obj
 0001:00057727       __scprintf_l               03058727 f   LIBCMT:sprintf.obj
 0001:0005773e       __scprintf_p               0305873e f   LIBCMT:sprintf.obj
 0001:00057751       __scprintf_p_l             03058751 f   LIBCMT:sprintf.obj
 0001:00057768       __snprintf_s               03058768 f   LIBCMT:sprintf.obj
 0001:00057787       __snprintf_s_l             03058787 f   LIBCMT:sprintf.obj
 0001:000577a7       __sprintf_l                030587a7 f   LIBCMT:sprintf.obj
 0001:000577c1       __sprintf_p                030587c1 f   LIBCMT:sprintf.obj
 0001:000577dd       __sprintf_p_l              030587dd f   LIBCMT:sprintf.obj
 0001:000577fa       __sprintf_s_l              030587fa f   LIBCMT:sprintf.obj
 0001:00057817       _sprintf                   03058817 f   LIBCMT:sprintf.obj
 0001:0005789b       _sprintf_s                 0305889b f   LIBCMT:sprintf.obj
 0001:000578b7       _free                      030588b7 f   LIBCMT:free.obj
 0001:000578ef       __heap_alloc               030588ef f i LIBCMT:malloc.obj
 0001:0005792c       _malloc                    0305892c f   LIBCMT:malloc.obj
 0001:000579c0       _strstr                    030589c0 f   LIBCMT:strstr.obj
 0001:00057c23       ??0_LocaleUpdate@@QAE@PAUlocaleinfo_struct@@@Z 03058c23 f i LIBCMT:_ctype.obj
 0001:00057cab       ??1_LocaleUpdate@@QAE@XZ   03058cab f i LIBCMT:_ctype.obj
 0001:00057cb9       ?GetLocaleT@_LocaleUpdate@@QAEPAUlocaleinfo_struct@@XZ 03058cb9 f i LIBCMT:_ctype.obj
 0001:00057cbc       ___isascii                 03058cbc f i LIBCMT:_ctype.obj
 0001:00057ccc       ___iscsym                  03058ccc f i LIBCMT:_ctype.obj
 0001:00057cec       ___iscsymf                 03058cec f i LIBCMT:_ctype.obj
 0001:00057d09       ___toascii                 03058d09 f i LIBCMT:_ctype.obj
 0001:00057d14       __isalnum_l                03058d14 f i LIBCMT:_ctype.obj
 0001:00057d6c       __isalpha_l                03058d6c f i LIBCMT:_ctype.obj
 0001:00057dc4       __isblank_l                03058dc4 f i LIBCMT:_ctype.obj
 0001:00057e1e       __iscntrl_l                03058e1e f i LIBCMT:_ctype.obj
 0001:00057e70       __iscsym_l                 03058e70 f i LIBCMT:_ctype.obj
 0001:00057e91       __iscsymf_l                03058e91 f i LIBCMT:_ctype.obj
 0001:00057eb2       __isdigit_l                03058eb2 f i LIBCMT:_ctype.obj
 0001:00057f04       __isgraph_l                03058f04 f i LIBCMT:_ctype.obj
 0001:00057f5c       __islower_l                03058f5c f i LIBCMT:_ctype.obj
 0001:00057fae       __isprint_l                03058fae f i LIBCMT:_ctype.obj
 0001:00058006       __ispunct_l                03059006 f i LIBCMT:_ctype.obj
 0001:00058058       __isspace_l                03059058 f i LIBCMT:_ctype.obj
 0001:000580aa       __isupper_l                030590aa f i LIBCMT:_ctype.obj
 0001:000580fc       __isxdigit_l               030590fc f i LIBCMT:_ctype.obj
 0001:00058154       _isalnum                   03059154 f i LIBCMT:_ctype.obj
 0001:00058181       _isalpha                   03059181 f i LIBCMT:_ctype.obj
 0001:000581ae       _isblank                   030591ae f i LIBCMT:_ctype.obj
 0001:000581e3       _iscntrl                   030591e3 f i LIBCMT:_ctype.obj
 0001:0005820e       _isdigit                   0305920e f i LIBCMT:_ctype.obj
 0001:00058239       _isgraph                   03059239 f i LIBCMT:_ctype.obj
 0001:00058266       _islower                   03059266 f i LIBCMT:_ctype.obj
 0001:00058291       _isprint                   03059291 f i LIBCMT:_ctype.obj
 0001:000582be       _ispunct                   030592be f i LIBCMT:_ctype.obj
 0001:000582e9       _isspace                   030592e9 f i LIBCMT:_ctype.obj
 0001:00058314       _isupper                   03059314 f i LIBCMT:_ctype.obj
 0001:0005833f       _isxdigit                  0305933f f i LIBCMT:_ctype.obj
 0001:00058370       _strncpy                   03059370 f   LIBCMT:strncpy.obj
 0001:000584a0       __chkstk                   030594a0 f   LIBCMT:chkstk.obj
 0001:000584a0       __alloca_probe             030594a0 f   LIBCMT:chkstk.obj
 0001:000584cb       __mkdir                    030594cb f   LIBCMT:mkdir.obj
 0001:00058510       _strchr                    03059510 f   LIBCMT:strchr.obj
 0001:0005857e       ___from_strstr_to_strchr   0305957e     LIBCMT:strchr.obj
 0001:0005863b       ___ascii_stricmp           0305963b f   LIBCMT:stricmp.obj
 0001:00058674       _stricmp                   03059674 f   LIBCMT:stricmp.obj
 0001:00058674       __stricmp                  03059674 f   LIBCMT:stricmp.obj
 0001:000586bb       __stricmp_l                030596bb f   LIBCMT:stricmp.obj
 0001:00058750       ?_strlwr_s_l_stat@@YAHPADIPAUlocaleinfo_struct@@@Z 03059750 f   LIBCMT:strlwr.obj
 0001:000588c5       __MallocaIsSizeInRange     030598c5 f i LIBCMT:strlwr.obj
 0001:000588d6       __MarkAllocaS              030598d6 f i LIBCMT:strlwr.obj
 0001:000588ea       __freea                    030598ea f i LIBCMT:strlwr.obj
 0001:00058908       __strlwr                   03059908 f   LIBCMT:strlwr.obj
 0001:00058908       _strlwr                    03059908 f   LIBCMT:strlwr.obj
 0001:00058963       __strlwr_l                 03059963 f   LIBCMT:strlwr.obj
 0001:0005897b       __strlwr_s                 0305997b f   LIBCMT:strlwr.obj
 0001:00058990       __strlwr_s_l               03059990 f   LIBCMT:strlwr.obj
 0001:000589d0       _strncat                   030599d0 f   LIBCMT:strncat.obj
 0001:00058b10       _strncmp                   03059b10 f   LIBCMT:strncmp.obj
 0001:00058b88       _strtok                    03059b88 f   LIBCMT:strtok.obj
 0001:00058c4f       __fclose_nolock            03059c4f f   LIBCMT:fclose.obj
 0001:00058cbb       _fclose                    03059cbb f   LIBCMT:fclose.obj
 0001:00058d32       __fsopen                   03059d32 f   LIBCMT:fopen.obj
 0001:00058df6       _fopen                     03059df6 f   LIBCMT:fopen.obj
 0001:00058e0b       _fopen_s                   03059e0b f   LIBCMT:fopen.obj
 0001:00058e50       __fprintf_l                03059e50 f   LIBCMT:fprintf.obj
 0001:00058e6a       __fprintf_p                03059e6a f   LIBCMT:fprintf.obj
 0001:00058e83       __fprintf_p_l              03059e83 f   LIBCMT:fprintf.obj
 0001:00058e9d       __fprintf_s_l              03059e9d f   LIBCMT:fprintf.obj
 0001:00058eb7       _fprintf                   03059eb7 f   LIBCMT:fprintf.obj
 0001:00058fc9       _fprintf_s                 03059fc9 f   LIBCMT:fprintf.obj
 0001:00058fe2       _fputs                     03059fe2 f   LIBCMT:fputs.obj
 0001:000590ec       ___STRINGTOLD              0305a0ec f   LIBCMT:atof.obj
 0001:00059125       ___strgtold12              0305a125 f   LIBCMT:atof.obj
 0001:00059167       __atof_l                   0305a167 f   LIBCMT:atof.obj
 0001:00059205       _atof                      0305a205 f   LIBCMT:atof.obj
 0001:00059216       __atoi64                   0305a216 f   LIBCMT:atox.obj
 0001:0005922a       __atoi64_l                 0305a22a f   LIBCMT:atox.obj
 0001:00059241       __atoi_l                   0305a241 f   LIBCMT:atox.obj
 0001:0005924a       __atol_l                   0305a24a f   LIBCMT:atox.obj
 0001:00059261       __atoll_l                  0305a261 f   LIBCMT:atox.obj
 0001:00059278       _atoi                      0305a278 f   LIBCMT:atox.obj
 0001:00059281       _atol                      0305a281 f   LIBCMT:atox.obj
 0001:00059295       _atoll                     0305a295 f   LIBCMT:atox.obj
 0001:000592b0       _atan2                     0305a2b0 f   LIBCMT:87ctriga.obj
 0001:000592ba       __CIatan2                  0305a2ba f   LIBCMT:87ctriga.obj
 0001:000592d0       __libm_sse2_sqrt_precise   0305a2d0 f   LIBCMT:sqrt_sse2_precise.obj
 0001:000593d0       __invoke_watson_if_error   0305a3d0 f i LIBCMT:loctim64.obj
 0001:000593f0       __localtime64              0305a3f0 f   LIBCMT:loctim64.obj
 0001:00059415       __localtime64_s            0305a415 f   LIBCMT:loctim64.obj
 0001:0005968f       __time64                   0305a68f f   LIBCMT:time64.obj
 0001:000596e0       __access                   0305a6e0 f   LIBCMT:access.obj
 0001:000596f6       __access_s                 0305a6f6 f   LIBCMT:access.obj
 0001:00059740       __sscanf_l                 0305a740 f   LIBCMT:sscanf.obj
 0001:0005975f       __sscanf_s_l               0305a75f f   LIBCMT:sscanf.obj
 0001:0005977e       _sscanf                    0305a77e f   LIBCMT:sscanf.obj
 0001:0005979c       _sscanf_s                  0305a79c f   LIBCMT:sscanf.obj
 0001:0005982d       _vsscanf                   0305a82d f   LIBCMT:sscanf.obj
 0001:0005984a       _vsscanf_s                 0305a84a f   LIBCMT:sscanf.obj
 0001:00059867       _rand                      0305a867 f   LIBCMT:rand.obj
 0001:00059888       _srand                     0305a888 f   LIBCMT:rand.obj
 0001:00059898       ___inittime                0305a898 f   LIBCMT:clock.obj
 0001:000598c3       _clock                     0305a8c3 f   LIBCMT:clock.obj
 0001:00059900       __ftoui3                   0305a900 f   LIBCMT:ftol3.obj
 0001:0005990f       __ftoul3                   0305a90f f   LIBCMT:ftol3.obj
 0001:0005991e       __ftol3                    0305a91e f   LIBCMT:ftol3.obj
 0001:0005992b       __ftol3_NaN                0305a92b f   LIBCMT:ftol3.obj
 0001:00059943       __ftol3_work               0305a943 f   LIBCMT:ftol3.obj
 0001:000599c9       __ftol3_common             0305a9c9 f   LIBCMT:ftol3.obj
 0001:00059a8b       __ftol3_arg_error          0305aa8b f   LIBCMT:ftol3.obj
 0001:00059a9d       __ftol3_except             0305aa9d f   LIBCMT:ftol3.obj
 0001:00059ae1       __dtoui3                   0305aae1 f   LIBCMT:ftol3.obj
 0001:00059af0       __dtoul3                   0305aaf0 f   LIBCMT:ftol3.obj
 0001:00059aff       __dtol3                    0305aaff f   LIBCMT:ftol3.obj
 0001:00059b0c       __dtol3_NaN                0305ab0c f   LIBCMT:ftol3.obj
 0001:00059b29       __dtol3_work               0305ab29 f   LIBCMT:ftol3.obj
 0001:00059c0e       __ultod3                   0305ac0e f   LIBCMT:ftol3.obj
 0001:00059c9f       __ltod3                    0305ac9f f   LIBCMT:ftol3.obj
 0001:00059cd0       __libm_sse2_acos_precise   0305acd0 f   LIBCMT:acos_sse2_precise.obj
 0001:0005a1f0       __libm_sse2_asin_precise   0305b1f0 f   LIBCMT:asin_sse2_precise.obj
 0001:0005a740       __libm_sse2_atan_precise   0305b740 f   LIBCMT:atan_sse2_precise.obj
 0001:0005aa50       __libm_sse2_cos_precise    0305ba50 f   LIBCMT:cos_sse2_precise.obj
 0001:0005ac10       __libm_sse2_sin_precise    0305bc10 f   LIBCMT:sin_sse2_precise.obj
 0001:0005ade0       __libm_sse2_tan_precise    0305bde0 f   LIBCMT:tan_sse2_precise.obj
 0001:0005b050       __toupper                  0305c050 f   LIBCMT:toupper.obj
 0001:0005b05b       __toupper_l                0305c05b f   LIBCMT:toupper.obj
 0001:0005b19f       _toupper                   0305c19f f   LIBCMT:toupper.obj
 0001:0005b1cb       __tolower                  0305c1cb f   LIBCMT:tolower.obj
 0001:0005b1d6       __tolower_l                0305c1d6 f   LIBCMT:tolower.obj
 0001:0005b319       _tolower                   0305c319 f   LIBCMT:tolower.obj
 0001:0005b345       _feof                      0305c345 f   LIBCMT:feoferr.obj
 0001:0005b36b       _ferror                    0305c36b f   LIBCMT:feoferr.obj
 0001:0005b391       _fgets                     0305c391 f   LIBCMT:fgets.obj
 0001:0005b4d0       _strrchr                   0305c4d0 f   LIBCMT:strrchr.obj
 0001:0005b607       ___copy_path_to_wide_string 0305c607 f   LIBCMT:crt0dat.obj
 0001:0005b6b9       ___copy_to_char            0305c6b9 f   LIBCMT:crt0dat.obj
 0001:0005b76e       ___crtCorExitProcess       0305c76e f   LIBCMT:crt0dat.obj
 0001:0005b7a2       ___crtExitProcess          0305c7a2 f   LIBCMT:crt0dat.obj
 0001:0005b7b8       ___freeCrtMemory           0305c7b8 f   LIBCMT:crt0dat.obj
 0001:0005b8c5       __amsg_exit                0305c8c5 f   LIBCMT:crt0dat.obj
 0001:0005b8e1       __c_exit                   0305c8e1 f   LIBCMT:crt0dat.obj
 0001:0005b8f0       __cexit                    0305c8f0 f   LIBCMT:crt0dat.obj
 0001:0005b8ff       __cinit                    0305c8ff f   LIBCMT:crt0dat.obj
 0001:0005b983       __exit                     0305c983 f   LIBCMT:crt0dat.obj
 0001:0005b997       __exit_app                 0305c997 f   LIBCMT:crt0dat.obj
 0001:0005b9a5       __get_pgmptr               0305c9a5 f   LIBCMT:crt0dat.obj
 0001:0005b9d4       __get_wpgmptr              0305c9d4 f   LIBCMT:crt0dat.obj
 0001:0005ba03       __init_pointers            0305ca03 f   LIBCMT:crt0dat.obj
 0001:0005ba71       __initterm_e               0305ca71 f   LIBCMT:crt0dat.obj
 0001:0005ba93       __lockexit                 0305ca93 f   LIBCMT:crt0dat.obj
 0001:0005ba9c       __unlockexit               0305ca9c f   LIBCMT:crt0dat.obj
 0001:0005bbd4       _exit                      0305cbd4 f   LIBCMT:crt0dat.obj
 0001:0005bbf0       _qsort                     0305cbf0 f   LIBCMT:qsort.obj
 0001:0005bff7       __vscprintf                0305cff7 f   LIBCMT:vsprintf.obj
 0001:0005c011       __vscprintf_helper         0305d011 f   LIBCMT:vsprintf.obj
 0001:0005c06d       __vscprintf_l              0305d06d f   LIBCMT:vsprintf.obj
 0001:0005c088       __vscprintf_p              0305d088 f   LIBCMT:vsprintf.obj
 0001:0005c0a2       __vscprintf_p_l            0305d0a2 f   LIBCMT:vsprintf.obj
 0001:0005c0bd       __vsprintf_l               0305d0bd f   LIBCMT:vsprintf.obj
 0001:0005c141       _vsprintf                  0305d141 f   LIBCMT:vsprintf.obj
 0001:0005c1c7       __i64toa                   0305d1c7 f   LIBCMT:xtoa.obj
 0001:0005c1f7       __itoa                     0305d1f7 f   LIBCMT:xtoa.obj
 0001:0005c1f7       _itoa                      0305d1f7 f   LIBCMT:xtoa.obj
 0001:0005c222       __ltoa                     0305d222 f   LIBCMT:xtoa.obj
 0001:0005c24c       __ui64toa                  0305d24c f   LIBCMT:xtoa.obj
 0001:0005c267       __ultoa                    0305d267 f   LIBCMT:xtoa.obj
 0001:0005c2d0       __libm_sse2_pow_precise    0305d2d0 f   LIBCMT:pow_sse2_precise.obj
 0001:0005ce40       _ceil                      0305de40 f   LIBCMT:ceil_pentium4.obj
 0001:0005ce80       __ceil_pentium4            0305de80 f   LIBCMT:ceil_pentium4.obj
 0001:0005cf5d       __get_printf_count_output  0305df5d f   LIBCMT:printf.obj
 0001:0005cf72       __printf_l                 0305df72 f   LIBCMT:printf.obj
 0001:0005cf89       __printf_p                 0305df89 f   LIBCMT:printf.obj
 0001:0005cf9f       __printf_p_l               0305df9f f   LIBCMT:printf.obj
 0001:0005cfb6       __printf_s_l               0305dfb6 f   LIBCMT:printf.obj
 0001:0005cfcd       __set_printf_count_output  0305dfcd f   LIBCMT:printf.obj
 0001:0005cff5       _printf                    0305dff5 f   LIBCMT:printf.obj
 0001:0005d0a4       _printf_s                  0305e0a4 f   LIBCMT:printf.obj
 0001:0005d0ba       __unlink                   0305e0ba f   LIBCMT:unlink.obj
 0001:0005d0c3       _remove                    0305e0c3 f   LIBCMT:unlink.obj
 0001:0005d105       __CRT_INIT@12              0305e105 f   LIBCMT:dllcrt0.obj
 0001:0005d277       __DllMainCRTStartup@12     0305e277 f   LIBCMT:dllcrt0.obj
 0001:0005d3a8       ___DllXcptFilter           0305e3a8 f   LIBCMT:dllcrt0.obj
 0001:0005d3d0       _strlen                    0305e3d0 f   LIBCMT:strlen.obj
 0001:0005d45b       ??0__non_rtti_object@std@@QAE@ABV01@@Z 0305e45b f   LIBCMT:stdexcpt.obj
 0001:0005d476       ??0__non_rtti_object@std@@QAE@PBD@Z 0305e476 f   LIBCMT:stdexcpt.obj
 0001:0005d491       ??0bad_cast@std@@QAE@ABV01@@Z 0305e491 f   LIBCMT:stdexcpt.obj
 0001:0005d4ac       ??0bad_cast@std@@QAE@PBD@Z 0305e4ac f   LIBCMT:stdexcpt.obj
 0001:0005d4c8       ??0bad_typeid@std@@QAE@ABV01@@Z 0305e4c8 f   LIBCMT:stdexcpt.obj
 0001:0005d4e3       ??0bad_typeid@std@@QAE@PBD@Z 0305e4e3 f   LIBCMT:stdexcpt.obj
 0001:0005d4ff       ??0exception@std@@QAE@ABQBD@Z 0305e4ff f   LIBCMT:stdexcpt.obj
 0001:0005d524       ??0exception@std@@QAE@ABQBDH@Z 0305e524 f   LIBCMT:stdexcpt.obj
 0001:0005d53f       ??0exception@std@@QAE@ABV01@@Z 0305e53f f   LIBCMT:stdexcpt.obj
 0001:0005d562       ??0exception@std@@QAE@XZ   0305e562 f   LIBCMT:stdexcpt.obj
 0001:0005d573       ??1__non_rtti_object@std@@UAE@XZ 0305e573 f   LIBCMT:stdexcpt.obj
 0001:0005d57e       ??1bad_cast@std@@UAE@XZ    0305e57e f   LIBCMT:stdexcpt.obj
 0001:0005d589       ??1bad_typeid@std@@UAE@XZ  0305e589 f   LIBCMT:stdexcpt.obj
 0001:0005d594       ??1exception@std@@UAE@XZ   0305e594 f   LIBCMT:stdexcpt.obj
 0001:0005d59f       ??4exception@std@@QAEAAV01@ABV01@@Z 0305e59f f   LIBCMT:stdexcpt.obj
 0001:0005d5d2       ??_G__non_rtti_object@std@@UAEPAXI@Z 0305e5d2 f i LIBCMT:stdexcpt.obj
 0001:0005d5d2       ??_E__non_rtti_object@std@@UAEPAXI@Z 0305e5d2 f i LIBCMT:stdexcpt.obj
 0001:0005d5f7       ??_Gbad_cast@std@@UAEPAXI@Z 0305e5f7 f i LIBCMT:stdexcpt.obj
 0001:0005d5f7       ??_Ebad_cast@std@@UAEPAXI@Z 0305e5f7 f i LIBCMT:stdexcpt.obj
 0001:0005d61c       ??_Gbad_typeid@std@@UAEPAXI@Z 0305e61c f i LIBCMT:stdexcpt.obj
 0001:0005d61c       ??_Ebad_typeid@std@@UAEPAXI@Z 0305e61c f i LIBCMT:stdexcpt.obj
 0001:0005d641       ??_Eexception@std@@UAEPAXI@Z 0305e641 f i LIBCMT:stdexcpt.obj
 0001:0005d641       ??_Gexception@std@@UAEPAXI@Z 0305e641 f i LIBCMT:stdexcpt.obj
 0001:0005d666       ?_Copy_str@exception@std@@AAEXPBD@Z 0305e666 f   LIBCMT:stdexcpt.obj
 0001:0005d6a4       ?_Tidy@exception@std@@AAEXXZ 0305e6a4 f   LIBCMT:stdexcpt.obj
 0001:0005d6c0       ?what@exception@std@@UBEPBDXZ 0305e6c0 f   LIBCMT:stdexcpt.obj
 0001:0005d6cd       @__security_check_cookie@4 0305e6cd f   LIBCMT:secchk.obj
 0001:0005d6dc       __EH_epilog3               0305e6dc f   LIBCMT:ehprolg3.obj
 0001:0005d6f0       __EH_epilog3_GS            0305e6f0 f   LIBCMT:ehprolg3.obj
 0001:0005d6ff       __EH_epilog3_catch_GS      0305e6ff f   LIBCMT:ehprolg3.obj
 0001:0005d70e       __EH_prolog3               0305e70e f   LIBCMT:ehprolg3.obj
 0001:0005d741       __EH_prolog3_GS            0305e741 f   LIBCMT:ehprolg3.obj
 0001:0005d777       __EH_prolog3_catch         0305e777 f   LIBCMT:ehprolg3.obj
 0001:0005d7ad       __EH_prolog3_catch_GS      0305e7ad f   LIBCMT:ehprolg3.obj
 0001:0005d7f0       _strcpy                    0305e7f0 f   LIBCMT:strcat.obj
 0001:0005d800       _strcat                    0305e800 f   LIBCMT:strcat.obj
 0001:0005d8f0       __global_unwind2           0305e8f0 f   LIBCMT:exsup.obj
 0001:0005d955       __local_unwind2            0305e955 f   LIBCMT:exsup.obj
 0001:0005d9d9       __abnormal_termination     0305e9d9 f   LIBCMT:exsup.obj
 0001:0005d9fc       __NLG_Notify1              0305e9fc f   LIBCMT:exsup.obj
 0001:0005da05       __NLG_Notify               0305ea05 f   LIBCMT:exsup.obj
 0001:0005da1c       __NLG_Dispatch2            0305ea1c     LIBCMT:exsup.obj
 0001:0005da1c       __NLG_Dispatch             0305ea1c     LIBCMT:exsup.obj
 0001:0005da24       __NLG_Call                 0305ea24 f   LIBCMT:exsup.obj
 0001:0005da26       __NLG_Return2              0305ea26     LIBCMT:exsup.obj
 0001:0005da38       __except_handler3          0305ea38 f   LIBCMT:exsup3.obj
 0001:0005db36       __seh_longjmp_unwind@4     0305eb36 f   LIBCMT:exsup3.obj
 0001:0005db60       _strcmp                    0305eb60 f   LIBCMT:strcmp.obj
 0001:0005dd09       _memcmp                    0305ed09 f   LIBCMT:memcmp.obj
 0001:00060c1d       __set_abort_behavior       03061c1d f   LIBCMT:abort.obj
 0001:00060c3c       _abort                     03061c3c f   LIBCMT:abort.obj
 0001:00060c7f       ___getlocaleinfo           03061c7f f   LIBCMT:inithelp.obj
 0001:00060e58       __initp_misc_purevirt      03061e58 f   LIBCMT:inithelp.obj
 0001:00060e65       ?_query_new_handler@@YAP6AHI@ZXZ 03061e65 f   LIBCMT:handler.obj
 0001:00060e72       ?_set_new_handler@@YAP6AHI@ZH@Z 03061e72 f   LIBCMT:handler.obj
 0001:00060e7b       ?_set_new_handler@@YAP6AHI@ZP6AHI@Z@Z 03061e7b f   LIBCMT:handler.obj
 0001:00060eb0       __callnewh                 03061eb0 f   LIBCMT:handler.obj
 0001:00060ed6       __initp_heap_handler       03061ed6 f   LIBCMT:handler.obj
 0001:00060ee3       __msize                    03061ee3 f   LIBCMT:msize.obj
 0001:00060f14       __calloc_crt               03061f14 f   LIBCMT:crtheap.obj
 0001:00060f5c       __malloc_crt               03061f5c f   LIBCMT:crtheap.obj
 0001:00060fa3       __realloc_crt              03061fa3 f   LIBCMT:crtheap.obj
 0001:00060fed       __recalloc_crt             03061fed f   LIBCMT:crtheap.obj
 0001:0006103b       __set_malloc_crt_max_wait  0306203b f   LIBCMT:crtheap.obj
 0001:0006104e       _wait_a_bit                0306204e f i LIBCMT:crtheap.obj
 0001:00061080       __SEH_prolog4              03062080 f   LIBCMT:sehprolg4.obj
 0001:000610c5       __SEH_epilog4              030620c5 f   LIBCMT:sehprolg4.obj
 0001:00061120       __except_handler4          03062120 f   LIBCMT:chandler4.obj
 0001:000612b4       ___isa_available_init      030622b4 f   LIBCMT:cpu_disp.obj
 0001:00061430       __CIsqrt                   03062430 f   LIBCMT:sqrt.obj
 0001:00061444       _sqrt                      03062444     LIBCMT:sqrt.obj
 0001:000614ea       __add_exp                  030624ea f   LIBCMT:util.obj
 0001:00061519       __decomp                   03062519 f   LIBCMT:util.obj
 0001:000615eb       __get_exp                  030625eb f   LIBCMT:util.obj
 0001:00061604       __set_bexp                 03062604 f   LIBCMT:util.obj
 0001:0006162d       __set_exp                  0306262d f   LIBCMT:util.obj
 0001:0006165c       __sptype                   0306265c f   LIBCMT:util.obj
 0001:000616b7       __errcode                  030626b7 f   LIBCMT:fpexcept.obj
 0001:000616e9       __except1                  030626e9 f   LIBCMT:fpexcept.obj
 0001:000617b1       __except2                  030627b1 f   LIBCMT:fpexcept.obj
 0001:000618b1       __handle_exc               030628b1 f   LIBCMT:fpexcept.obj
 0001:00061a8f       __handle_qnan1             03062a8f f   LIBCMT:fpexcept.obj
 0001:00061adf       __handle_qnan2             03062adf f   LIBCMT:fpexcept.obj
 0001:00061b3f       __raise_exc                03062b3f f   LIBCMT:fpexcept.obj
 0001:00061b60       __raise_exc_ex             03062b60 f   LIBCMT:fpexcept.obj
 0001:00061e45       __raise_excf               03062e45 f   LIBCMT:fpexcept.obj
 0001:00061e66       __set_errno_from_matherr   03062e66 f   LIBCMT:fpexcept.obj
 0001:00061e93       __umatherr                 03062e93 f   LIBCMT:fpexcept.obj
 0001:00061f33       ___clrfp_sse2              03062f33 f   LIBCMT:fpctrl.obj
 0001:00061f54       ___ctrlfp_sse2             03062f54 f   LIBCMT:fpctrl.obj
 0001:00061f8d       ___fclrf_sse2              03062f8d f   LIBCMT:fpctrl.obj
 0001:00061faa       ___get_fpsr_sse2           03062faa f   LIBCMT:fpctrl.obj
 0001:00061fc6       ___set_fpsr_sse2           03062fc6 f   LIBCMT:fpctrl.obj
 0001:0006203c       ___set_statfp_sse2         0306303c f   LIBCMT:fpctrl.obj
 0001:00062055       ___statfp_sse2             03063055 f   LIBCMT:fpctrl.obj
 0001:0006206a       __clrfp                    0306306a f   LIBCMT:fpctrl.obj
 0001:0006207b       __ctrlfp                   0306307b f   LIBCMT:fpctrl.obj
 0001:000620a6       __set_statfp               030630a6 f   LIBCMT:fpctrl.obj
 0001:000620fe       __statfp                   030630fe f   LIBCMT:fpctrl.obj
 0001:0006210e       ___get_flsindex            0306310e f   LIBCMT:tidtable.obj
 0001:00062114       ___threadhandle            03063114 f   LIBCMT:tidtable.obj
 0001:0006211a       ___threadid                0306311a f   LIBCMT:tidtable.obj
 0001:00062120       __freefls@4                03063120 f   LIBCMT:tidtable.obj
 0001:00062255       __freeptd                  03063255 f   LIBCMT:tidtable.obj
 0001:0006228b       __getptd                   0306328b f   LIBCMT:tidtable.obj
 0001:000622a3       __getptd_noexit            030632a3 f   LIBCMT:tidtable.obj
 0001:00062312       __initptd                  03063312 f   LIBCMT:tidtable.obj
 0001:000623c5       __mtinit                   030633c5 f   LIBCMT:tidtable.obj
 0001:0006243b       __mtterm                   0306343b f   LIBCMT:tidtable.obj
 0001:00062460       __CallSettingFrame@12      03063460 f   LIBCMT:lowhelpr.obj
 0001:00062487       __NLG_Return               03063487     LIBCMT:lowhelpr.obj
 0001:000624ac       ?_inconsistency@@YAXXZ     030634ac f   LIBCMT:hooks.obj
 0001:000624e4       ?terminate@@YAXXZ          030634e4 f   LIBCMT:hooks.obj
 0001:00062518       ?unexpected@@YAXXZ         03063518 f   LIBCMT:hooks.obj
 0001:0006252b       __initp_eh_hooks           0306352b f   LIBCMT:hooks.obj
 0001:0006253c       ___DestructExceptionObject 0306353c f   LIBCMT:frame.obj
 0001:000625c7       ??0bad_exception@std@@QAE@ABV01@@Z 030635c7 f i LIBCMT:frame.obj
 0001:000625e2       ??0bad_exception@std@@QAE@PBD@Z 030635e2 f i LIBCMT:frame.obj
 0001:000625fe       ??1bad_exception@std@@UAE@XZ 030635fe f i LIBCMT:frame.obj
 0001:00062609       ??_Gbad_exception@std@@UAEPAXI@Z 03063609 f i LIBCMT:frame.obj
 0001:00062609       ??_Ebad_exception@std@@UAEPAXI@Z 03063609 f i LIBCMT:frame.obj
 0001:00062e76       ?__uncaught_exception@@YA_NXZ 03063e76 f   LIBCMT:frame.obj
 0001:00062e87       ?_is_exception_typeof@@YAHABVtype_info@@PAU_EXCEPTION_POINTERS@@@Z 03063e87 f   LIBCMT:frame.obj
 0001:00062f0e       __SetWinRTOutOfMemoryExceptionCallback 03063f0e f   LIBCMT:frame.obj
 0001:00062f1b       ___AdjustPointer           03063f1b f   LIBCMT:frame.obj
 0001:00062f40       ___BuildCatchObject        03063f40 f   LIBCMT:frame.obj
 0001:00062fce       ___BuildCatchObjectHelper  03063fce f   LIBCMT:frame.obj
 0001:00063190       ___CxxDetectRethrow        03064190 f   LIBCMT:frame.obj
 0001:000631df       ___CxxExceptionFilter      030641df f   LIBCMT:frame.obj
 0001:00063339       ___CxxQueryExceptionSize   03064339 f   LIBCMT:frame.obj
 0001:0006333d       ___CxxRegisterExceptionObject 0306433d f   LIBCMT:frame.obj
 0001:000633f4       ___CxxUnregisterExceptionObject 030643f4 f   LIBCMT:frame.obj
 0001:00063531       ___FrameUnwindFilter       03064531 f   LIBCMT:frame.obj
 0001:0006357f       ___FrameUnwindToState      0306457f f   LIBCMT:frame.obj
 0001:00063658       ___GetPlatformExceptionInfo 03064658 f   LIBCMT:frame.obj
 0001:000636ad       ___InternalCxxFrameHandler 030646ad f   LIBCMT:frame.obj
 0001:0006378e       ___TypeMatch               0306478e f   LIBCMT:frame.obj
 0001:000637f5       __VEC_memset               030647f5 f   LIBCMT:p4_memset.obj
 0001:000638bd       ?_Name_base@type_info@@CAPBDPBV1@PAU__type_info_node@@@Z 030648bd f   LIBCMT:typname.obj
 0001:000639ae       ?_Name_base_internal@type_info@@CAPBDPBV1@PAU__type_info_node@@@Z 030649ae f   LIBCMT:typname.obj
 0001:00063ab8       ?_Type_info_dtor@type_info@@CAXPAV1@@Z 03064ab8 f   LIBCMT:typname.obj
 0001:00063b29       ?_Type_info_dtor_internal@type_info@@CAXPAV1@@Z 03064b29 f   LIBCMT:typname.obj
 0001:00063b9a       ___clean_type_info_names_internal 03064b9a f   LIBCMT:typname.obj
 0001:00063bed       ___unDNameHelper           03064bed f   LIBCMT:typname.obj
 0001:00063c1b       __cfltcvt                  03064c1b f   LIBCMT:cvt.obj
 0001:00063c3c       __cfltcvt_l                03064c3c f   LIBCMT:cvt.obj
 0001:00063cc2       __cftoa                    03064cc2 f   LIBCMT:cvt.obj
 0001:00063ce0       __cftoa_l                  03064ce0 f   LIBCMT:cvt.obj
 0001:0006403c       __cftoe                    0306503c f   LIBCMT:cvt.obj
 0001:000641ab       __cftoe_l                  030651ab f   LIBCMT:cvt.obj
 0001:00064279       __cftof                    03065279 f   LIBCMT:cvt.obj
 0001:00064380       __cftof_l                  03065380 f   LIBCMT:cvt.obj
 0001:00064441       __cftog                    03065441 f   LIBCMT:cvt.obj
 0001:0006445f       __cftog_l                  0306545f f   LIBCMT:cvt.obj
 0001:0006455e       __cropzeros                0306555e f   LIBCMT:cvt.obj
 0001:0006456f       __cropzeros_l              0306556f f   LIBCMT:cvt.obj
 0001:000645ef       __fassign                  030655ef f   LIBCMT:cvt.obj
 0001:00064607       __fassign_l                03065607 f   LIBCMT:cvt.obj
 0001:00064649       __forcdecpt                03065649 f   LIBCMT:cvt.obj
 0001:0006465a       __forcdecpt_l              0306565a f   LIBCMT:cvt.obj
 0001:000646ce       __positive                 030656ce f   LIBCMT:cvt.obj
 0001:00064710       __setdefaultprecision      03065710 f   LIBCMT:fp8.obj
 0001:00064737       __initp_misc_cfltcvt_tab   03065737 f   LIBCMT:cmiscdat.obj
 0001:00064756       ?_invalid_parameter@@YAXPBG00II@Z 03065756 f   LIBCMT:invarg.obj
 0001:0006475b       ?_invoke_watson@@YAXPBG00II@Z 0306575b f   LIBCMT:invarg.obj
 0001:00064773       __call_reportfault         03065773 f   LIBCMT:invarg.obj
 0001:00064898       __get_invalid_parameter_handler 03065898 f   LIBCMT:invarg.obj
 0001:000648a5       __initp_misc_invarg        030658a5 f   LIBCMT:invarg.obj
 0001:000648b2       __invalid_parameter        030658b2 f   LIBCMT:invarg.obj
 0001:000648dd       __invalid_parameter_noinfo 030658dd f   LIBCMT:invarg.obj
 0001:000648ed       __invalid_parameter_noinfo_noreturn 030658ed f   LIBCMT:invarg.obj
 0001:00064908       __invoke_watson            03065908 f   LIBCMT:invarg.obj
 0001:00064933       __set_invalid_parameter_handler 03065933 f   LIBCMT:invarg.obj
 0001:00064958       __flsbuf                   03065958 f   LIBCMT:_flsbuf.obj
 0001:00064aa7       __vsnprintf_c              03065aa7 f   LIBCMT:vsnprnc.obj
 0001:00064ace       __vsnprintf_c_l            03065ace f   LIBCMT:vsnprnc.obj
 0001:00064af6       __vsnprintf_helper         03065af6 f   LIBCMT:vsnprnc.obj
 0001:00064bc0       __vsnprintf_s              03065bc0 f   LIBCMT:vsnprnc.obj
 0001:00064bde       __vsnprintf_s_l            03065bde f   LIBCMT:vsnprnc.obj
 0001:00064cde       __vsprintf_p               03065cde f   LIBCMT:vsnprnc.obj
 0001:00064d05       __vsprintf_p_l             03065d05 f   LIBCMT:vsnprnc.obj
 0001:00064d2d       __vsprintf_s_l             03065d2d f   LIBCMT:vsnprnc.obj
 0001:00064da2       _vsprintf_s                03065da2 f   LIBCMT:vsnprnc.obj
 0001:00064dbd       __output_l                 03065dbd f   LIBCMT:output.obj
 0001:0006593d       _get_int64_arg             0306693d f i LIBCMT:output.obj
 0001:00065950       _get_int_arg               03066950 f i LIBCMT:output.obj
 0001:00065960       _get_short_arg             03066960 f i LIBCMT:output.obj
 0001:00065a5d       ___doserrno                03066a5d f   LIBCMT:dosmap.obj
 0001:00065a70       __dosmaperr                03066a70 f   LIBCMT:dosmap.obj
 0001:00065a91       __errno                    03066a91 f   LIBCMT:dosmap.obj
 0001:00065aa4       __get_doserrno             03066aa4 f   LIBCMT:dosmap.obj
 0001:00065ac7       __get_errno                03066ac7 f   LIBCMT:dosmap.obj
 0001:00065aea       __get_errno_from_oserr     03066aea f   LIBCMT:dosmap.obj
 0001:00065b2b       __set_doserrno             03066b2b f   LIBCMT:dosmap.obj
 0001:00065b4a       __set_errno                03066b4a f   LIBCMT:dosmap.obj
 0001:00065b69       __get_heap_handle          03066b69 f   LIBCMT:heapinit.obj
 0001:00065b6f       __heap_init                03066b6f f   LIBCMT:heapinit.obj
 0001:00065b84       __heap_term                03066b84 f   LIBCMT:heapinit.obj
 0001:00065b8c       __FF_MSGBANNER             03066b8c f   LIBCMT:crt0msg.obj
 0001:00065bc5       __GET_RTERRMSG             03066bc5 f   LIBCMT:crt0msg.obj
 0001:00065be9       __NMSG_WRITE               03066be9 f   LIBCMT:crt0msg.obj
 0001:00065da6       ___addlocaleref            03066da6 f   LIBCMT:localref.obj
 0001:00065e3b       ___freetlocinfo            03066e3b f   LIBCMT:localref.obj
 0001:00065f95       ___removelocaleref         03066f95 f   LIBCMT:localref.obj
 0001:00066035       ___updatetlocinfo          03067035 f   LIBCMT:localref.obj
 0001:000660b5       __updatetlocinfoEx_nolock  030670b5 f   LIBCMT:localref.obj
 0001:00066100       ___initmbctable            03067100 f   LIBCMT:mbctype.obj
 0001:000663b7       ___updatetmbcinfo          030673b7 f   LIBCMT:mbctype.obj
 0001:0006645d       __getmbcp                  0306745d f   LIBCMT:mbctype.obj
 0001:0006648e       __setmbcp                  0306748e f   LIBCMT:mbctype.obj
 0001:00066636       __setmbcp_nolock           03067636 f   LIBCMT:mbctype.obj
 0001:00066821       __isctype                  03067821 f   LIBCMT:isctype.obj
 0001:00066850       __isctype_l                03067850 f   LIBCMT:isctype.obj
 0001:00066901       ___init_dummy              03067901 f   LIBCMT:wsetloca.obj
 0001:00066904       __locterm                  03067904 f   LIBCMT:wsetloca.obj
 0001:00066956       ____setlc_active_func      03067956 f   LIBCMT:wsetloca.obj
 0001:0006695c       ____unguarded_readlc_active_add_func 0306795c f   LIBCMT:wsetloca.obj
 0001:00066962       ___copy_locale_name        03067962 f   LIBCMT:wsetloca.obj
 0001:000669c6       ___create_locale           030679c6 f   LIBCMT:wsetloca.obj
 0001:000669cf       ___free_locale             030679cf f   LIBCMT:wsetloca.obj
 0001:000669d4       ___get_current_locale      030679d4 f   LIBCMT:wsetloca.obj
 0001:000669d9       ___lc_lctowcs              030679d9 f   LIBCMT:wsetloca.obj
 0001:00066a47       ___lc_wcstolc              03067a47 f   LIBCMT:wsetloca.obj
 0001:00066b73       __configthreadlocale       03067b73 f   LIBCMT:wsetloca.obj
 0001:00066bf9       __create_locale            03067bf9 f   LIBCMT:wsetloca.obj
 0001:00066c5b       __expandlocale             03067c5b f   LIBCMT:wsetloca.obj
 0001:00066f52       __free_locale              03067f52 f   LIBCMT:wsetloca.obj
 0001:00067009       __get_current_locale       03068009 f   LIBCMT:wsetloca.obj
 0001:000670b8       __wcreate_locale           030680b8 f   LIBCMT:wsetloca.obj
 0001:0006718f       __wcscats                  0306818f f   LIBCMT:wsetloca.obj
 0001:000671ce       __wsetlocale               030681ce f   LIBCMT:wsetloca.obj
 0001:00067b10       __wmkdir                   03068b10 f   LIBCMT:wmkdir.obj
 0001:00067b41       _strcpy_s                  03068b41 f   LIBCMT:strcpy_s.obj
 0001:00067b96       _strnlen                   03068b96 f   LIBCMT:strlen_s.obj
 0001:00067dd5       ___crtLCMapStringA         03068dd5 f   LIBCMT:a_map.obj
 0001:00067e20       __alloca_probe_16          03068e20 f   LIBCMT:alloca16.obj
 0001:00067e36       __alloca_probe_8           03068e36     LIBCMT:alloca16.obj
 0001:00067e4c       ___raise_securityfailure   03068e4c f   LIBCMT:gs_report.obj
 0001:00067e89       ___report_gsfailure        03068e89 f   LIBCMT:gs_report.obj
 0001:00067f84       ___report_rangecheckfailure 03068f84 f   LIBCMT:gs_report.obj
 0001:00067f90       ___report_securityfailure  03068f90 f   LIBCMT:gs_report.obj
 0001:00068060       ___report_securityfailureEx 03069060 f   LIBCMT:gs_report.obj
 0001:00068176       __fileno                   03069176 f   LIBCMT:fileno.obj
 0001:0006819a       ___initstdio               0306919a f   LIBCMT:_file.obj
 0001:0006820d       ___endstdio                0306920d f   LIBCMT:_file.obj
 0001:00068234       ___iob_func                03069234 f   LIBCMT:_file.obj
 0001:0006823a       __lock_file                0306923a f   LIBCMT:_file.obj
 0001:00068279       __lock_file2               03069279 f   LIBCMT:_file.obj
 0001:000682a9       __unlock_file              030692a9 f   LIBCMT:_file.obj
 0001:000682e3       __unlock_file2             030692e3 f   LIBCMT:_file.obj
 0001:00068310       __close                    03069310 f   LIBCMT:close.obj
 0001:000683eb       __close_nolock             030693eb f   LIBCMT:close.obj
 0001:00068485       __freebuf                  03069485 f   LIBCMT:_freebuf.obj
 0001:000684b5       __fflush_nolock            030694b5 f   LIBCMT:fflush.obj
 0001:000684fb       __flush                    030694fb f   LIBCMT:fflush.obj
 0001:0006855f       __flushall                 0306955f f   LIBCMT:fflush.obj
 0001:00068568       _fflush                    03069568 f   LIBCMT:fflush.obj
 0001:000686a5       __getstream                030696a5 f   LIBCMT:stream.obj
 0001:000687c4       __openfile                 030697c4 f   LIBCMT:_open.obj
 0001:00068a40       __local_unwind4            03069a40 f   LIBCMT:exsup4.obj
 0001:00068b16       __seh_longjmp_unwind4@4    03069b16 f   LIBCMT:exsup4.obj
 0001:00068b32       @_EH4_CallFilterFunc@8     03069b32 f   LIBCMT:exsup4.obj
 0001:00068b49       @_EH4_TransferToHandler@8  03069b49 f   LIBCMT:exsup4.obj
 0001:00068b62       @_EH4_GlobalUnwind2@8      03069b62 f   LIBCMT:exsup4.obj
 0001:00068b7b       @_EH4_LocalUnwind@16       03069b7b f   LIBCMT:exsup4.obj
 0001:00068b92       __vfprintf_l               03069b92 f   LIBCMT:vfprintf.obj
 0001:00068bb0       __vfprintf_p               03069bb0 f   LIBCMT:vfprintf.obj
 0001:00068bcd       __vfprintf_p_l             03069bcd f   LIBCMT:vfprintf.obj
 0001:00068beb       __vfprintf_s_l             03069beb f   LIBCMT:vfprintf.obj
 0001:00068c09       _vfprintf                  03069c09 f   LIBCMT:vfprintf.obj
 0001:00068c26       _vfprintf_helper           03069c26 f   LIBCMT:vfprintf.obj
 0001:00068d37       _vfprintf_s                03069d37 f   LIBCMT:vfprintf.obj
 0001:00068d54       __ftbuf                    03069d54 f   LIBCMT:_sftbuf.obj
 0001:00068d85       __stbuf                    03069d85 f   LIBCMT:_sftbuf.obj
 0001:00068e2b       __ioinit                   03069e2b f   LIBCMT:ioinit.obj
 0001:000690df       __ioterm                   0306a0df f   LIBCMT:ioinit.obj
 0001:00069131       __fwrite_nolock            0306a131 f   LIBCMT:fwrite.obj
 0001:0006928a       _fwrite                    0306a28a f   LIBCMT:fwrite.obj
 0001:0006930c       __fltin2                   0306a30c f   LIBCMT:cfin.obj
 0001:000693b3       ___STRINGTOLD_L            0306a3b3 f   LIBCMT:strgtold.obj
 0001:0006940e       ___addl                    0306a40e f i LIBCMT:strgtold.obj
 0001:00069432       ___ld12mul                 0306a432 f i LIBCMT:strgtold.obj
 0001:000696fe       ___multtenpow12            0306a6fe f i LIBCMT:strgtold.obj
 0001:00069a51       ___shl_12                  0306aa51 f i LIBCMT:strgtold.obj
 0001:00069a82       ___shr_12                  0306aa82 f i LIBCMT:strgtold.obj
 0001:00069ab2       ___strgtold12_l            0306aab2 f   LIBCMT:strgtold.obj
 0001:0006a4ca       __strtof_l                 0306b4ca f   LIBCMT:strtoq.obj
 0001:0006a4ea       __strtoi64                 0306b4ea f   LIBCMT:strtoq.obj
 0001:0006a514       __strtoi64_l               0306b514 f   LIBCMT:strtoq.obj
 0001:0006a52f       __strtoimax_l              0306b52f f   LIBCMT:strtoq.obj
 0001:0006a538       __strtold_l                0306b538 f   LIBCMT:strtoq.obj
 0001:0006a541       __strtoll_l                0306b541 f   LIBCMT:strtoq.obj
 0001:0006a54a       __strtoui64                0306b54a f   LIBCMT:strtoq.obj
 0001:0006a574       __strtoui64_l              0306b574 f   LIBCMT:strtoq.obj
 0001:0006a58f       __strtoull_l               0306b58f f   LIBCMT:strtoq.obj
 0001:0006a598       __strtoumax_l              0306b598 f   LIBCMT:strtoq.obj
 0001:0006a5a1       _strtof                    0306b5a1 f   LIBCMT:strtoq.obj
 0001:0006a5c0       _strtoimax                 0306b5c0 f   LIBCMT:strtoq.obj
 0001:0006a5c9       _strtold                   0306b5c9 f   LIBCMT:strtoq.obj
 0001:0006a5d2       _strtoll                   0306b5d2 f   LIBCMT:strtoq.obj
 0001:0006a5db       _strtoull                  0306b5db f   LIBCMT:strtoq.obj
 0001:0006a5e4       _strtoumax                 0306b5e4 f   LIBCMT:strtoq.obj
 0001:0006a813       __strtol_l                 0306b813 f   LIBCMT:strtol.obj
 0001:0006a82e       __strtoul_l                0306b82e f   LIBCMT:strtol.obj
 0001:0006a849       _strtol                    0306b849 f   LIBCMT:strtol.obj
 0001:0006a873       _strtoul                   0306b873 f   LIBCMT:strtol.obj
 0001:0006a8bc       __fFATN2                   0306b8bc     LIBCMT:87triga.obj
 0001:0006a90c       __rtpiby2                  0306b90c     LIBCMT:87triga.obj
 0001:0006a950       __cintrindisp2             0306b950 f   LIBCMT:87cdisp.obj
 0001:0006a98e       __cintrindisp1             0306b98e f   LIBCMT:87cdisp.obj
 0001:0006a9cb       __ctrandisp2               0306b9cb f   LIBCMT:87cdisp.obj
 0001:0006ab5a       __ctrandisp1               0306bb5a f   LIBCMT:87cdisp.obj
 0001:0006ab8d       __fload                    0306bb8d f   LIBCMT:87cdisp.obj
 0001:0006abc9       ___libm_error_support      0306bbc9 f   LIBCMT:libm_error.obj
 0001:0006aeb1       ___libm_setusermatherr     0306beb1 f   LIBCMT:libm_error.obj
 0001:0006aedd       ___daylight                0306bedd f   LIBCMT:timeset.obj
 0001:0006aee3       ___dstbias                 0306bee3 f   LIBCMT:timeset.obj
 0001:0006aee9       ___timezone                0306bee9 f   LIBCMT:timeset.obj
 0001:0006aeef       ___tzname                  0306beef f   LIBCMT:timeset.obj
 0001:0006aef5       __get_daylight             0306bef5 f   LIBCMT:timeset.obj
 0001:0006af1f       __get_dstbias              0306bf1f f   LIBCMT:timeset.obj
 0001:0006af49       __get_timezone             0306bf49 f   LIBCMT:timeset.obj
 0001:0006af73       __get_tzname               0306bf73 f   LIBCMT:timeset.obj
 0001:0006b006       __gmtime64                 0306c006 f   LIBCMT:gmtime64.obj
 0001:0006b02b       __gmtime64_s               0306c02b f   LIBCMT:gmtime64.obj
 0001:0006b256       ___tzset                   0306c256 f   LIBCMT:tzset.obj
 0001:0006b2a6       __isindst                  0306c2a6 f   LIBCMT:tzset.obj
 0001:0006b4d4       __set_daylight             0306c4d4 f i LIBCMT:tzset.obj
 0001:0006b4e3       __set_dstbias              0306c4e3 f i LIBCMT:tzset.obj
 0001:0006b4f2       __set_timezone             0306c4f2 f i LIBCMT:tzset.obj
 0001:0006b501       __tzset                    0306c501 f   LIBCMT:tzset.obj
 0001:0006ba4f       ___getgmtimebuf            0306ca4f f   LIBCMT:gmtime.obj
 0001:0006ba84       __gmtime32                 0306ca84 f   LIBCMT:gmtime.obj
 0001:0006baa9       __gmtime32_s               0306caa9 f   LIBCMT:gmtime.obj
 0001:0006bbe0       __alldiv                   0306cbe0 f   LIBCMT:lldiv.obj
 0001:0006bc90       __allrem                   0306cc90 f   LIBCMT:llrem.obj
 0001:0006bd50       __aulldiv                  0306cd50 f   LIBCMT:ulldiv.obj
 0001:0006bdb8       __waccess                  0306cdb8 f   LIBCMT:waccess.obj
 0001:0006bdce       __waccess_s                0306cdce f   LIBCMT:waccess.obj
 0001:0006be6c       __INTRN_LOCALE_CONV        0306ce6c f i LIBCMT:input.obj
 0001:0006bf1e       __input_l                  0306cf1e f   LIBCMT:input.obj
 0001:0006d14e       __input_s_l                0306e14e f   LIBCMT:inputs.obj
 0001:0006e440       _acos                      0306f440 f   LIBCMT:acos.obj
 0001:0006e480       __CIacos                   0306f480 f   LIBCMT:acos.obj
 0001:0006e4bb       __CIacos_default           0306f4bb f   LIBCMT:acos.obj
 0001:0006e4cf       __acos_default             0306f4cf     LIBCMT:acos.obj
 0001:0006e590       _asin                      0306f590 f   LIBCMT:asin.obj
 0001:0006e5d0       __CIasin                   0306f5d0 f   LIBCMT:asin.obj
 0001:0006e60b       __CIasin_default           0306f60b f   LIBCMT:asin.obj
 0001:0006e61f       __asin_default             0306f61f     LIBCMT:asin.obj
 0001:0006e6e0       _atan                      0306f6e0 f   LIBCMT:atan.obj
 0001:0006e720       __CIatan                   0306f720 f   LIBCMT:atan.obj
 0001:0006e75b       __CIatan_default           0306f75b f   LIBCMT:atan.obj
 0001:0006e76f       __atan_default             0306f76f     LIBCMT:atan.obj
 0001:0006e800       _cos                       0306f800 f   LIBCMT:cos.obj
 0001:0006e840       __CIcos                    0306f840 f   LIBCMT:cos.obj
 0001:0006e87b       __CIcos_default            0306f87b f   LIBCMT:cos.obj
 0001:0006e88f       __cos_default              0306f88f     LIBCMT:cos.obj
 0001:0006e930       _sin                       0306f930 f   LIBCMT:sin.obj
 0001:0006e970       __CIsin                    0306f970 f   LIBCMT:sin.obj
 0001:0006e9ab       __CIsin_default            0306f9ab f   LIBCMT:sin.obj
 0001:0006e9bf       __sin_default              0306f9bf     LIBCMT:sin.obj
 0001:0006ea60       _tan                       0306fa60 f   LIBCMT:tan.obj
 0001:0006eaa0       __CItan                    0306faa0 f   LIBCMT:tan.obj
 0001:0006eadb       __CItan_default            0306fadb f   LIBCMT:tan.obj
 0001:0006eaef       __tan_default              0306faef     LIBCMT:tan.obj
 0001:0006eb8d       ___iswcsym                 0306fb8d f i LIBCMT:_wctype.obj
 0001:0006ebb1       ___iswcsymf                0306fbb1 f i LIBCMT:_wctype.obj
 0001:0006ebd5       __isleadbyte_l             0306fbd5 f i LIBCMT:_wctype.obj
 0001:0006ec0f       __iswalnum_l               0306fc0f f i LIBCMT:_wctype.obj
 0001:0006ec23       __iswalpha_l               0306fc23 f i LIBCMT:_wctype.obj
 0001:0006ec37       __iswblank_l               0306fc37 f i LIBCMT:_wctype.obj
 0001:0006ec52       __iswcntrl_l               0306fc52 f i LIBCMT:_wctype.obj
 0001:0006ec63       __iswcsym_l                0306fc63 f i LIBCMT:_wctype.obj
 0001:0006ec87       __iswcsymf_l               0306fc87 f i LIBCMT:_wctype.obj
 0001:0006ecab       __iswdigit_l               0306fcab f i LIBCMT:_wctype.obj
 0001:0006ecbc       __iswgraph_l               0306fcbc f i LIBCMT:_wctype.obj
 0001:0006ecd0       __iswlower_l               0306fcd0 f i LIBCMT:_wctype.obj
 0001:0006ece1       __iswprint_l               0306fce1 f i LIBCMT:_wctype.obj
 0001:0006ecf5       __iswpunct_l               0306fcf5 f i LIBCMT:_wctype.obj
 0001:0006ed06       __iswspace_l               0306fd06 f i LIBCMT:_wctype.obj
 0001:0006ed17       __iswupper_l               0306fd17 f i LIBCMT:_wctype.obj
 0001:0006ed28       __iswxdigit_l              0306fd28 f i LIBCMT:_wctype.obj
 0001:0006ed3c       _isleadbyte                0306fd3c f i LIBCMT:_wctype.obj
 0001:0006ed4d       _iswalnum                  0306fd4d f i LIBCMT:_wctype.obj
 0001:0006ed61       _iswalpha                  0306fd61 f i LIBCMT:_wctype.obj
 0001:0006ed75       _iswascii                  0306fd75 f i LIBCMT:_wctype.obj
 0001:0006ed87       _iswblank                  0306fd87 f i LIBCMT:_wctype.obj
 0001:0006eda2       _iswcntrl                  0306fda2 f i LIBCMT:_wctype.obj
 0001:0006edb3       _iswdigit                  0306fdb3 f i LIBCMT:_wctype.obj
 0001:0006edc4       _iswgraph                  0306fdc4 f i LIBCMT:_wctype.obj
 0001:0006edd8       _iswlower                  0306fdd8 f i LIBCMT:_wctype.obj
 0001:0006ede9       _iswprint                  0306fde9 f i LIBCMT:_wctype.obj
 0001:0006edfd       _iswpunct                  0306fdfd f i LIBCMT:_wctype.obj
 0001:0006ee0e       _iswspace                  0306fe0e f i LIBCMT:_wctype.obj
 0001:0006ee1f       _iswupper                  0306fe1f f i LIBCMT:_wctype.obj
 0001:0006ee30       _iswxdigit                 0306fe30 f i LIBCMT:_wctype.obj
 0001:0006ee44       __filbuf                   0306fe44 f   LIBCMT:_filbuf.obj
 0001:0006ef65       __RTC_Initialize           0306ff65 f   LIBCMT:initsect.obj
 0001:0006ef85       __RTC_Terminate            0306ff85 f   LIBCMT:initsect.obj
 0001:0006efa5       __lock                     0306ffa5 f   LIBCMT:mlock.obj
 0001:0006efd9       __lockerr_exit             0306ffd9 f   LIBCMT:mlock.obj
 0001:0006eff9       __mtdeletelocks            0306fff9 f   LIBCMT:mlock.obj
 0001:0006f04d       __mtinitlocknum            0307004d f   LIBCMT:mlock.obj
 0001:0006f0f6       __mtinitlocks              030700f6 f   LIBCMT:mlock.obj
 0001:0006f12f       __unlock                   0307012f f   LIBCMT:mlock.obj
 0001:0006f171       ___crtCloseThreadpoolTimer 03070171 f   LIBCMT:winapisupp.obj
 0001:0006f188       ___crtCloseThreadpoolWait  03070188 f   LIBCMT:winapisupp.obj
 0001:0006f19f       ___crtCreateEventExW       0307019f f   LIBCMT:winapisupp.obj
 0001:0006f1da       ___crtCreateSemaphoreExW   030701da f   LIBCMT:winapisupp.obj
 0001:0006f214       ___crtCreateSymbolicLinkW  03070214 f   LIBCMT:winapisupp.obj
 0001:0006f23d       ___crtCreateThreadpoolTimer 0307023d f   LIBCMT:winapisupp.obj
 0001:0006f25e       ___crtCreateThreadpoolWait 0307025e f   LIBCMT:winapisupp.obj
 0001:0006f27f       ___crtFlsAlloc             0307027f f   LIBCMT:winapisupp.obj
 0001:0006f29d       ___crtFlsFree              0307029d f   LIBCMT:winapisupp.obj
 0001:0006f2bc       ___crtFlsGetValue          030702bc f   LIBCMT:winapisupp.obj
 0001:0006f2db       ___crtFlsSetValue          030702db f   LIBCMT:winapisupp.obj
 0001:0006f2fd       ___crtFlushProcessWriteBuffers 030702fd f   LIBCMT:winapisupp.obj
 0001:0006f30d       ___crtFreeLibraryWhenCallbackReturns 0307030d f   LIBCMT:winapisupp.obj
 0001:0006f327       ___crtGetCurrentProcessorNumber 03070327 f   LIBCMT:winapisupp.obj
 0001:0006f339       ___crtGetFileInformationByHandleEx 03070339 f   LIBCMT:winapisupp.obj
 0001:0006f365       ___crtGetLogicalProcessorInformation 03070365 f   LIBCMT:winapisupp.obj
 0001:0006f38b       ___crtGetShowWindowMode    0307038b f   LIBCMT:winapisupp.obj
 0001:0006f3ae       ___crtGetTickCount64       030703ae f   LIBCMT:winapisupp.obj
 0001:0006f3c6       ___crtInitializeCriticalSectionEx 030703c6 f   LIBCMT:winapisupp.obj
 0001:0006f3f4       ___crtIsPackagedApp        030703f4 f   LIBCMT:winapisupp.obj
 0001:0006f434       ___crtLoadWinApiPointers   03070434 f   LIBCMT:winapisupp.obj
 0001:0006f6bf       ___crtSetFileInformationByHandle 030706bf f   LIBCMT:winapisupp.obj
 0001:0006f6eb       ___crtSetThreadStackGuarantee 030706eb f   LIBCMT:winapisupp.obj
 0001:0006f706       ___crtSetThreadpoolTimer   03070706 f   LIBCMT:winapisupp.obj
 0001:0006f726       ___crtSetThreadpoolWait    03070726 f   LIBCMT:winapisupp.obj
 0001:0006f743       ___crtSetUnhandledExceptionFilter 03070743 f   LIBCMT:winapisupp.obj
 0001:0006f751       ___crtSleep                03070751 f   LIBCMT:winapisupp.obj
 0001:0006f75f       ___crtTerminateProcess     0307075f f   LIBCMT:winapisupp.obj
 0001:0006f774       ___crtUnhandledException   03070774 f   LIBCMT:winapisupp.obj
 0001:0006f78a       ___crtWaitForThreadpoolTimerCallbacks 0307078a f   LIBCMT:winapisupp.obj
 0001:0006f7b0       __FindPESection            030707b0 f   LIBCMT:pesect.obj
 0001:0006f800       __IsNonwritableInCurrentImage 03070800 f   LIBCMT:pesect.obj
 0001:0006f8c0       __ValidateImageBase        030708c0 f   LIBCMT:pesect.obj
 0001:0006f8f1       ___fpecode                 030708f1 f   LIBCMT:winsig.obj
 0001:0006f8fa       ___get_sigabrt             030708fa f   LIBCMT:winsig.obj
 0001:0006f907       ___pxcptinfoptrs           03070907 f   LIBCMT:winsig.obj
 0001:0006f910       __initp_misc_winsig        03070910 f   LIBCMT:winsig.obj
 0001:0006f9d1       _raise                     030709d1 f   LIBCMT:winsig.obj
 0001:0006fbc6       _signal                    03070bc6 f   LIBCMT:winsig.obj
 0001:0006fe1d       __initp_misc_rand_s        03070e1d f   LIBCMT:rand_s.obj
 0001:0006fe2a       _rand_s                    03070e2a f   LIBCMT:rand_s.obj
 0001:0006ff30       __output_p_l               03070f30 f   LIBCMT:outputp.obj
 0001:00071268       __validate_param_reuseA    03072268 f   LIBCMT:outputp.obj
 0001:0007139e       _get_crtdouble_arg         0307239e f i LIBCMT:outputp.obj
 0001:000714a0       __aulldvrm                 030724a0 f   LIBCMT:ulldvrm.obj
 0001:00071540       _pow                       03072540 f   LIBCMT:pow.obj
 0001:00071580       __CIpow                    03072580 f   LIBCMT:pow.obj
 0001:000715bb       __CIpow_default            030725bb f   LIBCMT:pow.obj
 0001:000715d4       __pow_default              030725d4     LIBCMT:pow.obj
 0001:000717ca       __sse2_mathfcns_init       030727ca f   LIBCMT:mathfcns.obj
 0001:000717d9       __set_SSE2_enable          030727d9 f   LIBCMT:mathfcns.obj
 0001:000717f8       __ceil_default             030727f8 f   LIBCMT:ceil.obj
 0001:000718cf       __vprintf_l                030728cf f   LIBCMT:vprintf.obj
 0001:000718ea       __vprintf_p                030728ea f   LIBCMT:vprintf.obj
 0001:00071904       __vprintf_p_l              03072904 f   LIBCMT:vprintf.obj
 0001:0007191f       __vprintf_s_l              0307291f f   LIBCMT:vprintf.obj
 0001:0007193a       _vprintf                   0307293a f   LIBCMT:vprintf.obj
 0001:00071954       _vprintf_helper            03072954 f   LIBCMT:vprintf.obj
 0001:000719e1       _vprintf_s                 030729e1 f   LIBCMT:vprintf.obj
 0001:000719fb       __wremove                  030729fb f   LIBCMT:wunlink.obj
 0001:00071a29       __wunlink                  03072a29 f   LIBCMT:wunlink.obj
 0001:00071a32       __XcptFilter               03072a32 f   LIBCMT:winxfltr.obj
 0001:00071b8d       ___CppXcptFilter           03072b8d f   LIBCMT:winxfltr.obj
 0001:00071bdf       __set_pgmptr               03072bdf f i LIBCMT:stdargv.obj
 0001:00071bec       __setargv                  03072bec f   LIBCMT:stdargv.obj
 0001:00071e1b       __setenvp                  03072e1b f   LIBCMT:stdenvp.obj
 0001:00071efc       ___security_init_cookie    03072efc f   LIBCMT:gs_support.obj
 0001:00071f98       ___crtGetEnvironmentStringsA 03072f98 f   LIBCMT:a_env.obj
 0001:00072025       _CallDestructExceptionObject 03073025 f   LIBCMT:calldtor.obj
 0001:00072120       __ValidateEH3RN            03073120 f   LIBCMT:eh3valid.obj
 0001:00072482       _strncpy_s                 03073482 f   LIBCMT:strncpy_s.obj
 0001:0007260a       ___crtGetLocaleInfoA       0307360a f   LIBCMT:a_loc.obj
 0001:00072644       _GetTableIndexFromLcid     03073644 f   LIBCMT:winapinls.obj
 0001:00072679       _GetTableIndexFromLocaleName 03073679 f   LIBCMT:winapinls.obj
 0001:000726c7       ___crtCompareStringEx      030736c7 f   LIBCMT:winapinls.obj
 0001:00072713       ___crtDownlevelLCIDToLocaleName 03073713 f   LIBCMT:winapinls.obj
 0001:0007278f       ___crtDownlevelLocaleNameToLCID 0307378f f   LIBCMT:winapinls.obj
 0001:000727cd       ___crtEnumSystemLocalesEx  030737cd f   LIBCMT:winapinls.obj
 0001:0007280a       ___crtGetDateFormatEx      0307380a f   LIBCMT:winapinls.obj
 0001:00072853       ___crtGetLocaleInfoEx      03073853 f   LIBCMT:winapinls.obj
 0001:00072882       ___crtGetTimeFormatEx      03073882 f   LIBCMT:winapinls.obj
 0001:000728b7       ___crtGetUserDefaultLocaleName 030738b7 f   LIBCMT:winapinls.obj
 0001:000728e2       ___crtIsValidLocaleName    030738e2 f   LIBCMT:winapinls.obj
 0001:0007290d       ___crtLCMapStringEx        0307390d f   LIBCMT:winapinls.obj
 0001:00072959       ___wcsnicmp_ascii          03073959 f   LIBCMT:winapinls.obj
 0001:000729c7       _realloc                   030739c7 f   LIBCMT:realloc.obj
 0001:00072a72       __recalloc                 03073a72 f   LIBCMT:recalloc.obj
 0001:00072adb       __calloc_impl              03073adb f   LIBCMT:calloc_impl.obj
 0001:00072b60       __trandisp1                03073b60 f   LIBCMT:87disp.obj
 0001:00072bc7       __trandisp2                03073bc7 f   LIBCMT:87disp.obj
 0001:00072c53       __rttospopde               03073c53     LIBCMT:87disp.obj
 0001:00072c58       __rttospop                 03073c58     LIBCMT:87disp.obj
 0001:00072c5a       __rtnospop                 03073c5a     LIBCMT:87disp.obj
 0001:00072c5c       __rttosnpop                03073c5c     LIBCMT:87disp.obj
 0001:00072c5d       __rtnospopde               03073c5d     LIBCMT:87disp.obj
 0001:00072c64       __rtzeropop                03073c64     LIBCMT:87disp.obj
 0001:00072c66       __rtzeronpop               03073c66     LIBCMT:87disp.obj
 0001:00072c6b       __rtonepop                 03073c6b     LIBCMT:87disp.obj
 0001:00072c6d       __rtonenpop                03073c6d     LIBCMT:87disp.obj
 0001:00072c72       __tosnan1                  03073c72     LIBCMT:87disp.obj
 0001:00072c9d       __nosnan2                  03073c9d     LIBCMT:87disp.obj
 0001:00072c9f       __tosnan2                  03073c9f     LIBCMT:87disp.obj
 0001:00072cc7       __nan2                     03073cc7     LIBCMT:87disp.obj
 0001:00072d06       __rtindfpop                03073d06     LIBCMT:87disp.obj
 0001:00072d08       __rtindfnpop               03073d08     LIBCMT:87disp.obj
 0001:00072d19       __rttosnpopde              03073d19     LIBCMT:87disp.obj
 0001:00072d23       __rtchsifneg               03073d23     LIBCMT:87disp.obj
 0001:00072d30       __startTwoArgErrorHandling 03073d30 f   LIBCMT:genexcep.obj
 0001:00072d47       __startOneArgErrorHandling 03073d47 f   LIBCMT:genexcep.obj
 0001:00072d90       __twoToTOS                 03073d90 f   LIBCMT:common.obj
 0001:00072da5       __load_CW                  03073da5 f   LIBCMT:common.obj
 0001:00072dbc       __convertTOStoQNaN         03073dbc f   LIBCMT:common.obj
 0001:00072dd5       __fload_withFB             03073dd5 f   LIBCMT:common.obj
 0001:00072e18       __checkTOS_withFB          03073e18 f   LIBCMT:common.obj
 0001:00072e2e       __fast_exit                03073e2e f   LIBCMT:common.obj
 0001:00072e3b       __math_exit                03073e3b f   LIBCMT:common.obj
 0001:00072e65       __check_overflow_exit      03073e65 f   LIBCMT:common.obj
 0001:00072e79       __check_range_exit         03073e79 f   LIBCMT:common.obj
 0001:00072f1c       __matherr                  03073f1c f   LIBCMT:matherr.obj
 0001:00072f1f       ?_ValidateExecute@@YAHP6GHXZ@Z 03073f1f f   LIBCMT:validate.obj
 0001:00072f2e       ?_ValidateRead@@YAHPBXI@Z  03073f2e f   LIBCMT:validate.obj
 0001:00072f3d       ?_ValidateWrite@@YAHPAXI@Z 03073f3d f   LIBCMT:validate.obj
 0001:00072f4c       ??0Block@_HeapManager@@QAE@XZ 03073f4c f i LIBCMT:undname.obj
 0001:00072f52       ??0DName@@QAE@AAPBDD@Z     03073f52 f   LIBCMT:undname.obj
 0001:0007300b       ??0DName@@QAE@ABV0@@Z      0307400b f i LIBCMT:undname.obj
 0001:00073021       ??0DName@@QAE@D@Z          03074021 f   LIBCMT:undname.obj
 0001:0007304d       ??0DName@@QAE@PAV0@@Z      0307404d f   LIBCMT:undname.obj
 0001:0007309a       ??0DName@@QAE@PBD@Z        0307409a f   LIBCMT:undname.obj
 0001:000730d4       ??0DName@@QAE@W4DNameStatus@@@Z 030740d4 f   LIBCMT:undname.obj
 0001:00073117       ??0DName@@QAE@XZ           03074117 f i LIBCMT:undname.obj
 0001:00073128       ??0DName@@QAE@_J@Z         03074128 f   LIBCMT:undname.obj
 0001:000731bb       ??0DName@@QAE@_K@Z         030741bb f   LIBCMT:undname.obj
 0001:00073228       ??0DNameNode@@IAE@XZ       03074228 f   LIBCMT:undname.obj
 0001:00073231       ??0DNameStatusNode@@AAE@W4DNameStatus@@@Z 03074231 f   LIBCMT:undname.obj
 0001:00073254       ??0Replicator@@QAE@XZ      03074254 f i LIBCMT:undname.obj
 0001:0007325a       ??0UnDecorator@@QAE@PADPBDHP6APADJ@ZK@Z 0307425a f i LIBCMT:undname.obj
 0001:000732c3       ??0charNode@@QAE@D@Z       030742c3 f   LIBCMT:undname.obj
 0001:000732d8       ??0pDNameNode@@QAE@PAVDName@@@Z 030742d8 f   LIBCMT:undname.obj
 0001:00073300       ??0pairNode@@QAE@PAVDNameNode@@0@Z 03074300 f   LIBCMT:undname.obj
 0001:0007331f       ??0pcharNode@@QAE@PBDH@Z   0307431f f   LIBCMT:undname.obj
 0001:00073376       ??2@YAPAXIAAV_HeapManager@@H@Z 03074376 f i LIBCMT:undname.obj
 0001:0007338b       ??4DName@@QAEAAV0@ABV0@@Z  0307438b f   LIBCMT:undname.obj
 0001:000733a1       ??4DName@@QAEAAV0@D@Z      030743a1 f i LIBCMT:undname.obj
 0001:000733cd       ??4DName@@QAEAAV0@PAV0@@Z  030743cd f   LIBCMT:undname.obj
 0001:00073416       ??4DName@@QAEAAV0@PBD@Z    03074416 f   LIBCMT:undname.obj
 0001:00073448       ??4DName@@QAEAAV0@W4DNameStatus@@@Z 03074448 f   LIBCMT:undname.obj
 0001:0007347d       ??AReplicator@@QBE?AVDName@@H@Z 0307447d f   LIBCMT:undname.obj
 0001:000734b9       ??BUnDecorator@@QAEPADXZ   030744b9 f i LIBCMT:undname.obj
 0001:00073638       ??H@YA?AVDName@@DABV0@@Z   03074638 f i LIBCMT:undname.obj
 0001:0007365c       ??H@YA?AVDName@@PBDABV0@@Z 0307465c f i LIBCMT:undname.obj
 0001:00073680       ??H@YA?AVDName@@W4DNameStatus@@ABV0@@Z 03074680 f i LIBCMT:undname.obj
 0001:000736a4       ??HDName@@QBE?AV0@ABV0@@Z  030746a4 f   LIBCMT:undname.obj
 0001:000736c6       ??HDName@@QBE?AV0@D@Z      030746c6 f   LIBCMT:undname.obj
 0001:000736e8       ??HDName@@QBE?AV0@PAV0@@Z  030746e8 f   LIBCMT:undname.obj
 0001:0007370a       ??HDName@@QBE?AV0@PBD@Z    0307470a f   LIBCMT:undname.obj
 0001:0007372c       ??HDName@@QBE?AV0@W4DNameStatus@@@Z 0307472c f   LIBCMT:undname.obj
 0001:0007374e       ??YDName@@QAEAAV0@ABV0@@Z  0307474e f   LIBCMT:undname.obj
 0001:00073791       ??YDName@@QAEAAV0@D@Z      03074791 f   LIBCMT:undname.obj
 0001:000737e1       ??YDName@@QAEAAV0@PAV0@@Z  030747e1 f   LIBCMT:undname.obj
 0001:00073846       ??YDName@@QAEAAV0@PBD@Z    03074846 f   LIBCMT:undname.obj
 0001:000738a7       ??YDName@@QAEAAV0@W4DNameStatus@@@Z 030748a7 f   LIBCMT:undname.obj
 0001:000738e7       ??YReplicator@@QAEAAV0@ABVDName@@@Z 030748e7 f   LIBCMT:undname.obj
 0001:00073931       ??_5DName@@QAEAAV0@ABV0@@Z 03074931 f   LIBCMT:undname.obj
 0001:0007394d       ?Constructor@_HeapManager@@QAEXP6APAXI@ZP6AXPAX@Z@Z 0307494d f i LIBCMT:undname.obj
 0001:0007396a       ?Destructor@_HeapManager@@QAEXXZ 0307496a f i LIBCMT:undname.obj
 0001:00073990       ?UScore@UnDecorator@@SAPBDW4Tokens@@@Z 03074990 f   LIBCMT:undname.obj
 0001:000739ad       ?append@DName@@AAEXPAVDNameNode@@@Z 030749ad f   LIBCMT:undname.obj
 0001:000739f3       ?composeDeclaration@UnDecorator@@CA?AVDName@@ABV2@@Z 030749f3 f i LIBCMT:undname.obj
 0001:00074729       ?doAccessSpecifiers@UnDecorator@@SAHXZ 03075729 f i LIBCMT:undname.obj
 0001:00074737       ?doAllocationLanguage@UnDecorator@@SAHXZ 03075737 f i LIBCMT:undname.obj
 0001:00074745       ?doAllocationModel@UnDecorator@@SAHXZ 03075745 f i LIBCMT:undname.obj
 0001:00074753       ?doEcsu@UnDecorator@@SAHXZ 03075753 f i LIBCMT:undname.obj
 0001:00074761       ?doEllipsis@UnDecorator@@SAHXZ 03075761 f i LIBCMT:undname.obj
 0001:0007476f       ?doFunctionReturns@UnDecorator@@SAHXZ 0307576f f i LIBCMT:undname.obj
 0001:0007477d       ?doMSKeywords@UnDecorator@@SAHXZ 0307577d f i LIBCMT:undname.obj
 0001:0007478a       ?doMemberTypes@UnDecorator@@SAHXZ 0307578a f i LIBCMT:undname.obj
 0001:00074798       ?doNameOnly@UnDecorator@@SAHXZ 03075798 f i LIBCMT:undname.obj
 0001:000747a3       ?doNoIdentCharCheck@UnDecorator@@SAHXZ 030757a3 f i LIBCMT:undname.obj
 0001:000747ae       ?doPchar@DName@@AAEXPBDH@Z 030757ae f   LIBCMT:undname.obj
 0001:00074836       ?doPtr64@UnDecorator@@SAHXZ 03075836 f i LIBCMT:undname.obj
 0001:00074844       ?doRestrictionSpec@UnDecorator@@SAHXZ 03075844 f i LIBCMT:undname.obj
 0001:00074852       ?doThisTypes@UnDecorator@@SAHXZ 03075852 f i LIBCMT:undname.obj
 0001:00074864       ?doThrowTypes@UnDecorator@@SAHXZ 03075864 f i LIBCMT:undname.obj
 0001:00074872       ?doTypeOnly@UnDecorator@@SAHXZ 03075872 f i LIBCMT:undname.obj
 0001:0007487d       ?doUnderScore@UnDecorator@@SAHXZ 0307587d f i LIBCMT:undname.obj
 0001:00074888       ?getArgumentList@UnDecorator@@CA?AVDName@@XZ 03075888 f   LIBCMT:undname.obj
 0001:00074994       ?getArgumentTypes@UnDecorator@@CA?AVDName@@XZ 03075994 f   LIBCMT:undname.obj
 0001:00074a72       ?getArrayType@UnDecorator@@CA?AVDName@@ABV2@@Z 03075a72 f i LIBCMT:undname.obj
 0001:00074c74       ?getBasedType@UnDecorator@@CA?AVDName@@XZ 03075c74 f   LIBCMT:undname.obj
 0001:00074d0b       ?getBasicDataType@UnDecorator@@CA?AVDName@@ABV2@@Z 03075d0b f   LIBCMT:undname.obj
 0001:000750e2       ?getCallIndex@UnDecorator@@CA?AVDName@@XZ 030760e2 f i LIBCMT:undname.obj
 0001:000750f6       ?getCallingConvention@UnDecorator@@CA?AVDName@@XZ 030760f6 f   LIBCMT:undname.obj
 0001:000751b5       ?getDataIndirectType@UnDecorator@@CA?AVDName@@ABV2@PBD0H@Z 030761b5 f   LIBCMT:undname.obj
 0001:00075752       ?getDataIndirectType@UnDecorator@@CA?AVDName@@XZ 03076752 f i LIBCMT:undname.obj
 0001:0007578b       ?getDataType@UnDecorator@@CA?AVDName@@PAV2@@Z 0307678b f   LIBCMT:undname.obj
 0001:0007585d       ?getDecoratedName@UnDecorator@@CA?AVDName@@XZ 0307685d f   LIBCMT:undname.obj
 0001:00075aa9       ?getDimension@UnDecorator@@CA?AVDName@@_N@Z 03076aa9 f   LIBCMT:undname.obj
 0001:00075be0       ?getDispatchTarget@UnDecorator@@CA?AVDName@@XZ 03076be0 f   LIBCMT:undname.obj
 0001:00075c3b       ?getDisplacement@UnDecorator@@CA?AVDName@@XZ 03076c3b f i LIBCMT:undname.obj
 0001:00075c4f       ?getECSUDataType@UnDecorator@@CA?AVDName@@XZ 03076c4f f   LIBCMT:undname.obj
 0001:00075d62       ?getECSUName@UnDecorator@@CA?AVDName@@XZ 03076d62 f i LIBCMT:undname.obj
 0001:00075d73       ?getEnumType@UnDecorator@@CA?AVDName@@XZ 03076d73 f i LIBCMT:undname.obj
 0001:00075e57       ?getExtendedDataIndirectType@UnDecorator@@CA?AVDName@@AAPBDAA_NH@Z 03076e57 f   LIBCMT:undname.obj
 0001:00075ffc       ?getExternalDataType@UnDecorator@@CA?AVDName@@ABV2@@Z 03076ffc f i LIBCMT:undname.obj
 0001:00076075       ?getFunctionIndirectType@UnDecorator@@CA?AVDName@@ABV2@@Z 03077075 f   LIBCMT:undname.obj
 0001:0007646b       ?getGuardNumber@UnDecorator@@CA?AVDName@@XZ 0307746b f i LIBCMT:undname.obj
 0001:0007647f       ?getLastChar@DName@@QBEDXZ 0307747f f i LIBCMT:undname.obj
 0001:0007648d       ?getLastChar@DNameStatusNode@@UBEDXZ 0307748d f i LIBCMT:undname.obj
 0001:00076499       ?getLastChar@charNode@@UBEDXZ 03077499 f i LIBCMT:undname.obj
 0001:0007649d       ?getLastChar@pDNameNode@@UBEDXZ 0307749d f i LIBCMT:undname.obj
 0001:000764b2       ?getLastChar@pairNode@@UBEDXZ 030774b2 f i LIBCMT:undname.obj
 0001:000764cc       ?getLastChar@pcharNode@@UBEDXZ 030774cc f i LIBCMT:undname.obj
 0001:000764de       ?getLexicalFrame@UnDecorator@@CA?AVDName@@XZ 030774de f i LIBCMT:undname.obj
 0001:0007651b       ?getMemory@_HeapManager@@QAEPAXIH@Z 0307751b f   LIBCMT:undname.obj
 0001:000765a0       ?getNumberOfDimensions@UnDecorator@@CAHXZ 030775a0 f   LIBCMT:undname.obj
 0001:00076601       ?getOperatorName@UnDecorator@@CA?AVDName@@_NPA_N@Z 03077601 f i LIBCMT:undname.obj
 0001:00076bdb       ?getPointerType@UnDecorator@@CA?AVDName@@ABV2@0@Z 03077bdb f i LIBCMT:undname.obj
 0001:00076bf9       ?getPointerTypeArray@UnDecorator@@CA?AVDName@@ABV2@0@Z 03077bf9 f i LIBCMT:undname.obj
 0001:00076c17       ?getPrimaryDataType@UnDecorator@@CA?AVDName@@ABV2@@Z 03077c17 f   LIBCMT:undname.obj
 0001:00076dcf       ?getPtrRefDataType@UnDecorator@@CA?AVDName@@ABV2@H@Z 03077dcf f i LIBCMT:undname.obj
 0001:00076eb9       ?getPtrRefType@UnDecorator@@CA?AVDName@@ABV2@0PBD@Z 03077eb9 f   LIBCMT:undname.obj
 0001:00076fb5       ?getReferenceType@UnDecorator@@CA?AVDName@@ABV2@0PBD@Z 03077fb5 f i LIBCMT:undname.obj
 0001:00076fd3       ?getRestrictionSpec@UnDecorator@@CA?AVDName@@XZ 03077fd3 f   LIBCMT:undname.obj
 0001:000770c1       ?getReturnType@UnDecorator@@CA?AVDName@@PAV2@@Z 030780c1 f   LIBCMT:undname.obj
 0001:000770f0       ?getScope@UnDecorator@@CA?AVDName@@XZ 030780f0 f   LIBCMT:undname.obj
 0001:000774c7       ?getScopedName@UnDecorator@@CA?AVDName@@XZ 030784c7 f   LIBCMT:undname.obj
 0001:000775c2       ?getSignedDimension@UnDecorator@@CA?AVDName@@XZ 030785c2 f   LIBCMT:undname.obj
 0001:00077615       ?getStorageConvention@UnDecorator@@CA?AVDName@@XZ 03078615 f i LIBCMT:undname.obj
 0001:00077626       ?getString@DName@@QBEPADPAD0@Z 03078626 f i LIBCMT:undname.obj
 0001:0007763c       ?getString@DName@@QBEPADPADH@Z 0307863c f i LIBCMT:undname.obj
 0001:0007769a       ?getString@DNameStatusNode@@UBEPADPAD0@Z 0307869a f i LIBCMT:undname.obj
 0001:000776c1       ?getString@charNode@@UBEPADPAD0@Z 030786c1 f i LIBCMT:undname.obj
 0001:000776d6       ?getString@pDNameNode@@UBEPADPAD0@Z 030786d6 f i LIBCMT:undname.obj
 0001:000776f3       ?getString@pairNode@@UBEPADPAD0@Z 030786f3 f i LIBCMT:undname.obj
 0001:0007771d       ?getString@pcharNode@@UBEPADPAD0@Z 0307871d f i LIBCMT:undname.obj
 0001:00077738       ?getStringEncoding@UnDecorator@@CA?AVDName@@PADH@Z 03078738 f   LIBCMT:undname.obj
 0001:000777db       ?getStringHelper@@YAPADPAD00H@Z 030787db f i LIBCMT:undname.obj
 0001:00077810       ?getSymbolName@UnDecorator@@CA?AVDName@@XZ 03078810 f i LIBCMT:undname.obj
 0001:00077858       ?getTemplateArgumentList@UnDecorator@@CA?AVDName@@XZ 03078858 f   LIBCMT:undname.obj
 0001:00077ad1       ?getTemplateConstant@UnDecorator@@CA?AVDName@@XZ 03078ad1 f   LIBCMT:undname.obj
 0001:00077dd1       ?getTemplateName@UnDecorator@@CA?AVDName@@_N@Z 03078dd1 f   LIBCMT:undname.obj
 0001:00077f2b       ?getThisType@UnDecorator@@CA?AVDName@@XZ 03078f2b f i LIBCMT:undname.obj
 0001:00077f65       ?getThrowTypes@UnDecorator@@CA?AVDName@@XZ 03078f65 f   LIBCMT:undname.obj
 0001:00077fef       ?getTypeEncoding@UnDecorator@@CAHXZ 03078fef f i LIBCMT:undname.obj
 0001:000784df       ?getVCallThunkType@UnDecorator@@CA?AVDName@@XZ 030794df f i LIBCMT:undname.obj
 0001:0007851a       ?getVbTableType@UnDecorator@@CA?AVDName@@ABV2@@Z 0307951a f i LIBCMT:undname.obj
 0001:0007852f       ?getVdispMapType@UnDecorator@@CA?AVDName@@ABV2@@Z 0307952f f i LIBCMT:undname.obj
 0001:00078585       ?getVfTableType@UnDecorator@@CA?AVDName@@ABV2@@Z 03079585 f i LIBCMT:undname.obj
 0001:000786ea       ?getZName@UnDecorator@@CA?AVDName@@_N0@Z 030796ea f   LIBCMT:undname.obj
 0001:00078914       ?haveTemplateParameters@UnDecorator@@SAHXZ 03079914 f i LIBCMT:undname.obj
 0001:0007891f       ?isArray@DName@@QBEHXZ     0307991f f i LIBCMT:undname.obj
 0001:00078929       ?isComArray@DName@@QBEHXZ  03079929 f i LIBCMT:undname.obj
 0001:00078933       ?isEmpty@DName@@QBEHXZ     03079933 f i LIBCMT:undname.obj
 0001:0007893b       ?isFull@Replicator@@QBEHXZ 0307993b f i LIBCMT:undname.obj
 0001:00078944       ?isNoTE@DName@@QBEHXZ      03079944 f i LIBCMT:undname.obj
 0001:0007894e       ?isPinPtr@DName@@QBEHXZ    0307994e f i LIBCMT:undname.obj
 0001:00078958       ?isPtrRef@DName@@QBEHXZ    03079958 f i LIBCMT:undname.obj
 0001:00078962       ?isUDC@DName@@QBEHXZ       03079962 f i LIBCMT:undname.obj
 0001:00078973       ?isUDTThunk@DName@@QBEHXZ  03079973 f i LIBCMT:undname.obj
 0001:00078984       ?isVCallThunk@DName@@QBEHXZ 03079984 f i LIBCMT:undname.obj
 0001:0007898e       ?isValid@DName@@QBEHXZ     0307998e f i LIBCMT:undname.obj
 0001:00078998       ?length@DName@@QBEHXZ      03079998 f i LIBCMT:undname.obj
 0001:000789a5       ?length@DNameStatusNode@@UBEHXZ 030799a5 f i LIBCMT:undname.obj
 0001:000789a9       ?length@charNode@@UBEHXZ   030799a9 f i LIBCMT:undname.obj
 0001:000789ad       ?length@pDNameNode@@UBEHXZ 030799ad f i LIBCMT:undname.obj
 0001:000789c1       ?length@pairNode@@UBEHXZ   030799c1 f i LIBCMT:undname.obj
 0001:000789ea       ?length@pcharNode@@UBEHXZ  030799ea f i LIBCMT:undname.obj
 0001:000789ee       ?make@DNameStatusNode@@SAPAV1@W4DNameStatus@@@Z 030799ee f i LIBCMT:undname.obj
 0001:00078a74       ?setIsArray@DName@@QAEXXZ  03079a74 f i LIBCMT:undname.obj
 0001:00078a7c       ?setIsComArray@DName@@QAEXXZ 03079a7c f i LIBCMT:undname.obj
 0001:00078a84       ?setIsNoTE@DName@@QAEXXZ   03079a84 f i LIBCMT:undname.obj
 0001:00078a8c       ?setIsPinPtr@DName@@QAEXXZ 03079a8c f i LIBCMT:undname.obj
 0001:00078a94       ?setIsUDC@DName@@QAEXXZ    03079a94 f i LIBCMT:undname.obj
 0001:00078aa1       ?setIsVCallThunk@DName@@QAEXXZ 03079aa1 f i LIBCMT:undname.obj
 0001:00078aa9       ?setPtrRef@DName@@QAEAAV1@XZ 03079aa9 f i LIBCMT:undname.obj
 0001:00078ab3       ?status@DName@@QBE?AW4DNameStatus@@XZ 03079ab3 f i LIBCMT:undname.obj
 0001:00078b1b       ___unDName                 03079b1b f   LIBCMT:undname.obj
 0001:00078bbe       ___unDNameEx               03079bbe f   LIBCMT:undname.obj
 0001:00078c5f       __fptostr                  03079c5f f   LIBCMT:_fptostr.obj
 0001:00078d0f       ___crt_atoflt_l            03079d0f f   LIBCMT:atodbl.obj
 0001:00078db3       __atodbl                   03079db3 f   LIBCMT:atodbl.obj
 0001:00078dc8       __atodbl_l                 03079dc8 f   LIBCMT:atodbl.obj
 0001:00078e56       __atoflt                   03079e56 f   LIBCMT:atodbl.obj
 0001:00078e6b       __atoflt_l                 03079e6b f   LIBCMT:atodbl.obj
 0001:00078e83       __atoldbl                  03079e83 f   LIBCMT:atodbl.obj
 0001:00078e98       __atoldbl_l                03079e98 f   LIBCMT:atodbl.obj
 0001:00078f27       ___dtold                   03079f27 f   LIBCMT:cfout.obj
 0001:00078fef       __fltout2                  03079fef f   LIBCMT:cfout.obj
 0001:00079080       __alldvrm                  0307a080 f   LIBCMT:lldvrm.obj
 0001:00079160       __aullshr                  0307a160 f   LIBCMT:ullshr.obj
 0001:0007917f       __get_output_format        0307a17f f   LIBCMT:outputformat.obj
 0001:00079185       __set_output_format        0307a185 f   LIBCMT:outputformat.obj
 0001:000791b7       __controlfp_s              0307a1b7 f   LIBCMT:contrlfp.obj
 0001:00079214       __fptrap                   0307a214 f   LIBCMT:crt0fp.obj
 0001:0007921d       __crt_debugger_hook        0307a21d f   LIBCMT:dbghook.obj
 0001:00079225       __isatty                   0307a225 f   LIBCMT:isatty.obj
 0001:00079279       __write                    0307a279 f   LIBCMT:write.obj
 0001:00079368       __write_nolock             0307a368 f   LIBCMT:write.obj
 0001:00079bcd       __lseeki64                 0307abcd f   LIBCMT:lseeki64.obj
 0001:00079cc9       __lseeki64_nolock          0307acc9 f   LIBCMT:lseeki64.obj
 0001:00079d3c       __getbuf                   0307ad3c f   LIBCMT:_getbuf.obj
 0001:00079d82       __output_s_l               0307ad82 f   LIBCMT:outputs.obj
 0001:0007aa0a       __wctomb_l                 0307ba0a f   LIBCMT:wctomb.obj
 0001:0007aa59       __wctomb_s_l               0307ba59 f   LIBCMT:wctomb.obj
 0001:0007ab7d       _wctomb                    0307bb7d f   LIBCMT:wctomb.obj
 0001:0007abb0       _wctomb_s                  0307bbb0 f   LIBCMT:wctomb.obj
 0001:0007abcb       _wcscat_s                  0307bbcb f   LIBCMT:wcscat_s.obj
 0001:0007ac37       _wcscpy_s                  0307bc37 f   LIBCMT:wcscpy_s.obj
 0001:0007ac93       _wcslen                    0307bc93 f   LIBCMT:wcslen.obj
 0001:0007acac       _wcsncpy_s                 0307bcac f   LIBCMT:wcsncpy_s.obj
 0001:0007ad6a       ___set_app_type            0307bd6a f   LIBCMT:errmode.obj
 0001:0007ad77       __set_error_mode           0307bd77 f   LIBCMT:errmode.obj
 0001:0007adb7       ___crtMessageBoxW          0307bdb7 f   LIBCMT:crtmboxw.obj
 0001:0007af9d       ___crtMessageBoxWaitThreadW@4 0307bf9d f   LIBCMT:crtmboxw.obj
 0001:0007afbb       ___free_lconv_mon          0307bfbb f   LIBCMT:initmon.obj
 0001:0007b0b7       ___init_monetary           0307c0b7 f   LIBCMT:initmon.obj
 0001:0007b490       ___free_lconv_num          0307c490 f   LIBCMT:initnum.obj
 0001:0007b4f7       ___init_numeric            0307c4f7 f   LIBCMT:initnum.obj
 0001:0007b735       ___free_lc_time            0307c735 f   LIBCMT:inittime.obj
 0001:0007bab5       ___init_time               0307cab5 f   LIBCMT:inittime.obj
 0001:0007c324       _localeconv                0307d324 f   LIBCMT:lconv.obj
 0001:0007c442       ___crtGetStringTypeA       0307d442 f   LIBCMT:a_str.obj
 0001:0007c482       ___pctype_func             0307d482 f   LIBCMT:ctype.obj
 0001:0007c4ab       ___pwctype_func            0307d4ab f   LIBCMT:ctype.obj
 0001:0007c4b1       ___init_collate            0307d4b1 f   LIBCMT:initcoll.obj
 0001:0007c4b4       ____lc_codepage_func       0307d4b4 f   LIBCMT:initctyp.obj
 0001:0007c4da       ____lc_collate_cp_func     0307d4da f   LIBCMT:initctyp.obj
 0001:0007c500       ____lc_locale_name_func    0307d500 f   LIBCMT:initctyp.obj
 0001:0007c528       ____mb_cur_max_func        0307d528 f   LIBCMT:initctyp.obj
 0001:0007c54e       ____mb_cur_max_l_func      0307d54e f   LIBCMT:initctyp.obj
 0001:0007c565       ___init_ctype              0307d565 f   LIBCMT:initctyp.obj
 0001:0007c8fd       _wcscmp                    0307d8fd f   LIBCMT:wcscmp.obj
 0001:0007c93b       _wcscspn                   0307d93b f   LIBCMT:wcscspn.obj
 0001:0007c986       _wcsnlen                   0307d986 f   LIBCMT:wcslen_s.obj
 0001:0007c9a5       _wcsncmp                   0307d9a5 f   LIBCMT:wcsncmp.obj
 0001:0007c9db       _wcspbrk                   0307d9db f   LIBCMT:wcspbrk.obj
 0001:0007cfdf       ___get_qualified_locale    0307dfdf f   LIBCMT:getqloc.obj
 0001:0007d84f       ___get_qualified_locale_downlevel 0307e84f f   LIBCMT:getqloc_downlevel.obj
 0001:0007da6b       __fcloseall                0307ea6b f   LIBCMT:closeall.obj
 0001:0007db08       ___lock_fhandle            0307eb08 f   LIBCMT:osfinfo.obj
 0001:0007db96       __alloc_osfhnd             0307eb96 f   LIBCMT:osfinfo.obj
 0001:0007dd3f       __free_osfhnd              0307ed3f f   LIBCMT:osfinfo.obj
 0001:0007ddc5       __get_osfhandle            0307edc5 f   LIBCMT:osfinfo.obj
 0001:0007de2c       __open_osfhandle           0307ee2c f   LIBCMT:osfinfo.obj
 0001:0007df42       __set_osfhnd               0307ef42 f   LIBCMT:osfinfo.obj
 0001:0007dfc4       __unlock_fhandle           0307efc4 f   LIBCMT:osfinfo.obj
 0001:0007dfea       __commit                   0307efea f   LIBCMT:commit.obj
 0001:0007e0d3       __open                     0307f0d3 f   LIBCMT:open.obj
 0001:0007e183       __sopen                    0307f183 f   LIBCMT:open.obj
 0001:0007e1b6       __sopen_helper             0307f1b6 f   LIBCMT:open.obj
 0001:0007e27f       __sopen_nolock             0307f27f f   LIBCMT:open.obj
 0001:0007e2cd       __sopen_s                  0307f2cd f   LIBCMT:open.obj
 0001:0007e2eb       __mbsnbcmp                 0307f2eb f   LIBCMT:mbsnbcmp.obj
 0001:0007e303       __mbsnbcmp_l               0307f303 f   LIBCMT:mbsnbcmp.obj
 0001:0007e41a       __mbsnbicmp                0307f41a f   LIBCMT:mbsnbicm.obj
 0001:0007e432       __mbsnbicmp_l              0307f432 f   LIBCMT:mbsnbicm.obj
 0001:0007e5ed       __CopyMan                  0307f5ed f i LIBCMT:intrncvt.obj
 0001:0007e60a       __FillZeroMan              0307f60a f i LIBCMT:intrncvt.obj
 0001:0007e619       __IncMan                   0307f619 f i LIBCMT:intrncvt.obj
 0001:0007e67b       __IsZeroMan                0307f67b f i LIBCMT:intrncvt.obj
 0001:0007e698       __RoundMan                 0307f698 f i LIBCMT:intrncvt.obj
 0001:0007e799       __ShrMan                   0307f799 f i LIBCMT:intrncvt.obj
 0001:0007e827       __ZeroTail                 0307f827 f i LIBCMT:intrncvt.obj
 0001:0007e86f       __ld12cvt                  0307f86f f i LIBCMT:intrncvt.obj
 0001:0007edda       __ld12tod                  0307fdda f   LIBCMT:intrncvt.obj
 0001:0007f34c       __ld12tof                  0308034c f   LIBCMT:intrncvt.obj
 0001:0007f8be       __ld12told                 030808be f   LIBCMT:intrncvt.obj
 0001:0007f98d       ___add_12                  0308098d f i LIBCMT:mantold.obj
 0001:0007f9ff       ___mtold12                 030809ff f   LIBCMT:mantold.obj
 0001:0007fbdf       __strtod_l                 03080bdf f   LIBCMT:strtod.obj
 0001:0007fcf6       _strtod                    03080cf6 f   LIBCMT:strtod.obj
 0001:0007fd10       __allmul                   03080d10 f   LIBCMT:llmul.obj
 0001:0007fd44       __87except                 03080d44 f   LIBCMT:87except.obj
 0001:0007fe4d       __dupenv_s                 03080e4d f   LIBCMT:getenv.obj
 0001:0007ffc0       __getenv_helper_nolock     03080fc0 f   LIBCMT:getenv.obj
 0001:000800df       _getenv                    030810df f   LIBCMT:getenv.obj
 0001:0008015f       _getenv_s                  0308115f f   LIBCMT:getenv.obj
 0001:00080230       __ungetc_nolock            03081230 f   LIBCMT:ungetc.obj
 0001:00080310       _ungetc                    03081310 f   LIBCMT:ungetc.obj
 0001:00080380       __mbtowc_l                 03081380 f   LIBCMT:mbtowc.obj
 0001:00080475       _mbtowc                    03081475 f   LIBCMT:mbtowc.obj
 0001:00080490       __CIacos_pentium4          03081490 f   LIBCMT:acos_pentium4.obj
 0001:000804a8       __acos_pentium4            030814a8     LIBCMT:acos_pentium4.obj
 0001:000809f0       __CIasin_pentium4          030819f0 f   LIBCMT:asin_pentium4.obj
 0001:00080a08       __asin_pentium4            03081a08     LIBCMT:asin_pentium4.obj
 0001:00080f70       __CIatan_pentium4          03081f70 f   LIBCMT:atan_pentium4.obj
 0001:00080f88       __atan_pentium4            03081f88     LIBCMT:atan_pentium4.obj
 0001:00081260       __CIcos_pentium4           03082260 f   LIBCMT:cos_pentium4.obj
 0001:00081278       __cos_pentium4             03082278     LIBCMT:cos_pentium4.obj
 0001:00081410       __CIsin_pentium4           03082410 f   LIBCMT:sin_pentium4.obj
 0001:00081428       __sin_pentium4             03082428     LIBCMT:sin_pentium4.obj
 0001:000815e0       __CItan_pentium4           030825e0 f   LIBCMT:tan_pentium4.obj
 0001:000815f8       __tan_pentium4             030825f8     LIBCMT:tan_pentium4.obj
 0001:00081840       __iswctype_l               03082840 f   LIBCMT:iswctype.obj
 0001:00081852       _is_wctype                 03082852 f   LIBCMT:iswctype.obj
 0001:0008185b       _iswctype                  0308285b f   LIBCMT:iswctype.obj
 0001:000818b1       __read                     030828b1 f   LIBCMT:read.obj
 0001:000819c5       __read_nolock              030829c5 f   LIBCMT:read.obj
 0001:00082160       __CIpow_pentium4           03083160 f   LIBCMT:pow_pentium4.obj
 0001:00082179       __pow_pentium4             03083179     LIBCMT:pow_pentium4.obj
 0001:00082cd1       __fFEXP                    03083cd1     LIBCMT:87tran.obj
 0001:00082d28       __rtinfpopse               03083d28     LIBCMT:87tran.obj
 0001:00082d2a       __rtinfnpopse              03083d2a     LIBCMT:87tran.obj
 0001:00082d3a       __fFLN                     03083d3a     LIBCMT:87tran.obj
 0001:00082def       __rtinfpop                 03083def     LIBCMT:87tran.obj
 0001:00082df1       __rtinfnpop                03083df1     LIBCMT:87tran.obj
 0001:00082e0e       __ffexpm1                  03083e0e     LIBCMT:87tran.obj
 0001:00082eb7       __d_inttype                03083eb7 f   LIBCMT:powhlp.obj
 0001:00082f1f       __powhlp                   03083f1f f   LIBCMT:powhlp.obj
 0001:00083055       __frnd                     03084055 f   LIBCMT:frnd.obj
 0001:000830c3       __ismbbalnum               030840c3 f   LIBCMT:ismbbyte.obj
 0001:000830dc       __ismbbalnum_l             030840dc f   LIBCMT:ismbbyte.obj
 0001:000830f6       __ismbbalpha               030840f6 f   LIBCMT:ismbbyte.obj
 0001:0008310f       __ismbbalpha_l             0308410f f   LIBCMT:ismbbyte.obj
 0001:00083129       __ismbbblank               03084129 f   LIBCMT:ismbbyte.obj
 0001:0008314a       __ismbbblank_l             0308414a f   LIBCMT:ismbbyte.obj
 0001:0008316c       __ismbbgraph               0308416c f   LIBCMT:ismbbyte.obj
 0001:00083185       __ismbbgraph_l             03084185 f   LIBCMT:ismbbyte.obj
 0001:0008319f       __ismbbkalnum              0308419f f   LIBCMT:ismbbyte.obj
 0001:000831b5       __ismbbkalnum_l            030841b5 f   LIBCMT:ismbbyte.obj
 0001:000831cc       __ismbbkana                030841cc f   LIBCMT:ismbbyte.obj
 0001:000831dd       __ismbbkana_l              030841dd f   LIBCMT:ismbbyte.obj
 0001:00083229       __ismbbkprint              03084229 f   LIBCMT:ismbbyte.obj
 0001:0008323f       __ismbbkprint_l            0308423f f   LIBCMT:ismbbyte.obj
 0001:00083256       __ismbbkpunct              03084256 f   LIBCMT:ismbbyte.obj
 0001:0008326c       __ismbbkpunct_l            0308426c f   LIBCMT:ismbbyte.obj
 0001:00083283       __ismbblead                03084283 f   LIBCMT:ismbbyte.obj
 0001:00083299       __ismbblead_l              03084299 f   LIBCMT:ismbbyte.obj
 0001:000832b0       __ismbbprint               030842b0 f   LIBCMT:ismbbyte.obj
 0001:000832c9       __ismbbprint_l             030842c9 f   LIBCMT:ismbbyte.obj
 0001:000832e3       __ismbbpunct               030842e3 f   LIBCMT:ismbbyte.obj
 0001:000832f9       __ismbbpunct_l             030842f9 f   LIBCMT:ismbbyte.obj
 0001:00083310       __ismbbtrail               03084310 f   LIBCMT:ismbbyte.obj
 0001:00083326       __ismbbtrail_l             03084326 f   LIBCMT:ismbbyte.obj
 0001:0008333d       _$I10_OUTPUT               0308433d f   LIBCMT:x10fout.obj
 0001:00083e4b       ___control87_2             03084e4b f   LIBCMT:ieee87.obj
 0001:000844bf       __clearfp                  030854bf f   LIBCMT:ieee87.obj
 0001:0008459f       __control87                0308559f f i LIBCMT:ieee87.obj
 0001:000848a1       __controlfp                030858a1 f   LIBCMT:ieee87.obj
 0001:00084bac       __fpreset                  03085bac f   LIBCMT:ieee87.obj
 0001:00084c79       __set_controlfp            03085c79 f   LIBCMT:ieee87.obj
 0001:00084cec       __statusfp                 03085cec f   LIBCMT:ieee87.obj
 0001:00084d86       __statusfp2                03085d86 f   LIBCMT:ieee87.obj
 0001:00084de5       __putwch                   03085de5 f   LIBCMT:putwch.obj
 0001:00084e31       __putwch_nolock            03085e31 f   LIBCMT:putwch.obj
 0001:00084f90       __i64tow_s                 03085f90 f   LIBCMT:xtows.obj
 0001:00084fc1       __itow_s                   03085fc1 f   LIBCMT:xtows.obj
 0001:00084fea       __ltow_s                   03085fea f   LIBCMT:xtows.obj
 0001:00085014       __ui64tow_s                03086014 f   LIBCMT:xtows.obj
 0001:0008502f       __ultow_s                  0308602f f   LIBCMT:xtows.obj
 0001:0008513a       __wtoi                     0308613a f   LIBCMT:wtox.obj
 0001:00085143       __wtoi64                   03086143 f   LIBCMT:wtox.obj
 0001:00085157       __wtoi64_l                 03086157 f   LIBCMT:wtox.obj
 0001:0008516e       __wtoi_l                   0308616e f   LIBCMT:wtox.obj
 0001:00085177       __wtol                     03086177 f   LIBCMT:wtox.obj
 0001:0008518b       __wtol_l                   0308618b f   LIBCMT:wtox.obj
 0001:000851a2       __wtoll                    030861a2 f   LIBCMT:wtox.obj
 0001:000851b6       __wtoll_l                  030861b6 f   LIBCMT:wtox.obj
 0001:000851cd       _wcschr                    030861cd f   LIBCMT:wcschr.obj
 0001:0008527b       __wcsicmp                  0308627b f   LIBCMT:wcsicmp.obj
 0001:0008530e       __wcsicmp_l                0308630e f   LIBCMT:wcsicmp.obj
 0001:000853e9       __wcsnicmp                 030863e9 f   LIBCMT:wcsnicmp.obj
 0001:0008549f       __wcsnicmp_l               0308649f f   LIBCMT:wcsnicmp.obj
 0001:00085620       __wopen                    03086620 f   LIBCMT:wopen.obj
 0001:000856d0       __wsopen                   030866d0 f   LIBCMT:wopen.obj
 0001:00085703       __wsopen_helper            03086703 f   LIBCMT:wopen.obj
 0001:000857cc       __wsopen_nolock            030867cc f   LIBCMT:wopen.obj
 0001:00085f1f       __wsopen_s                 03086f1f f   LIBCMT:wopen.obj
 0001:00085f3d       _strnicmp                  03086f3d f   LIBCMT:strnicmp.obj
 0001:00085f3d       __strnicmp                 03086f3d f   LIBCMT:strnicmp.obj
 0001:00085fa8       __strnicmp_l               03086fa8 f   LIBCMT:strnicmp.obj
 0001:00086060       ___wtomb_environ           03087060 f   LIBCMT:wtombenv.obj
 0001:000860ef       _calloc                    030870ef f   LIBCMT:calloc.obj
 0001:0008612f       __mbsnbicoll               0308712f f   LIBCMT:mbsnbico.obj
 0001:00086147       __mbsnbicoll_l             03087147 f   LIBCMT:mbsnbico.obj
 0001:000861fd       __chgsign                  030871fd f   LIBCMT:ieeemisc.obj
 0001:0008622a       __chgsignf                 0308722a f   LIBCMT:ieeemisc.obj
 0001:0008624b       __copysign                 0308724b f   LIBCMT:ieeemisc.obj
 0001:00086273       __copysignf                03087273 f   LIBCMT:ieeemisc.obj
 0001:0008628f       __finite                   0308728f f   LIBCMT:ieeemisc.obj
 0001:000862a7       __fpclass                  030872a7 f   LIBCMT:ieeemisc.obj
 0001:00086343       __isnan                    03087343 f   LIBCMT:ieeemisc.obj
 0001:00086376       __logb                     03087376 f   LIBCMT:ieeemisc.obj
 0001:00086457       __nextafter                03087457 f   LIBCMT:ieeemisc.obj
 0001:000866f7       __scalb                    030876f7 f   LIBCMT:ieeemisc.obj
 0001:0008670f       ___termconout              0308770f f   LIBCMT:initcon.obj
 0001:00086726       ___initconout              03087726 f   LIBCMT:initcon.obj
 0001:00086926       __wcstol_l                 03087926 f   LIBCMT:wcstol.obj
 0001:0008693e       __wcstoul_l                0308793e f   LIBCMT:wcstol.obj
 0001:00086956       _wcstol                    03087956 f   LIBCMT:wcstol.obj
 0001:0008696e       _wcstoul                   0308796e f   LIBCMT:wcstol.obj
 0001:00086c56       __wcstof_l                 03087c56 f   LIBCMT:wcstoq.obj
 0001:00086d09       __wcstoi64                 03087d09 f   LIBCMT:wcstoq.obj
 0001:00086d33       __wcstoi64_l               03087d33 f   LIBCMT:wcstoq.obj
 0001:00086d4e       __wcstoimax_l              03087d4e f   LIBCMT:wcstoq.obj
 0001:00086d57       __wcstold_l                03087d57 f   LIBCMT:wcstoq.obj
 0001:00086d60       __wcstoll_l                03087d60 f   LIBCMT:wcstoq.obj
 0001:00086d69       __wcstoui64                03087d69 f   LIBCMT:wcstoq.obj
 0001:00086d93       __wcstoui64_l              03087d93 f   LIBCMT:wcstoq.obj
 0001:00086dae       __wcstoull_l               03087dae f   LIBCMT:wcstoq.obj
 0001:00086db7       __wcstoumax_l              03087db7 f   LIBCMT:wcstoq.obj
 0001:00086dc0       _wcstof                    03087dc0 f   LIBCMT:wcstoq.obj
 0001:00086dd5       _wcstoimax                 03087dd5 f   LIBCMT:wcstoq.obj
 0001:00086dde       _wcstold                   03087dde f   LIBCMT:wcstoq.obj
 0001:00086de7       _wcstoll                   03087de7 f   LIBCMT:wcstoq.obj
 0001:00086df0       _wcstoull                  03087df0 f   LIBCMT:wcstoq.obj
 0001:00086df9       _wcstoumax                 03087df9 f   LIBCMT:wcstoq.obj
 0001:00086e02       __towlower_l               03087e02 f   LIBCMT:towlower.obj
 0001:00086eb3       _towlower                  03087eb3 f   LIBCMT:towlower.obj
 0001:00086ec4       __chsize                   03087ec4 f   LIBCMT:chsize.obj
 0001:00086ede       __chsize_nolock            03087ede f   LIBCMT:chsize.obj
 0001:00087094       __chsize_s                 03088094 f   LIBCMT:chsize.obj
 0001:00087182       __get_fmode                03088182 f   LIBCMT:setmode.obj
 0001:000871ac       __set_fmode                030881ac f   LIBCMT:setmode.obj
 0001:000871e7       __setmode                  030881e7 f   LIBCMT:setmode.obj
 0001:000872ec       __setmode_nolock           030882ec f   LIBCMT:setmode.obj
 0001:000873c0       ___ascii_strnicmp          030883c0 f   LIBCMT:_strnicm.obj
 0001:00087421       ___crtsetenv               03088421 f   LIBCMT:setenv.obj
 0001:00087724       __strnicoll                03088724 f   LIBCMT:strnicol.obj
 0001:0008774b       __strnicoll_l              0308874b f   LIBCMT:strnicol.obj
 0001:00087ab4       ___crtCompareStringA       03088ab4 f   LIBCMT:a_cmp.obj
 0001:00087af7       _ldexp                     03088af7 f   LIBCMT:ldexp.obj
 0001:00087ce3       __wchartodigit             03088ce3 f   LIBCMT:wchtodig.obj
 0001:00087e82       __wcstod_l                 03088e82 f   LIBCMT:wcstod.obj
 0001:00087f7d       _wcstod                    03088f7d f   LIBCMT:wcstod.obj
 0001:00087f92       ___crtLCMapStringW         03088f92 f   LIBCMT:w_map.obj
 0001:00087fc1       __strdup                   03088fc1 f   LIBCMT:strdup.obj
 0001:00087fc1       _strdup                    03088fc1 f   LIBCMT:strdup.obj
 0001:00088011       __mbschr                   03089011 f   LIBCMT:mbschr.obj
 0001:00088026       __mbschr_l                 03089026 f   LIBCMT:mbschr.obj
 0001:000880c3       __wfltin2                  030890c3 f   LIBCMT:wcfin.obj
 0001:0008816c       ___WSTRINGTOLD_L           0308916c f   LIBCMT:wstrgtold.obj
 0001:000881c7       ___wstrgtold12_l           030891c7 f   LIBCMT:wstrgtold.obj
 0001:00088a18       _SetLastError@4            03089a18 f   kernel32:KERNEL32.dll
 0001:00088a1e       _VirtualProtect@16         03089a1e f   kernel32:KERNEL32.dll
 0001:00088a24       _FlushInstructionCache@12  03089a24 f   kernel32:KERNEL32.dll
 0001:00088a2a       _VirtualQuery@12           03089a2a f   kernel32:KERNEL32.dll
 0001:00088a30       _EncodePointer@4           03089a30 f   kernel32:KERNEL32.dll
 0001:00088a36       _DecodePointer@4           03089a36 f   kernel32:KERNEL32.dll
 0001:00088a3c       _RaiseException@16         03089a3c f   kernel32:KERNEL32.dll
 0001:00088a42       _RtlUnwind@16              03089a42 f   kernel32:KERNEL32.dll
 0001:00088a48       _GetLastError@0            03089a48 f   kernel32:KERNEL32.dll
 0001:00088a4e       _HeapFree@12               03089a4e f   kernel32:KERNEL32.dll
 0001:00088a54       _HeapAlloc@12              03089a54 f   kernel32:KERNEL32.dll
 0001:00088a5a       _GetSystemTimeAsFileTime@4 03089a5a f   kernel32:KERNEL32.dll
 0001:00088a60       _ExitProcess@4             03089a60 f   kernel32:KERNEL32.dll
 0001:00088a66       _GetModuleHandleExW@12     03089a66 f   kernel32:KERNEL32.dll
 0001:00088a6c       _AreFileApisANSI@0         03089a6c f   kernel32:KERNEL32.dll
 0001:00088a72       _MultiByteToWideChar@24    03089a72 f   kernel32:KERNEL32.dll
 0001:00088a78       _WideCharToMultiByte@32    03089a78 f   kernel32:KERNEL32.dll
 0001:00088a7e       _GetCommandLineA@0         03089a7e f   kernel32:KERNEL32.dll
 0001:00088a84       _GetCurrentThreadId@0      03089a84 f   kernel32:KERNEL32.dll
 0001:00088a8a       _IsProcessorFeaturePresent@4 03089a8a f   kernel32:KERNEL32.dll
 0001:00088a90       _HeapSize@12               03089a90 f   kernel32:KERNEL32.dll
 0001:00088a96       _GetCurrentThread@0        03089a96 f   kernel32:KERNEL32.dll
 0001:00088a9c       _IsDebuggerPresent@0       03089a9c f   kernel32:KERNEL32.dll
 0001:00088aa2       _GetProcessHeap@0          03089aa2 f   kernel32:KERNEL32.dll
 0001:00088aa8       _GetStdHandle@4            03089aa8 f   kernel32:KERNEL32.dll
 0001:00088aae       _WriteFile@20              03089aae f   kernel32:KERNEL32.dll
 0001:00088ab4       _GetModuleFileNameW@12     03089ab4 f   kernel32:KERNEL32.dll
 0001:00088aba       _IsValidCodePage@4         03089aba f   kernel32:KERNEL32.dll
 0001:00088ac0       _GetACP@0                  03089ac0 f   kernel32:KERNEL32.dll
 0001:00088ac6       _GetOEMCP@0                03089ac6 f   kernel32:KERNEL32.dll
 0001:00088acc       _GetCPInfo@8               03089acc f   kernel32:KERNEL32.dll
 0001:00088ad2       _CreateDirectoryW@8        03089ad2 f   kernel32:KERNEL32.dll
 0001:00088ad8       _CloseHandle@4             03089ad8 f   kernel32:KERNEL32.dll
 0001:00088ade       _GetFileType@4             03089ade f   kernel32:KERNEL32.dll
 0001:00088ae4       _GetStartupInfoW@4         03089ae4 f   kernel32:KERNEL32.dll
 0001:00088aea       _GetTimeZoneInformation@4  03089aea f   kernel32:KERNEL32.dll
 0001:00088af0       _GetFileAttributesExW@12   03089af0 f   kernel32:KERNEL32.dll
 0001:00088af6       _FatalAppExitA@8           03089af6 f   kernel32:KERNEL32.dll
 0001:00088afc       _UnhandledExceptionFilter@4 03089afc f   kernel32:KERNEL32.dll
 0001:00088b02       _SetUnhandledExceptionFilter@4 03089b02 f   kernel32:KERNEL32.dll
 0001:00088b08       _InitializeCriticalSectionAndSpinCount@8 03089b08 f   kernel32:KERNEL32.dll
 0001:00088b0e       _CreateEventW@16           03089b0e f   kernel32:KERNEL32.dll
 0001:00088b14       _TerminateProcess@8        03089b14 f   kernel32:KERNEL32.dll
 0001:00088b1a       _TlsAlloc@0                03089b1a f   kernel32:KERNEL32.dll
 0001:00088b20       _TlsGetValue@4             03089b20 f   kernel32:KERNEL32.dll
 0001:00088b26       _TlsSetValue@8             03089b26 f   kernel32:KERNEL32.dll
 0001:00088b2c       _TlsFree@4                 03089b2c f   kernel32:KERNEL32.dll
 0001:00088b32       _GetModuleHandleW@4        03089b32 f   kernel32:KERNEL32.dll
 0001:00088b38       _CreateSemaphoreW@16       03089b38 f   kernel32:KERNEL32.dll
 0001:00088b3e       _SetConsoleCtrlHandler@8   03089b3e f   kernel32:KERNEL32.dll
 0001:00088b44       _LoadLibraryExW@12         03089b44 f   kernel32:KERNEL32.dll
 0001:00088b4a       _DeleteFileW@4             03089b4a f   kernel32:KERNEL32.dll
 0001:00088b50       _QueryPerformanceCounter@4 03089b50 f   kernel32:KERNEL32.dll
 0001:00088b56       _GetCurrentProcessId@0     03089b56 f   kernel32:KERNEL32.dll
 0001:00088b5c       _GetEnvironmentStringsW@0  03089b5c f   kernel32:KERNEL32.dll
 0001:00088b62       _FreeEnvironmentStringsW@4 03089b62 f   kernel32:KERNEL32.dll
 0001:00088b68       _GetDateFormatW@24         03089b68 f   kernel32:KERNEL32.dll
 0001:00088b6e       _GetTimeFormatW@24         03089b6e f   kernel32:KERNEL32.dll
 0001:00088b74       _CompareStringW@24         03089b74 f   kernel32:KERNEL32.dll
 0001:00088b7a       _LCMapStringW@24           03089b7a f   kernel32:KERNEL32.dll
 0001:00088b80       _GetLocaleInfoW@16         03089b80 f   kernel32:KERNEL32.dll
 0001:00088b86       _IsValidLocale@8           03089b86 f   kernel32:KERNEL32.dll
 0001:00088b8c       _GetUserDefaultLCID@0      03089b8c f   kernel32:KERNEL32.dll
 0001:00088b92       _EnumSystemLocalesW@8      03089b92 f   kernel32:KERNEL32.dll
 0001:00088b98       _HeapReAlloc@16            03089b98 f   kernel32:KERNEL32.dll
 0001:00088b9e       _GetConsoleCP@0            03089b9e f   kernel32:KERNEL32.dll
 0001:00088ba4       _GetConsoleMode@8          03089ba4 f   kernel32:KERNEL32.dll
 0001:00088baa       _SetFilePointerEx@20       03089baa f   kernel32:KERNEL32.dll
 0001:00088bb0       _OutputDebugStringW@4      03089bb0 f   kernel32:KERNEL32.dll
 0001:00088bb6       _GetStringTypeW@16         03089bb6 f   kernel32:KERNEL32.dll
 0001:00088bbc       _SetStdHandle@8            03089bbc f   kernel32:KERNEL32.dll
 0001:00088bc2       _FlushFileBuffers@4        03089bc2 f   kernel32:KERNEL32.dll
 0001:00088bc8       _ReadFile@20               03089bc8 f   kernel32:KERNEL32.dll
 0001:00088bce       _ReadConsoleW@20           03089bce f   kernel32:KERNEL32.dll
 0001:00088bd4       _WriteConsoleW@20          03089bd4 f   kernel32:KERNEL32.dll
 0001:00088bda       _CreateFileW@28            03089bda f   kernel32:KERNEL32.dll
 0001:00088be0       _SetEndOfFile@4            03089be0 f   kernel32:KERNEL32.dll
 0001:00088be6       _SetEnvironmentVariableA@8 03089be6 f   kernel32:KERNEL32.dll
 0001:00088d61       _strupr                    03089d61 f   LIBCMT:strupr.obj
 0001:00088d61       __strupr                   03089d61 f   LIBCMT:strupr.obj
 0001:00088dbc       __strupr_l                 03089dbc f   LIBCMT:strupr.obj
 0001:00088dd4       __strupr_s                 03089dd4 f   LIBCMT:strupr.obj
 0001:00088de9       __strupr_s_l               03089de9 f   LIBCMT:strupr.obj
 0002:00000000       __imp__GetCurrentThread@0  0308b000     kernel32:KERNEL32.dll
 0002:00000004       __imp__SetEndOfFile@4      0308b004     kernel32:KERNEL32.dll
 0002:00000008       __imp__InitializeCriticalSection@4 0308b008     kernel32:KERNEL32.dll
 0002:0000000c       __imp__EnterCriticalSection@4 0308b00c     kernel32:KERNEL32.dll
 0002:00000010       __imp__LeaveCriticalSection@4 0308b010     kernel32:KERNEL32.dll
 0002:00000014       __imp__DeleteCriticalSection@4 0308b014     kernel32:KERNEL32.dll
 0002:00000018       __imp__GetTickCount@0      0308b018     kernel32:KERNEL32.dll
 0002:0000001c       __imp__GetModuleHandleA@4  0308b01c     kernel32:KERNEL32.dll
 0002:00000020       __imp__GetProcAddress@8    0308b020     kernel32:KERNEL32.dll
 0002:00000024       __imp__GetPrivateProfileStringA@24 0308b024     kernel32:KERNEL32.dll
 0002:00000028       __imp__FindClose@4         0308b028     kernel32:KERNEL32.dll
 0002:0000002c       __imp__FindFirstFileA@8    0308b02c     kernel32:KERNEL32.dll
 0002:00000030       __imp__FindNextFileA@8     0308b030     kernel32:KERNEL32.dll
 0002:00000034       __imp__Beep@8              0308b034     kernel32:KERNEL32.dll
 0002:00000038       __imp__CreateThread@24     0308b038     kernel32:KERNEL32.dll
 0002:0000003c       __imp__WritePrivateProfileStringA@16 0308b03c     kernel32:KERNEL32.dll
 0002:00000040       __imp__OutputDebugStringA@4 0308b040     kernel32:KERNEL32.dll
 0002:00000044       __imp__FileTimeToSystemTime@8 0308b044     kernel32:KERNEL32.dll
 0002:00000048       __imp__GetCurrentProcess@0 0308b048     kernel32:KERNEL32.dll
 0002:0000004c       __imp__VirtualProtectEx@20 0308b04c     kernel32:KERNEL32.dll
 0002:00000050       __imp__WriteProcessMemory@20 0308b050     kernel32:KERNEL32.dll
 0002:00000054       __imp__Sleep@4             0308b054     kernel32:KERNEL32.dll
 0002:00000058       __imp__GetModuleFileNameA@12 0308b058     kernel32:KERNEL32.dll
 0002:0000005c       __imp__GetPrivateProfileIntA@16 0308b05c     kernel32:KERNEL32.dll
 0002:00000060       __imp__FreeLibrary@4       0308b060     kernel32:KERNEL32.dll
 0002:00000064       __imp__LoadLibraryA@4      0308b064     kernel32:KERNEL32.dll
 0002:00000068       __imp__WritePrivateProfileSectionA@12 0308b068     kernel32:KERNEL32.dll
 0002:0000006c       __imp__CreateFileW@28      0308b06c     kernel32:KERNEL32.dll
 0002:00000070       __imp__WriteConsoleW@20    0308b070     kernel32:KERNEL32.dll
 0002:00000074       __imp__ReadConsoleW@20     0308b074     kernel32:KERNEL32.dll
 0002:00000078       __imp__ReadFile@20         0308b078     kernel32:KERNEL32.dll
 0002:0000007c       __imp__FlushFileBuffers@4  0308b07c     kernel32:KERNEL32.dll
 0002:00000080       __imp__SetStdHandle@8      0308b080     kernel32:KERNEL32.dll
 0002:00000084       __imp__GetStringTypeW@16   0308b084     kernel32:KERNEL32.dll
 0002:00000088       __imp__SetLastError@4      0308b088     kernel32:KERNEL32.dll
 0002:0000008c       __imp__VirtualProtect@16   0308b08c     kernel32:KERNEL32.dll
 0002:00000090       __imp__FlushInstructionCache@12 0308b090     kernel32:KERNEL32.dll
 0002:00000094       __imp__VirtualQuery@12     0308b094     kernel32:KERNEL32.dll
 0002:00000098       __imp__EncodePointer@4     0308b098     kernel32:KERNEL32.dll
 0002:0000009c       __imp__DecodePointer@4     0308b09c     kernel32:KERNEL32.dll
 0002:000000a0       __imp__RaiseException@16   0308b0a0     kernel32:KERNEL32.dll
 0002:000000a4       __imp__RtlUnwind@16        0308b0a4     kernel32:KERNEL32.dll
 0002:000000a8       __imp__GetLastError@0      0308b0a8     kernel32:KERNEL32.dll
 0002:000000ac       __imp__HeapFree@12         0308b0ac     kernel32:KERNEL32.dll
 0002:000000b0       __imp__HeapAlloc@12        0308b0b0     kernel32:KERNEL32.dll
 0002:000000b4       __imp__GetSystemTimeAsFileTime@4 0308b0b4     kernel32:KERNEL32.dll
 0002:000000b8       __imp__ExitProcess@4       0308b0b8     kernel32:KERNEL32.dll
 0002:000000bc       __imp__GetModuleHandleExW@12 0308b0bc     kernel32:KERNEL32.dll
 0002:000000c0       __imp__AreFileApisANSI@0   0308b0c0     kernel32:KERNEL32.dll
 0002:000000c4       __imp__MultiByteToWideChar@24 0308b0c4     kernel32:KERNEL32.dll
 0002:000000c8       __imp__WideCharToMultiByte@32 0308b0c8     kernel32:KERNEL32.dll
 0002:000000cc       __imp__GetCommandLineA@0   0308b0cc     kernel32:KERNEL32.dll
 0002:000000d0       __imp__GetCurrentThreadId@0 0308b0d0     kernel32:KERNEL32.dll
 0002:000000d4       __imp__IsProcessorFeaturePresent@4 0308b0d4     kernel32:KERNEL32.dll
 0002:000000d8       __imp__HeapSize@12         0308b0d8     kernel32:KERNEL32.dll
 0002:000000dc       __imp__SetEnvironmentVariableA@8 0308b0dc     kernel32:KERNEL32.dll
 0002:000000e0       __imp__IsDebuggerPresent@0 0308b0e0     kernel32:KERNEL32.dll
 0002:000000e4       __imp__GetProcessHeap@0    0308b0e4     kernel32:KERNEL32.dll
 0002:000000e8       __imp__GetStdHandle@4      0308b0e8     kernel32:KERNEL32.dll
 0002:000000ec       __imp__WriteFile@20        0308b0ec     kernel32:KERNEL32.dll
 0002:000000f0       __imp__GetModuleFileNameW@12 0308b0f0     kernel32:KERNEL32.dll
 0002:000000f4       __imp__IsValidCodePage@4   0308b0f4     kernel32:KERNEL32.dll
 0002:000000f8       __imp__GetACP@0            0308b0f8     kernel32:KERNEL32.dll
 0002:000000fc       __imp__GetOEMCP@0          0308b0fc     kernel32:KERNEL32.dll
 0002:00000100       __imp__GetCPInfo@8         0308b100     kernel32:KERNEL32.dll
 0002:00000104       __imp__CreateDirectoryW@8  0308b104     kernel32:KERNEL32.dll
 0002:00000108       __imp__CloseHandle@4       0308b108     kernel32:KERNEL32.dll
 0002:0000010c       __imp__GetFileType@4       0308b10c     kernel32:KERNEL32.dll
 0002:00000110       __imp__GetStartupInfoW@4   0308b110     kernel32:KERNEL32.dll
 0002:00000114       __imp__GetTimeZoneInformation@4 0308b114     kernel32:KERNEL32.dll
 0002:00000118       __imp__GetFileAttributesExW@12 0308b118     kernel32:KERNEL32.dll
 0002:0000011c       __imp__FatalAppExitA@8     0308b11c     kernel32:KERNEL32.dll
 0002:00000120       __imp__UnhandledExceptionFilter@4 0308b120     kernel32:KERNEL32.dll
 0002:00000124       __imp__SetUnhandledExceptionFilter@4 0308b124     kernel32:KERNEL32.dll
 0002:00000128       __imp__InitializeCriticalSectionAndSpinCount@8 0308b128     kernel32:KERNEL32.dll
 0002:0000012c       __imp__CreateEventW@16     0308b12c     kernel32:KERNEL32.dll
 0002:00000130       __imp__TerminateProcess@8  0308b130     kernel32:KERNEL32.dll
 0002:00000134       __imp__TlsAlloc@0          0308b134     kernel32:KERNEL32.dll
 0002:00000138       __imp__TlsGetValue@4       0308b138     kernel32:KERNEL32.dll
 0002:0000013c       __imp__TlsSetValue@8       0308b13c     kernel32:KERNEL32.dll
 0002:00000140       __imp__TlsFree@4           0308b140     kernel32:KERNEL32.dll
 0002:00000144       __imp__GetModuleHandleW@4  0308b144     kernel32:KERNEL32.dll
 0002:00000148       __imp__CreateSemaphoreW@16 0308b148     kernel32:KERNEL32.dll
 0002:0000014c       __imp__SetConsoleCtrlHandler@8 0308b14c     kernel32:KERNEL32.dll
 0002:00000150       __imp__LoadLibraryExW@12   0308b150     kernel32:KERNEL32.dll
 0002:00000154       __imp__DeleteFileW@4       0308b154     kernel32:KERNEL32.dll
 0002:00000158       __imp__QueryPerformanceCounter@4 0308b158     kernel32:KERNEL32.dll
 0002:0000015c       __imp__GetCurrentProcessId@0 0308b15c     kernel32:KERNEL32.dll
 0002:00000160       __imp__GetEnvironmentStringsW@0 0308b160     kernel32:KERNEL32.dll
 0002:00000164       __imp__FreeEnvironmentStringsW@4 0308b164     kernel32:KERNEL32.dll
 0002:00000168       __imp__GetDateFormatW@24   0308b168     kernel32:KERNEL32.dll
 0002:0000016c       __imp__GetTimeFormatW@24   0308b16c     kernel32:KERNEL32.dll
 0002:00000170       __imp__CompareStringW@24   0308b170     kernel32:KERNEL32.dll
 0002:00000174       __imp__LCMapStringW@24     0308b174     kernel32:KERNEL32.dll
 0002:00000178       __imp__GetLocaleInfoW@16   0308b178     kernel32:KERNEL32.dll
 0002:0000017c       __imp__IsValidLocale@8     0308b17c     kernel32:KERNEL32.dll
 0002:00000180       __imp__GetUserDefaultLCID@0 0308b180     kernel32:KERNEL32.dll
 0002:00000184       __imp__EnumSystemLocalesW@8 0308b184     kernel32:KERNEL32.dll
 0002:00000188       __imp__HeapReAlloc@16      0308b188     kernel32:KERNEL32.dll
 0002:0000018c       __imp__GetConsoleCP@0      0308b18c     kernel32:KERNEL32.dll
 0002:00000190       __imp__GetConsoleMode@8    0308b190     kernel32:KERNEL32.dll
 0002:00000194       __imp__SetFilePointerEx@20 0308b194     kernel32:KERNEL32.dll
 0002:00000198       __imp__OutputDebugStringW@4 0308b198     kernel32:KERNEL32.dll
 0002:0000019c       \177KERNEL32_NULL_THUNK_DATA 0308b19c     kernel32:KERNEL32.dll
 0002:000001a0       __imp__ShellExecuteA@24    0308b1a0     shell32:SHELL32.dll
 0002:000001a4       \177SHELL32_NULL_THUNK_DATA 0308b1a4     shell32:SHELL32.dll
 0002:000001a8       __imp__UnhookWindowsHookEx@4 0308b1a8     user32:USER32.dll
 0002:000001ac       __imp__SetWindowsHookExA@16 0308b1ac     user32:USER32.dll
 0002:000001b0       __imp__MessageBoxA@16      0308b1b0     user32:USER32.dll
 0002:000001b4       __imp__CallNextHookEx@16   0308b1b4     user32:USER32.dll
 0002:000001b8       \177USER32_NULL_THUNK_DATA 0308b1b8     user32:USER32.dll
 0002:000001bc       __imp__PlaySoundA@12       0308b1bc     winmm:WINMM.dll
 0002:000001c0       \177WINMM_NULL_THUNK_DATA  0308b1c0     winmm:WINMM.dll
 0002:000001c4       ___xc_a                    0308b1c4     LIBCMT:crt0init.obj
 0002:00000a00       ___xc_z                    0308ba00     LIBCMT:crt0init.obj
 0002:00000a04       ___xi_a                    0308ba04     LIBCMT:crt0init.obj
 0002:00000a20       ___xi_z                    0308ba20     LIBCMT:crt0init.obj
 0002:00000a24       ___xp_a                    0308ba24     LIBCMT:crt0init.obj
 0002:00000a34       ___xp_z                    0308ba34     LIBCMT:crt0init.obj
 0002:00000a38       ___xt_a                    0308ba38     LIBCMT:crt0init.obj
 0002:00000a3c       ___xt_z                    0308ba3c     LIBCMT:crt0init.obj
 0002:00000a78       ??_C@_00CNPNBAHC@?$AA@     0308ba78     EQClasses.obj
 0002:00000a7c       ??_C@_07DFKLKNJN@Warrior?$AA@ 0308ba7c     EQClasses.obj
 0002:00000a84       ??_C@_03HMEPACKF@war?$AA@  0308ba84     EQClasses.obj
 0002:00000a88       ??_C@_06PBHENIKF@Cleric?$AA@ 0308ba88     EQClasses.obj
 0002:00000a90       ??_C@_03KLOMFBDO@clr?$AA@  0308ba90     EQClasses.obj
 0002:00000a94       ??_C@_07DBGCNDAP@Paladin?$AA@ 0308ba94     EQClasses.obj
 0002:00000a9c       ??_C@_03DFNJAFMD@pal?$AA@  0308ba9c     EQClasses.obj
 0002:00000aa0       ??_C@_06MGJHBAMJ@Ranger?$AA@ 0308baa0     EQClasses.obj
 0002:00000aa8       ??_C@_03HHHIFDLO@rng?$AA@  0308baa8     EQClasses.obj
 0002:00000aac       ??_C@_0N@ICIHEJOD@Shadowknight?$AA@ 0308baac     EQClasses.obj
 0002:00000abc       ??_C@_03OAGEBLKK@shd?$AA@  0308babc     EQClasses.obj
 0002:00000ac0       ??_C@_05EDJAKLCL@Druid?$AA@ 0308bac0     EQClasses.obj
 0002:00000ac8       ??_C@_03GPMCHBDK@dru?$AA@  0308bac8     EQClasses.obj
 0002:00000acc       ??_C@_04DOLLCHAJ@Monk?$AA@ 0308bacc     EQClasses.obj
 0002:00000ad4       ??_C@_03NDLHFLHL@mnk?$AA@  0308bad4     EQClasses.obj
 0002:00000ad8       ??_C@_04MOJAIBDA@Bard?$AA@ 0308bad8     EQClasses.obj
 0002:00000ae0       ??_C@_03BJHAANPG@brd?$AA@  0308bae0     EQClasses.obj
 0002:00000ae4       ??_C@_05PIFIONNP@Rogue?$AA@ 0308bae4     EQClasses.obj
 0002:00000aec       ??_C@_03HGLKDJIJ@rog?$AA@  0308baec     EQClasses.obj
 0002:00000af0       ??_C@_06ELHMMIIB@Shaman?$AA@ 0308baf0     EQClasses.obj
 0002:00000af8       ??_C@_03DBKGKAOD@shm?$AA@  0308baf8     EQClasses.obj
 0002:00000afc       ??_C@_0M@OEPIPDJH@Necromancer?$AA@ 0308bafc     EQClasses.obj
 0002:00000b08       ??_C@_03FIOJBHM@nec?$AA@   0308bb08     EQClasses.obj
 0002:00000b0c       ??_C@_06MNAGNDLP@Wizard?$AA@ 0308bb0c     EQClasses.obj
 0002:00000b14       ??_C@_03LKIFNJBF@wiz?$AA@  0308bb14     EQClasses.obj
 0002:00000b18       ??_C@_04EPDGEGDL@Mage?$AA@ 0308bb18     EQClasses.obj
 0002:00000b20       ??_C@_03HEFOFDEK@mag?$AA@  0308bb20     EQClasses.obj
 0002:00000b24       ??_C@_09EEJIJECG@Enchanter?$AA@ 0308bb24     EQClasses.obj
 0002:00000b30       ??_C@_03NONKPJJM@enc?$AA@  0308bb30     EQClasses.obj
 0002:00000b34       ??_C@_09KINPMODP@Beastlord?$AA@ 0308bb34     EQClasses.obj
 0002:00000b40       ??_C@_03FCHAHFJA@bst?$AA@  0308bb40     EQClasses.obj
 0002:00000b44       ??_C@_09MHCCJHFP@Berserker?$AA@ 0308bb44     EQClasses.obj
 0002:00000b50       ??_C@_03BMIBANNE@ber?$AA@  0308bb50     EQClasses.obj
 0002:00000b58       ??_7error_category@std@@6B@ 0308bb58     EQClasses.obj
 0002:00000b74       ??_7_Generic_error_category@std@@6B@ 0308bb74     EQClasses.obj
 0002:00000b8c       ??_C@_07DCLBNMLN@generic?$AA@ 0308bb8c     EQClasses.obj
 0002:00000b94       ??_C@_0O@BFJCFAAK@unknown?5error?$AA@ 0308bb94     EQClasses.obj
 0002:00000ba8       ??_7_Iostream_error_category@std@@6B@ 0308bba8     EQClasses.obj
 0002:00000bc0       ??_C@_08LLGCOLLL@iostream?$AA@ 0308bbc0     EQClasses.obj
 0002:00000bcc       ??_C@_0BG@PADBLCHM@iostream?5stream?5error?$AA@ 0308bbcc     EQClasses.obj
 0002:00000be8       ??_7_System_error_category@std@@6B@ 0308bbe8     EQClasses.obj
 0002:00000c00       ??_C@_06FHFOAHML@system?$AA@ 0308bc00     EQClasses.obj
 0002:00000c08       ??_C@_0BA@JFNIOLAK@string?5too?5long?$AA@ 0308bc08     EQClasses.obj
 0002:00000c18       ??_C@_0BI@CFPLBAOH@invalid?5string?5position?$AA@ 0308bc18     EQClasses.obj
 0002:00000c30       ??_C@_0BE@CGLBCDCF@AddMQ2Benchmark?$CI?$CFs?$CJ?$AA@ 0308bc30     MQ2Benchmarks.obj
 0002:00000c44       ??_C@_0BF@KHBKOLEE@RemoveMQ2Benchmark?$CI?$CJ?$AA@ 0308bc44     MQ2Benchmarks.obj
 0002:00000c5c       ??_C@_0BO@DLFCFMCM@?$AHy?$CFs?$AHx?5completed?5in?5?$AHt?$CF?42f?$AHxs?$AA@ 0308bc5c     MQ2Benchmarks.obj
 0002:00000c7c       ??_C@_0P@IBCBOIHC@MQ2?5Benchmarks?$AA@ 0308bc7c     MQ2Benchmarks.obj
 0002:00000c8c       ??_C@_0P@NMDNEMOJ@?9?9?9?9?9?9?9?9?9?9?9?9?9?9?$AA@ 0308bc8c     MQ2Benchmarks.obj
 0002:00000c9c       ??_C@_0CL@MCBOHMMP@?$FL?$AHy?$CFs?$AHx?$FN?5?$AHt?$CFd?$AHx?5for?5?$AHt?$CFd?$AHxms?0?5?$AHt@ 0308bc9c     MQ2Benchmarks.obj
 0002:00000cc8       ??_C@_0P@BKIFDMBL@End?5Benchmarks?$AA@ 0308bcc8     MQ2Benchmarks.obj
 0002:00000cd8       ??_C@_0BN@PEBLFLBM@?$CF?940s?5?5?$CFd?5for?5?$CFdms?0?5?$CF?42f?5avg?$AA@ 0308bcd8     MQ2Benchmarks.obj
 0002:00000cf8       ??_C@_0BM@HIBOGONL@Initializing?5MQ2?5Benchmarks?$AA@ 0308bcf8     MQ2Benchmarks.obj
 0002:00000d14       ??_C@_0L@OKCGGBKK@?1benchmark?$AA@ 0308bd14     MQ2Benchmarks.obj
 0002:00000d20       ??_C@_0BN@OHNHPACO@Shutting?5down?5MQ2?5Benchmarks?$AA@ 0308bd20     MQ2Benchmarks.obj
 0002:00000d40       __real@447a0000            0308bd40     MQ2Benchmarks.obj
 0002:00000d50       __xmm@41f00000000000000000000000000000 0308bd50     MQ2Benchmarks.obj
 0002:00000d60       ??_C@_0BA@GBDCPMBP@Lax?1Blech?51?47?44?$AA@ 0308bd60     MQ2ChatHook.obj
 0002:00000d70       ??_C@_0BD@KHILPCBD@?$CFs?5tells?5you?0?5?8?$CFs?8?$AA@ 0308bd70     MQ2ChatHook.obj
 0002:00000d84       ??_C@_0BK@BDIMIMLH@?$CK?5?$CFs?5has?5entered?5channel?5?$AA@ 0308bd84     MQ2ChatHook.obj
 0002:00000da0       ??_C@_0BH@DIONLPLP@?$CK?5?$CFs?5has?5left?5channel?5?$AA@ 0308bda0     MQ2ChatHook.obj
 0002:00000db8       ??_C@_07LCCLFCOE@?0?5?$CFs?3?$CFd?$AA@ 0308bdb8     MQ2ChatHook.obj
 0002:00000dc0       ??_C@_05HKPGCKL@?$CFs?3?$CFd?$AA@ 0308bdc0     MQ2ChatHook.obj
 0002:00000dc8       ??_C@_0BH@MBDMBCCK@Initializing?5chat?5hook?$AA@ 0308bdc8     MQ2ChatHook.obj
 0002:00000de0       ??_C@_02DKCKIIND@?$CFs?$AA@ 0308bde0     MQ2ChatHook.obj
 0002:00000de4       ??_C@_0CJ@PFOKGMKL@MQ2?3?5Think?5of?5it?5as?5evolution?5in@ 0308bde4     MQ2CleanUI.obj
 0002:00000e10       ??_C@_0P@KNCDKOBN@EQPlayNice?4dll?$AA@ 0308be10     MQ2CleanUI.obj
 0002:00000e20       ??_C@_0BF@BIGKCLNP@Compat_DrawIndicator?$AA@ 0308be20     MQ2CleanUI.obj
 0002:00000e38       ??_C@_0BL@PDEFKKAN@Initializing?5Display?5Hooks?$AA@ 0308be38     MQ2CleanUI.obj
 0002:00000e54       ??_C@_0BM@IFDPPKEL@Shutting?5down?5Display?5Hooks?$AA@ 0308be54     MQ2CleanUI.obj
 0002:00000e70       ??_C@_04HDOCAJNK@?$CFs?$CFs?$AA@ 0308be70     MQ2CommandAPI.obj
 0002:00000e78       ??_C@_01HCONENDN@?$HL?$AA@ 0308be78     MQ2CommandAPI.obj
 0002:00000e7c       ??_C@_04FHMCPBIP@else?$AA@ 0308be7c     MQ2CommandAPI.obj
 0002:00000e84       ??_C@_0DG@NJPAAPCP@?$HN?5and?5?$HL?5seen?5on?5the?5same?5line?5wi@ 0308be84     MQ2CommandAPI.obj
 0002:00000ebc       ??_C@_0BP@KIHJNNGN@no?5command?5or?5?$HL?5following?5else?$AA@ 0308bebc     MQ2CommandAPI.obj
 0002:00000edc       ??_C@_04FJJPJLP@sub?5?$AA@ 0308bedc     MQ2CommandAPI.obj
 0002:00000ee4       ??_C@_0CC@GOBCALFN@Flow?5ran?5into?5another?5subroutine@ 0308bee4     MQ2CommandAPI.obj
 0002:00000f08       ??_C@_0CA@FCCFHNIH@DoCommand?5?9?5Couldn?8t?5parse?5?8?$CFs?8?$AA@ 0308bf08     MQ2CommandAPI.obj
 0002:00000f28       ??_C@_0BJ@NGFEJMIF@CCommandHook?3?3Detour?$CI?$CFs?$CJ?$AA@ 0308bf28     MQ2CommandAPI.obj
 0002:00000f44       ??_C@_05IKPPFFMB@?1camp?$AA@ 0308bf44     MQ2CommandAPI.obj
 0002:00000f50       ??_C@_0FE@ILGAEGAN@A?5macro?5is?5currently?5running?4?5?5Y@ 0308bf50     MQ2CommandAPI.obj
 0002:00000fa4       ??_C@_01CLKCMJKC@?5?$AA@   0308bfa4     MQ2CommandAPI.obj
 0002:00000fa8       ??_C@_0BE@MCKKGAJC@AddCommand?$CI?$CFs?00x?$CFX?$CJ?$AA@ 0308bfa8     MQ2CommandAPI.obj
 0002:00000fbc       ??_C@_0CG@MENHPNJK@RemoveCommand?3?5Command?5not?5found@ 0308bfbc     MQ2CommandAPI.obj
 0002:00000fe4       ??_C@_0BA@OEDMGGGL@AddAlias?$CI?$CFs?0?$CFs?$CJ?$AA@ 0308bfe4     MQ2CommandAPI.obj
 0002:00000ff4       ??_C@_0BF@PBPJDONC@AddSubstitute?$CI?$CFs?0?$CFs?$CJ?$AA@ 0308bff4     MQ2CommandAPI.obj
 0002:0000100c       ??_C@_0BG@EGPIBHOK@Initializing?5Commands?$AA@ 0308c00c     MQ2CommandAPI.obj
 0002:00001024       ??_C@_04CIAFMFOC@?1who?$AA@ 0308c024     MQ2CommandAPI.obj
 0002:0000102c       ??_C@_01KMDKNFGN@?1?$AA@   0308c02c     MQ2CommandAPI.obj
 0002:00001030       ??_C@_0L@IANKNLKD@?1whotarget?$AA@ 0308c030     MQ2CommandAPI.obj
 0002:0000103c       ??_C@_09JKMALBEG@?1location?$AA@ 0308c03c     MQ2CommandAPI.obj
 0002:00001048       ??_C@_05HDIPJJLA@?1help?$AA@ 0308c048     MQ2CommandAPI.obj
 0002:00001050       ??_C@_07EBKILBIH@?1target?$AA@ 0308c050     MQ2CommandAPI.obj
 0002:00001058       ??_C@_09EOAMHHNG@?1charinfo?$AA@ 0308c058     MQ2CommandAPI.obj
 0002:00001064       ??_C@_07JGJMMIBJ@?1filter?$AA@ 0308c064     MQ2CommandAPI.obj
 0002:0000106c       ??_C@_0L@ECLAFMPA@?1doability?$AA@ 0308c06c     MQ2CommandAPI.obj
 0002:00001078       ??_C@_05PICLBOLP@?1cast?$AA@ 0308c078     MQ2CommandAPI.obj
 0002:00001080       ??_C@_06MPCFBMOM@?1alias?$AA@ 0308c080     MQ2CommandAPI.obj
 0002:00001088       ??_C@_03BDBJGEHK@?1aa?$AA@ 0308c088     MQ2CommandAPI.obj
 0002:0000108c       ??_C@_0M@OFHINLAD@?1substitute?$AA@ 0308c08c     MQ2CommandAPI.obj
 0002:00001098       ??_C@_0L@FHOOKCDN@?1whofilter?$AA@ 0308c098     MQ2CommandAPI.obj
 0002:000010a4       ??_C@_09BOPGIKN@?1spewfile?$AA@ 0308c0a4     MQ2CommandAPI.obj
 0002:000010b0       ??_C@_05MMNLIBKN@?1char?$AA@ 0308c0b0     MQ2CommandAPI.obj
 0002:000010b8       ??_C@_05HPDEBBKP@?1face?$AA@ 0308c0b8     MQ2CommandAPI.obj
 0002:000010c0       ??_C@_09BFOJNAKJ@?1identify?$AA@ 0308c0c0     MQ2CommandAPI.obj
 0002:000010cc       ??_C@_06KHAEEMOM@?1where?$AA@ 0308c0cc     MQ2CommandAPI.obj
 0002:000010d4       ??_C@_07KFDFCALF@?1skills?$AA@ 0308c0d4     MQ2CommandAPI.obj
 0002:000010dc       ??_C@_07EBCGLDGH@?1unload?$AA@ 0308c0dc     MQ2CommandAPI.obj
 0002:000010e4       ??_C@_06NHNNLIDG@?1macro?$AA@ 0308c0e4     MQ2CommandAPI.obj
 0002:000010ec       ??_C@_08KKDNJMLG@?1buyitem?$AA@ 0308c0ec     MQ2CommandAPI.obj
 0002:000010f8       ??_C@_09COBGEJHN@?1sellitem?$AA@ 0308c0f8     MQ2CommandAPI.obj
 0002:00001104       ??_C@_09INHMKEKD@?1memspell?$AA@ 0308c104     MQ2CommandAPI.obj
 0002:00001110       ??_C@_0M@DIELHCDN@?1loadspells?$AA@ 0308c110     MQ2CommandAPI.obj
 0002:0000111c       ??_C@_0L@MCPOMPOM@?1loginname?$AA@ 0308c11c     MQ2CommandAPI.obj
 0002:00001128       ??_C@_09ICPEAAIC@?1endmacro?$AA@ 0308c128     MQ2CommandAPI.obj
 0002:00001134       ??_C@_0M@JHDAEFO@?1listmacros?$AA@ 0308c134     MQ2CommandAPI.obj
 0002:00001140       ??_C@_05GECHKEJP@?1echo?$AA@ 0308c140     MQ2CommandAPI.obj
 0002:00001148       ??_C@_07MDAMOJBA@?1msgbox?$AA@ 0308c148     MQ2CommandAPI.obj
 0002:00001150       ??_C@_08EAOLFCNC@?1lootall?$AA@ 0308c150     MQ2CommandAPI.obj
 0002:0000115c       ??_C@_06NENCCILK@?1alert?$AA@ 0308c15c     MQ2CommandAPI.obj
 0002:00001164       ??_C@_06DHCPBNA@?1click?$AA@ 0308c164     MQ2CommandAPI.obj
 0002:0000116c       ??_C@_08PIODICKP@?1mqpause?$AA@ 0308c16c     MQ2CommandAPI.obj
 0002:00001178       ??_C@_06DACKAEBO@?1items?$AA@ 0308c178     MQ2CommandAPI.obj
 0002:00001180       ??_C@_0M@JMINGACM@?1itemtarget?$AA@ 0308c180     MQ2CommandAPI.obj
 0002:0000118c       ??_C@_06ODEDLFHK@?1doors?$AA@ 0308c18c     MQ2CommandAPI.obj
 0002:00001194       ??_C@_0M@LIOCPOCN@?1doortarget?$AA@ 0308c194     MQ2CommandAPI.obj
 0002:000011a0       ??_C@_05DGOOLKJO@?1beep?$AA@ 0308c1a0     MQ2CommandAPI.obj
 0002:000011a8       ??_C@_06DDHJIFMJ@?1mqlog?$AA@ 0308c1a8     MQ2CommandAPI.obj
 0002:000011b0       ??_C@_09KPLOLIBL@?1seterror?$AA@ 0308c1b0     MQ2CommandAPI.obj
 0002:000011bc       ??_C@_08NHFGDPCC@?1declare?$AA@ 0308c1bc     MQ2CommandAPI.obj
 0002:000011c8       ??_C@_0L@MKAHHBJM@?1deletevar?$AA@ 0308c1c8     MQ2CommandAPI.obj
 0002:000011d4       ??_C@_08BHLPECHE@?1varcalc?$AA@ 0308c1d4     MQ2CommandAPI.obj
 0002:000011e0       ??_C@_07JEMGAGG@?1varset?$AA@ 0308c1e0     MQ2CommandAPI.obj
 0002:000011e8       ??_C@_08IFJMAOCO@?1vardata?$AA@ 0308c1e8     MQ2CommandAPI.obj
 0002:000011f4       ??_C@_06FPMJPHJG@?1delay?$AA@ 0308c1f4     MQ2CommandAPI.obj
 0002:000011fc       ??_C@_08MFLLEID@?1cleanup?$AA@ 0308c1fc     MQ2CommandAPI.obj
 0002:00001208       ??_C@_09HDFDLCEB@?1doevents?$AA@ 0308c208     MQ2CommandAPI.obj
 0002:00001214       ??_C@_05EBANBCFD@?1goto?$AA@ 0308c214     MQ2CommandAPI.obj
 0002:0000121c       ??_C@_04DKIDIPIB@?1for?$AA@ 0308c21c     MQ2CommandAPI.obj
 0002:00001224       ??_C@_05IDIMKCLI@?1next?$AA@ 0308c224     MQ2CommandAPI.obj
 0002:0000122c       ??_C@_05GNEKGCKL@?1call?$AA@ 0308c22c     MQ2CommandAPI.obj
 0002:00001234       ??_C@_07GFPNODDB@?1return?$AA@ 0308c234     MQ2CommandAPI.obj
 0002:0000123c       ??_C@_0N@CPICCDIF@?1updateitems?$AA@ 0308c23c     MQ2CommandAPI.obj
 0002:0000124c       ??_C@_04MKBEDOHK@?1ini?$AA@ 0308c24c     MQ2CommandAPI.obj
 0002:00001254       ??_C@_0L@IKEEBMMA@?1dumpstack?$AA@ 0308c254     MQ2CommandAPI.obj
 0002:00001260       ??_C@_0M@FCHMGAGB@?1setautorun?$AA@ 0308c260     MQ2CommandAPI.obj
 0002:0000126c       ??_C@_09HCEFEGMM@?1banklist?$AA@ 0308c26c     MQ2CommandAPI.obj
 0002:00001278       ??_C@_05ECMCKKNH@?1look?$AA@ 0308c278     MQ2CommandAPI.obj
 0002:00001280       ??_C@_09ILJKCIHG@?1keepkeys?$AA@ 0308c280     MQ2CommandAPI.obj
 0002:0000128c       ??_C@_0N@LIGHKJMK@?1windowstate?$AA@ 0308c28c     MQ2CommandAPI.obj
 0002:0000129c       ??_C@_07CGOFJOF@?1plugin?$AA@ 0308c29c     MQ2CommandAPI.obj
 0002:000012a4       ??_C@_08DEDFHEPF@?1destroy?$AA@ 0308c2a4     MQ2CommandAPI.obj
 0002:000012b0       ??_C@_05EHFCKIFO@?1exec?$AA@ 0308c2b0     MQ2CommandAPI.obj
 0002:000012b8       ??_C@_09ELIDKOOJ@?1keypress?$AA@ 0308c2b8     MQ2CommandAPI.obj
 0002:000012c4       ??_C@_06FNBMPHHI@?1popup?$AA@ 0308c2c4     MQ2CommandAPI.obj
 0002:000012cc       ??_C@_0L@OPIGHIAL@?1multiline?$AA@ 0308c2cc     MQ2CommandAPI.obj
 0002:000012d8       ??_C@_05FOMDDNJC@?1bind?$AA@ 0308c2d8     MQ2CommandAPI.obj
 0002:000012e0       ??_C@_07MNKKOMGP@?1ranged?$AA@ 0308c2e0     MQ2CommandAPI.obj
 0002:000012e8       ??_C@_08FOGLDALG@?1loadcfg?$AA@ 0308c2e8     MQ2CommandAPI.obj
 0002:000012f4       ??_C@_0L@FIJAAEH@?1dumpbinds?$AA@ 0308c2f4     MQ2CommandAPI.obj
 0002:00001300       ??_C@_08LAAGFDON@?1squelch?$AA@ 0308c300     MQ2CommandAPI.obj
 0002:0000130c       ??_C@_09JGKEOKPK@?1dosocial?$AA@ 0308c30c     MQ2CommandAPI.obj
 0002:00001318       ??_C@_0L@OMNKDDLO@?1docommand?$AA@ 0308c318     MQ2CommandAPI.obj
 0002:00001324       ??_C@_08EEBDHILD@?1ctrlkey?$AA@ 0308c324     MQ2CommandAPI.obj
 0002:00001330       ??_C@_07LIOICFGF@?1altkey?$AA@ 0308c330     MQ2CommandAPI.obj
 0002:00001338       ??_C@_09PIBEJDMC@?1shiftkey?$AA@ 0308c338     MQ2CommandAPI.obj
 0002:00001344       ??_C@_06NJDGLLKJ@?1timed?$AA@ 0308c344     MQ2CommandAPI.obj
 0002:0000134c       ??_C@_03FCELKDAF@?1if?$AA@ 0308c34c     MQ2CommandAPI.obj
 0002:00001350       ??_C@_08CMFBMEJP@?1combine?$AA@ 0308c350     MQ2CommandAPI.obj
 0002:0000135c       ??_C@_0N@NPHAFMPN@?1clearerrors?$AA@ 0308c35c     MQ2CommandAPI.obj
 0002:0000136c       ??_C@_05HJPHKFMO@?1drop?$AA@ 0308c36c     MQ2CommandAPI.obj
 0002:00001374       ??_C@_04NHHFGLMD@?1hud?$AA@ 0308c374     MQ2CommandAPI.obj
 0002:0000137c       ??_C@_08MOLAHPFJ@?1caption?$AA@ 0308c37c     MQ2CommandAPI.obj
 0002:00001388       ??_C@_0O@CMAIFLBK@?1captioncolor?$AA@ 0308c388     MQ2CommandAPI.obj
 0002:00001398       ??_C@_08NMFKFKGG@?1noparse?$AA@ 0308c398     MQ2CommandAPI.obj
 0002:000013a4       ??_C@_09BMPONNKE@?1nomodkey?$AA@ 0308c3a4     MQ2CommandAPI.obj
 0002:000013b0       ??_C@_05PMAEFPM@?1duel?$AA@ 0308c3b0     MQ2CommandAPI.obj
 0002:000013b8       ??_C@_02DCDOIJJD@?1d?$AA@  0308c3b8     MQ2CommandAPI.obj
 0002:000013bc       ??_C@_05DAOILOGO@?1tell?$AA@ 0308c3bc     MQ2CommandAPI.obj
 0002:000013c4       ??_C@_02HIPMJLMC@?1t?$AA@  0308c3c4     MQ2CommandAPI.obj
 0002:000013c8       ??_C@_02FDNBMIAB@?1w?$AA@  0308c3c8     MQ2CommandAPI.obj
 0002:000013cc       ??_C@_0L@IBDIANPL@?1anonymous?$AA@ 0308c3cc     MQ2CommandAPI.obj
 0002:000013d8       ??_C@_02EPEJHNNG@?1a?$AA@  0308c3d8     MQ2CommandAPI.obj
 0002:000013dc       ??_C@_04PIDLFPBN@?1tap?$AA@ 0308c3dc     MQ2CommandAPI.obj
 0002:000013e4       ??_C@_03JPEAFOB@?1ta?$AA@  0308c3e4     MQ2CommandAPI.obj
 0002:000013e8       ??_C@_09OLEKOPKC@?1consider?$AA@ 0308c3e8     MQ2CommandAPI.obj
 0002:000013f4       ??_C@_02HNHPBPFE@?1c?$AA@  0308c3f4     MQ2CommandAPI.obj
 0002:000013f8       ??_C@_08BLIELLHK@?1channel?$AA@ 0308c3f8     MQ2CommandAPI.obj
 0002:00001404       ??_C@_04GJPNCIKE@?1cha?$AA@ 0308c404     MQ2CommandAPI.obj
 0002:0000140c       ??_C@_09PDEKMEHF@?1feedback?$AA@ 0308c40c     MQ2CommandAPI.obj
 0002:00001418       ??_C@_02IOLBB@?1f?$AA@     0308c418     MQ2CommandAPI.obj
 0002:0000141c       ??_C@_09BNBIFOMP@?1fastdrop?$AA@ 0308c41c     MQ2CommandAPI.obj
 0002:00001428       ??_C@_03BGFGHCPP@?1fa?$AA@ 0308c428     MQ2CommandAPI.obj
 0002:0000142c       ??_C@_04MPALLEIA@?1msg?$AA@ 0308c42c     MQ2CommandAPI.obj
 0002:00001434       ??_C@_02ODPMDCNK@?1m?$AA@  0308c434     MQ2CommandAPI.obj
 0002:00001438       ??_C@_05MPMEJLBC@?1load?$AA@ 0308c438     MQ2CommandAPI.obj
 0002:00001440       ??_C@_07BOOADDE@?1bazaar?$AA@ 0308c440     MQ2CommandAPI.obj
 0002:00001448       ??_C@_02GEGECOBF@?1b?$AA@  0308c448     MQ2CommandAPI.obj
 0002:0000144c       ??_C@_03BBFPNKCD@?1ba?$AA@ 0308c44c     MQ2CommandAPI.obj
 0002:00001450       ??_C@_05FNLHCODI@?1gsay?$AA@ 0308c450     MQ2CommandAPI.obj
 0002:00001458       ??_C@_02BJBDNKFA@?1g?$AA@  0308c458     MQ2CommandAPI.obj
 0002:0000145c       ??_C@_09LNFJMHAN@?1guildsay?$AA@ 0308c45c     MQ2CommandAPI.obj
 0002:00001468       ??_C@_03DJDKMPJN@?1gu?$AA@ 0308c468     MQ2CommandAPI.obj
 0002:0000146c       ??_C@_05FOPNBDI@?1keys?$AA@ 0308c46c     MQ2CommandAPI.obj
 0002:00001474       ??_C@_04CGIKALEB@?1key?$AA@ 0308c474     MQ2CommandAPI.obj
 0002:0000147c       ??_C@_06JIFBGNGE@?1reply?$AA@ 0308c47c     MQ2CommandAPI.obj
 0002:00001484       ??_C@_02COKGDMEE@?1r?$AA@  0308c484     MQ2CommandAPI.obj
 0002:00001488       ??_C@_06LKADFLEI@?1newif?$AA@ 0308c488     MQ2CommandAPI.obj
 0002:00001490       ??_C@_0BC@NGKFKJCB@?$CFs?2macroquest?4ini?$AA@ 0308c490     MQ2CommandAPI.obj
 0002:000014a4       ??_C@_07ILNBOIJH@Aliases?$AA@ 0308c4a4     MQ2CommandAPI.obj
 0002:000014ac       ??_C@_09OBOAKPMA@Oh?5My?5God?$AA@ 0308c4ac     MQ2CommandAPI.obj
 0002:000014b8       ??_C@_03NHENGCKF@omg?$AA@  0308c4b8     MQ2CommandAPI.obj
 0002:000014bc       ??_C@_0O@MJPLGCNG@Substitutions?$AA@ 0308c4bc     MQ2CommandAPI.obj
 0002:000014d0       ??_7MQ2Type@MQ2Internal@@6B@ 0308c4d0     MQ2Commands.obj
 0002:000014e8       ??_C@_0P@HPHJOKMH@LDoN?5Recruiter?$AA@ 0308c4e8     MQ2Commands.obj
 0002:000014f8       ??_C@_0O@MIBKNJNC@LDoN?5Merchant?$AA@ 0308c4f8     MQ2Commands.obj
 0002:00001508       ??_C@_0BE@LNFKOHCE@Destructible?5Object?$AA@ 0308c508     MQ2Commands.obj
 0002:0000151c       ??_C@_0P@BKNMCCED@Tribute?5Master?$AA@ 0308c51c     MQ2Commands.obj
 0002:0000152c       ??_C@_0BF@KMGKBJKG@Guild?5Tribute?5Master?$AA@ 0308c52c     MQ2Commands.obj
 0002:00001544       ??_C@_0N@BNCLDFOJ@Guild?5Banker?$AA@ 0308c544     MQ2Commands.obj
 0002:00001554       ??_C@_0N@HNJJIAEL@DoN?5Merchant?$AA@ 0308c554     MQ2Commands.obj
 0002:00001564       ??_C@_0BF@KHOIGALG@Fellowship?5Registrar?$AA@ 0308c564     MQ2Commands.obj
 0002:0000157c       ??_C@_08HIHFOLBK@Merchant?$AA@ 0308c57c     MQ2Commands.obj
 0002:00001588       ??_C@_0BC@MKJKIPEE@Mercenary?5Liaison?$AA@ 0308c588     MQ2Commands.obj
 0002:0000159c       ??_C@_04CLDMMPGN@Aura?$AA@ 0308c59c     MQ2Commands.obj
 0002:000015a4       ??_C@_06NMEBMDIN@Banner?$AA@ 0308c5a4     MQ2Commands.obj
 0002:000015ac       ??_C@_08BMEIENOK@Campfire?$AA@ 0308c5ac     MQ2Commands.obj
 0002:000015bc       ??_7MQ2TicksType@@6B@      0308c5bc     MQ2Commands.obj
 0002:000015d4       ??_C@_05CDKPFCKO@ticks?$AA@ 0308c5d4     MQ2Commands.obj
 0002:000015dc       ??_C@_05LJNCPAGE@Hours?$AA@ 0308c5dc     MQ2Commands.obj
 0002:000015e4       ??_C@_07JLPEOLDM@Minutes?$AA@ 0308c5e4     MQ2Commands.obj
 0002:000015ec       ??_C@_07JNMNODGA@Seconds?$AA@ 0308c5ec     MQ2Commands.obj
 0002:000015f4       ??_C@_04OKOFBOPB@Time?$AA@ 0308c5f4     MQ2Commands.obj
 0002:000015fc       ??_C@_0N@KINOOAMG@TotalMinutes?$AA@ 0308c5fc     MQ2Commands.obj
 0002:0000160c       ??_C@_0N@KOOHOIJK@TotalSeconds?$AA@ 0308c60c     MQ2Commands.obj
 0002:0000161c       ??_C@_05CEADFHJI@Ticks?$AA@ 0308c61c     MQ2Commands.obj
 0002:00001624       ??_C@_07HFDFAPD@TimeHMS?$AA@ 0308c624     MQ2Commands.obj
 0002:0000162c       ??_C@_05KOHFLOFG@Level?$AA@ 0308c62c     MQ2Commands.obj
 0002:00001634       ??_C@_08DFKPLDPN@Distance?$AA@ 0308c634     MQ2Commands.obj
 0002:00001640       ??_C@_05JODGIKH@Light?$AA@ 0308c640     MQ2Commands.obj
 0002:00001648       ??_C@_04MJIIEFNN@Body?$AA@ 0308c648     MQ2Commands.obj
 0002:00001650       ??_C@_05GLCACPFJ@Guild?$AA@ 0308c650     MQ2Commands.obj
 0002:00001658       ??_C@_03BAPJJKHI@Pet?$AA@  0308c658     MQ2Commands.obj
 0002:0000165c       ??_C@_04KKIPOOLE@Race?$AA@ 0308c65c     MQ2Commands.obj
 0002:00001664       ??_C@_05EKAMNAII@Class?$AA@ 0308c664     MQ2Commands.obj
 0002:0000166c       ??_C@_02DALMIMOA@GM?$AA@   0308c66c     MQ2Commands.obj
 0002:00001670       ??_C@_07CAAEHIKN@Holding?$AA@ 0308c670     MQ2Commands.obj
 0002:00001678       ??_C@_03MEFGOPNG@LFG?$AA@  0308c678     MQ2Commands.obj
 0002:0000167c       ??_C@_06LAOAGNPJ@Trader?$AA@ 0308c67c     MQ2Commands.obj
 0002:00001684       ??_C@_03JKIJHIAH@AFK?$AA@  0308c684     MQ2Commands.obj
 0002:00001688       ??_C@_08JBHHBGLA@ConColor?$AA@ 0308c688     MQ2Commands.obj
 0002:00001694       ??_C@_04NHONDGDE@item?$AA@ 0308c694     MQ2Commands.obj
 0002:0000169c       ??_C@_05MCIGIPJO@macro?$AA@ 0308c69c     MQ2Commands.obj
 0002:000016a4       ??_C@_04GLEOMBLA@race?$AA@ 0308c6a4     MQ2Commands.obj
 0002:000016ac       ??_C@_05ENKANFLO@class?$AA@ 0308c6ac     MQ2Commands.obj
 0002:000016b4       ??_C@_07MBJMFGGL@heading?$AA@ 0308c6b4     MQ2Commands.obj
 0002:000016bc       ??_C@_06JJLAMBGK@target?$AA@ 0308c6bc     MQ2Commands.obj
 0002:000016c4       ??_C@_0BB@HIDKNEJD@MQ2?5Unloading?4?4?4?$AA@ 0308c6c4     MQ2Commands.obj
 0002:000016d8       ??_C@_09GOEPMGFE@?$CFs?2?$CK?$CFs?$CK?4?$CK?$AA@ 0308c6d8     MQ2Commands.obj
 0002:000016e4       ??_C@_06BNHEIDIH@?$CFs?2?$CK?4?$CK?$AA@ 0308c6e4     MQ2Commands.obj
 0002:000016ec       ??_C@_0BJ@BLAMALJF@Couldn?8t?5find?5any?5macros?$AA@ 0308c6ec     MQ2Commands.obj
 0002:00001708       ??_C@_0L@EBEACPDN@Macro?5list?$AA@ 0308c708     MQ2Commands.obj
 0002:00001714       ??_C@_0BB@OAGJBGHP@?9?9?9?9?9?9?9?9?9?9?9?9?9?9?9?9?$AA@ 0308c714     MQ2Commands.obj
 0002:00001728       ??_C@_0BF@FCEHKDNN@Items?5on?5the?5ground?3?$AA@ 0308c728     MQ2Commands.obj
 0002:00001740       ??_C@_0BM@DKGMJKGP@?9?9?9?9?9?9?9?9?9?9?9?9?9?9?9?9?9?9?9?9?9?9?9?9?9?9?9?$AA@ 0308c740     MQ2Commands.obj
 0002:0000175c       ??_C@_0CG@PDFGJMLA@?5?5?5Item?5found?5?9?5?$CFd?3?5DropID?5?$CFd?5?$CFs@ 0308c75c     MQ2Commands.obj
 0002:00001784       ??_C@_0BJ@MJGHBAII@?$CFs?3?5?$CF1?42f?5away?5to?5the?5?$CFs?$AA@ 0308c784     MQ2Commands.obj
 0002:000017a0       ??_C@_0BA@OCFEEJJD@No?5items?5found?4?$AA@ 0308c7a0     MQ2Commands.obj
 0002:000017b0       ??_C@_01LKDEMHDF@s?$AA@    0308c7b0     MQ2Commands.obj
 0002:000017b4       ??_C@_0BB@NMCFJNCL@?$CFd?5item?$CFs?5found?4?$AA@ 0308c7b4     MQ2Commands.obj
 0002:000017c8       ??_C@_0BE@GGABMIMN@Item?5?8?$CFs?8?5targeted?4?$AA@ 0308c7c8     MQ2Commands.obj
 0002:000017dc       ??_C@_08HPLPOCJL@notarget?$AA@ 0308c7dc     MQ2Commands.obj
 0002:000017e8       ??_C@_0BO@HHPFLNLE@Couldn?8t?5find?5?8?$CFs?8?5to?5target?4?$AA@ 0308c7e8     MQ2Commands.obj
 0002:00001808       ??_C@_06ICDPEMJP@Doors?3?$AA@ 0308c808     MQ2Commands.obj
 0002:00001810       ??_C@_0BN@OGLAMBEN@?$CFd?3?5?$CFs?3?5?$CF1?42f?5away?5to?5the?5?$CFs?$AA@ 0308c810     MQ2Commands.obj
 0002:00001830       ??_C@_0BA@FPIGKJAL@No?5Doors?5found?4?$AA@ 0308c830     MQ2Commands.obj
 0002:00001840       ??_C@_0BB@OPCICMGF@?$CFd?5door?$CFs?5found?4?$AA@ 0308c840     MQ2Commands.obj
 0002:00001854       ??_C@_02EGCJHIOB@id?$AA@   0308c854     MQ2Commands.obj
 0002:00001858       ??_C@_0DB@BINHDJPL@DoorTarget?3?5id?5specified?5but?5no?5@ 0308c858     MQ2Commands.obj
 0002:0000188c       ??_C@_0BH@LMEMPMP@Door?5?$CFd?5?8?$CFs?8?5targeted?4?$AA@ 0308c88c     MQ2Commands.obj
 0002:000018a4       ??_C@_0CD@FLDBPLKD@Couldn?8t?5find?5door?5?8?$CFs?8?5to?5targe@ 0308c8a4     MQ2Commands.obj
 0002:000018c8       ??_C@_0DC@GAHHIPAG@The?5location?5of?5your?5bind?5is?3?5?$CF1@ 0308c8c8     MQ2Commands.obj
 0002:000018fc       ??_C@_0BL@IIBCJNF@?5?5?5New?5Item?5found?5?9?5?$CFd?3?5?$CFs?$AA@ 0308c8fc     MQ2Commands.obj
 0002:00001918       ??_C@_0BA@BKMNCINB@?5?5?5Opening?5Pack?$AA@ 0308c918     MQ2Commands.obj
 0002:00001928       ??_C@_0BO@BDHIICDM@?5?5?5?5?5?5New?5Item?5found?5?9?5?$CFd?3?5?$CFs?$AA@ 0308c928     MQ2Commands.obj
 0002:00001948       ??_C@_02BKFDOEMK@wt?$AA@   0308c948     MQ2Commands.obj
 0002:0000194c       ??_C@_06FKNHHIAI@?$CFd?7?$CFs?6?$AA@ 0308c94c     MQ2Commands.obj
 0002:00001954       ??_C@_0M@IJMEKKGG@Mem?5a?5Spell?$AA@ 0308c954     MQ2Commands.obj
 0002:00001960       ??_C@_0DC@BIFHEIOG@Macro?5will?5display?5a?5list?5of?5Mac@ 0308c960     MQ2Commands.obj
 0002:00001994       ??_C@_0CC@PNLGMHMM@Help?5?9?5Displaying?5MacroQuest?5hel@ 0308c994     MQ2Commands.obj
 0002:000019b8       ??_C@_0BA@JOGAALFN@MacroQuest?5?9?5?$CFs?$AA@ 0308c9b8     MQ2Commands.obj
 0002:000019c8       ??_C@_0BB@OGFLECMB@List?5of?5commands?$AA@ 0308c9c8     MQ2Commands.obj
 0002:000019dc       ??_C@_0CL@KBHDLLHO@?9?9?9?9?9?9?9?9?9?9?9?9?9?9?9?9?9?9?9?9?9?9?9?9?9?9?9?9?9?9?9?9@ 0308c9dc     MQ2Commands.obj
 0002:00001a08       ??_C@_04GCLKCGOG@?5?5?$CFs?$AA@ 0308ca08     MQ2Commands.obj
 0002:00001a10       ??_C@_08INDPKANN@Lastname?$AA@ 0308ca10     MQ2Commands.obj
 0002:00001a1c       ??_C@_02ONCLNIEI@LD?$AA@   0308ca1c     MQ2Commands.obj
 0002:00001a20       ??_C@_05CBMBPJGD@Sneak?$AA@ 0308ca20     MQ2Commands.obj
 0002:00001a28       ??_C@_06ECLMMAEJ@NPCTag?$AA@ 0308ca28     MQ2Commands.obj
 0002:00001a30       ??_C@_07BFOBFIMG@SpawnID?$AA@ 0308ca30     MQ2Commands.obj
 0002:00001a38       ??_C@_04DPECDDBP@Anon?$AA@ 0308ca38     MQ2Commands.obj
 0002:00001a40       ??_C@_09MLILFJ@invisible?$AA@ 0308ca40     MQ2Commands.obj
 0002:00001a4c       ??_C@_09EPJGIIIJ@Invisible?$AA@ 0308ca4c     MQ2Commands.obj
 0002:00001a58       ??_C@_0JL@EJLJLBKJ@Usage?3?5?1whofilter?5?$DMlastname?$HMclas@ 0308ca58     MQ2Commands.obj
 0002:00001af4       ??_C@_03NFKEKGGK@all?$AA@  0308caf4     MQ2Commands.obj
 0002:00001af8       ??_C@_08EMJGLFCF@increase?$AA@ 0308caf8     MQ2Commands.obj
 0002:00001b04       ??_C@_04CGFJFPFD@none?$AA@ 0308cb04     MQ2Commands.obj
 0002:00001b0c       ??_C@_08PBIOHFOH@enhanced?$AA@ 0308cb0c     MQ2Commands.obj
 0002:00001b18       ??_C@_0L@ECIKHNBL@macroended?$AA@ 0308cb18     MQ2Commands.obj
 0002:00001b24       ??_C@_03MCADLMAF@off?$AA@  0308cb24     MQ2Commands.obj
 0002:00001b28       ??_C@_02LIELOMNJ@on?$AA@   0308cb28     MQ2Commands.obj
 0002:00001b30       ??_C@_0EH@FBJHCHMA@skills?0?5target?0?5money?0?5encumber?0@ 0308cb30     MQ2Commands.obj
 0002:00001b78       ??_C@_06HNCNFAFI@skills?$AA@ 0308cb78     MQ2Commands.obj
 0002:00001b80       ??_C@_06BDGHBCPJ@macros?$AA@ 0308cb80     MQ2Commands.obj
 0002:00001b88       ??_C@_04MEMAJGDJ@name?$AA@ 0308cb88     MQ2Commands.obj
 0002:00001b90       ??_C@_04OPAEPOE@food?$AA@  0308cb90     MQ2Commands.obj
 0002:00001b98       ??_C@_05IKCNOJAA@money?$AA@ 0308cb98     MQ2Commands.obj
 0002:00001ba0       ??_C@_08IIEKMJPC@encumber?$AA@ 0308cba0     MQ2Commands.obj
 0002:00001bac       ??_C@_02HGJFDGCJ@mq?$AA@   0308cbac     MQ2Commands.obj
 0002:00001bb0       ??_C@_05GFCDIDHO@debug?$AA@ 0308cbb0     MQ2Commands.obj
 0002:00001bb8       ??_C@_06EGNIJPKE@zrange?$AA@ 0308cbb8     MQ2Commands.obj
 0002:00001bc0       ??_C@_04OHJIHAFH@None?$AA@ 0308cbc0     MQ2Commands.obj
 0002:00001bc8       ??_C@_08MOGHDHIG@Increase?$AA@ 0308cbc8     MQ2Commands.obj
 0002:00001bd4       ??_C@_03HFJGAJFE@All?$AA@  0308cbd4     MQ2Commands.obj
 0002:00001bd8       ??_C@_0CC@LIDGFLKL@Filtering?5of?5skills?5is?5set?5to?3?5?$CF@ 0308cbd8     MQ2Commands.obj
 0002:00001bfc       ??_C@_0CD@HHLADIOG@Filtering?5of?5skills?5changed?5to?3?5@ 0308cbfc     MQ2Commands.obj
 0002:00001c20       ??_C@_0N@NFPGJLMM@FilterSkills?$AA@ 0308cc20     MQ2Commands.obj
 0002:00001c30       ??_C@_0L@KGBILLBC@MacroQuest?$AA@ 0308cc30     MQ2Commands.obj
 0002:00001c3c       ??_C@_0CK@LKINODNM@Usage?3?5?1filter?5skills?5?$FLall?$HMincre@ 0308cc3c     MQ2Commands.obj
 0002:00001c68       ??_C@_0CC@GOAJOLKI@Filtering?5of?5macros?5is?5set?5to?3?5?$CF@ 0308cc68     MQ2Commands.obj
 0002:00001c8c       ??_C@_0CD@OOGPFGOM@Filtering?5of?5macros?5changed?5to?3?5@ 0308cc8c     MQ2Commands.obj
 0002:00001cb0       ??_C@_0M@HOJCEODD@FilterMacro?$AA@ 0308ccb0     MQ2Commands.obj
 0002:00001cbc       ??_C@_0DF@JGHHJBH@Usage?3?5?1filter?5macros?5?$FLall?$HMenhan@ 0308ccbc     MQ2Commands.obj
 0002:00001cf4       ??_C@_0BO@BGPPDGKF@Filtering?5of?5MQ?5is?5set?5to?3?5?$CFs?$AA@ 0308ccf4     MQ2Commands.obj
 0002:00001d14       ??_C@_0BP@JAKGNMIM@Filtering?5of?5MQ?5changed?5to?3?5?$CFs?$AA@ 0308cd14     MQ2Commands.obj
 0002:00001d34       ??_C@_08OMHJKBKG@FilterMQ?$AA@ 0308cd34     MQ2Commands.obj
 0002:00001d40       ??_C@_0BL@IKOCEIMD@Usage?3?5?1filter?5mq?5?$FLon?$HMoff?$FN?$AA@ 0308cd40     MQ2Commands.obj
 0002:00001d5c       ??_C@_07BCKIDDEE@mq2data?$AA@ 0308cd5c     MQ2Commands.obj
 0002:00001d64       ??_C@_0CK@IIHIOBIA@Filtering?5of?5MQ2Data?5Errors?5is?5s@ 0308cd64     MQ2Commands.obj
 0002:00001d90       ??_C@_0O@OLBOKJEK@FilterMQ2Data?$AA@ 0308cd90     MQ2Commands.obj
 0002:00001da0       ??_C@_0CA@PPJJAGJF@Usage?3?5?1filter?5mq2data?5?$FLon?$HMoff?$FN?$AA@ 0308cda0     MQ2Commands.obj
 0002:00001dc0       ??_C@_0DA@LIIHININ@Filtering?5of?5target?5lost?5message@ 0308cdc0     MQ2Commands.obj
 0002:00001df0       ??_C@_0DB@KFLNAMMN@Filtering?5of?5target?5lost?5message@ 0308cdf0     MQ2Commands.obj
 0002:00001e24       ??_C@_0N@DBGLAKPO@FilterTarget?$AA@ 0308ce24     MQ2Commands.obj
 0002:00001e34       ??_C@_0BP@IPGHEOAK@Usage?3?5?1filter?5target?5?$FLon?$HMoff?$FN?$AA@ 0308ce34     MQ2Commands.obj
 0002:00001e54       ??_C@_0CK@IDIBJELJ@Filtering?5of?5debug?5messages?5is?5s@ 0308ce54     MQ2Commands.obj
 0002:00001e80       ??_C@_0CL@IEDCPOGB@Filtering?5of?5debug?5messages?5chan@ 0308ce80     MQ2Commands.obj
 0002:00001eac       ??_C@_0M@NJDHECND@FilterDebug?$AA@ 0308ceac     MQ2Commands.obj
 0002:00001eb8       ??_C@_0BO@LJBGHMA@Usage?3?5?1filter?5debug?5?$FLon?$HMoff?$FN?$AA@ 0308ceb8     MQ2Commands.obj
 0002:00001ed8       ??_C@_0CK@FGMIKECF@Filtering?5of?5money?5messages?5is?5s@ 0308ced8     MQ2Commands.obj
 0002:00001f04       ??_C@_0CL@HNFOGIDO@Filtering?5of?5money?5messages?5chan@ 0308cf04     MQ2Commands.obj
 0002:00001f30       ??_C@_0M@DGDJCIKN@FilterMoney?$AA@ 0308cf30     MQ2Commands.obj
 0002:00001f3c       ??_C@_0BO@MFPGBBPO@Usage?3?5?1filter?5money?5?$FLon?$HMoff?$FN?$AA@ 0308cf3c     MQ2Commands.obj
 0002:00001f5c       ??_C@_0CN@LIMFFPMC@Filtering?5of?5encumber?5messages?5i@ 0308cf5c     MQ2Commands.obj
 0002:00001f8c       ??_C@_0CO@EDNOBCBO@Filtering?5of?5encumber?5messages?5c@ 0308cf8c     MQ2Commands.obj
 0002:00001fbc       ??_C@_0P@JBNBDFAP@FilterEncumber?$AA@ 0308cfbc     MQ2Commands.obj
 0002:00001fcc       ??_C@_0CB@COJFAJGP@Usage?3?5?1filter?5encumber?5?$FLon?$HMoff?$FN@ 0308cfcc     MQ2Commands.obj
 0002:00001ff0       ??_C@_0CJ@OIKJJKLH@Filtering?5of?5food?5messages?5is?5se@ 0308cff0     MQ2Commands.obj
 0002:0000201c       ??_C@_0CK@GDOBPLGI@Filtering?5of?5food?5messages?5chang@ 0308d01c     MQ2Commands.obj
 0002:00002048       ??_C@_0L@HMLCPIFF@FilterFood?$AA@ 0308d048     MQ2Commands.obj
 0002:00002054       ??_C@_0BN@PEAAINHK@Usage?3?5?1filter?5food?5?$FLon?$HMoff?$FN?$AA@ 0308d054     MQ2Commands.obj
 0002:00002074       ??_C@_0BK@GLIHLOGP@Names?5currently?5filtered?3?$AA@ 0308d074     MQ2Commands.obj
 0002:00002090       ??_C@_05BCPGHFGO@?5?5?5?$CFs?$AA@ 0308d090     MQ2Commands.obj
 0002:00002098       ??_C@_0CM@OJOOMKPP@Filtering?5of?5custom?5messages?5cha@ 0308d098     MQ2Commands.obj
 0002:000020c4       ??_C@_0N@OCAOBFDM@FilterCustom?$AA@ 0308d0c4     MQ2Commands.obj
 0002:000020d4       ??_C@_06LEMKAMD@remove?$AA@ 0308d0d4     MQ2Commands.obj
 0002:000020dc       ??_C@_0N@HBNGPCKC@Remove?5what?$DP?$AA@ 0308d0dc     MQ2Commands.obj
 0002:000020ec       ??_C@_0BK@DPKBLONL@Cleared?5all?5name?5filters?4?$AA@ 0308d0ec     MQ2Commands.obj
 0002:00002108       ??_C@_0BJ@GDNCHKDB@Stopped?5filtering?5on?3?5?$CFs?$AA@ 0308d108     MQ2Commands.obj
 0002:00002124       ??_C@_03BDGOHNNK@add?$AA@  0308d124     MQ2Commands.obj
 0002:00002128       ??_C@_09MAEHMHEB@Add?5what?$DP?$AA@ 0308d128     MQ2Commands.obj
 0002:00002134       ??_C@_0CF@JFJDDNIN@Name?5?8?$CFs?8?5is?5already?5being?5filte@ 0308d134     MQ2Commands.obj
 0002:0000215c       ??_C@_0BJ@LCAIIGFG@Started?5filtering?5on?3?5?$CFs?$AA@ 0308d15c     MQ2Commands.obj
 0002:00002178       ??_C@_0CN@JEOJNDHH@Usage?3?5?1filter?5name?5on?$HMoff?$HMadd?$HMr@ 0308d178     MQ2Commands.obj
 0002:000021a8       ??_C@_0BO@NAFOPLOK@Z?5range?5is?5not?5currently?5set?4?$AA@ 0308d1a8     MQ2Commands.obj
 0002:000021c8       ??_C@_0BJ@PBCBDOJ@Z?5range?5is?5set?5to?3?5?$CF1?42f?$AA@ 0308d1c8     MQ2Commands.obj
 0002:000021e4       ??_C@_0BL@OIPKKAEC@Syntax?3?5?1spewfile?5?$FLon?$HMoff?$FN?$AA@ 0308d1e4     MQ2Commands.obj
 0002:00002200       ??_C@_0CG@HJGMFMHF@Debug?5Spew?5is?5being?5logged?5to?5a?5@ 0308d200     MQ2Commands.obj
 0002:00002228       ??_C@_0CK@OBPLIJKD@Debug?5Spew?5is?5not?5being?5logged?5t@ 0308d228     MQ2Commands.obj
 0002:00002254       ??_C@_0CM@OHMELLLC@You?5must?5be?5holding?5an?5item?5to?5i@ 0308d254     MQ2Commands.obj
 0002:00002280       ??_C@_0O@HJPPFJDN@Identify?5?9?5?$CFs?$AA@ 0308d280     MQ2Commands.obj
 0002:00002290       ??_C@_0DK@PEJCAEGP@Item?3?5?$CFs?5?$CISlot?3?5?$CFs?0?5Weight?3?5?$CFd?4?$CF@ 0308d290     MQ2Commands.obj
 0002:000022cc       ??_C@_0DA@EEFPEBD@Item?3?5?$CFs?5?$CISlot?3?5?$CFs?0?5Weight?3?5?$CFd?4?$CF@ 0308d2cc     MQ2Commands.obj
 0002:000022fc       ??_C@_0O@DFKKDBF@Lore?5Name?3?5?$CFs?$AA@ 0308d2fc     MQ2Commands.obj
 0002:0000230c       ??_C@_07BEHBPBFJ@Flags?3?5?$AA@ 0308d30c     MQ2Commands.obj
 0002:00002314       ??_C@_05GONFPHHD@LORE?5?$AA@ 0308d314     MQ2Commands.obj
 0002:0000231c       ??_C@_07PINMGDHB@NODROP?5?$AA@ 0308d31c     MQ2Commands.obj
 0002:00002324       ??_C@_07EACGAGNM@NORENT?5?$AA@ 0308d324     MQ2Commands.obj
 0002:0000232c       ??_C@_06GINMGJCE@MAGIC?5?$AA@ 0308d32c     MQ2Commands.obj
 0002:00002334       ??_C@_08KEFFGFDP@?$CILight?3?5?$AA@ 0308d334     MQ2Commands.obj
 0002:00002340       ??_C@_02KCKGHPCA@?$CJ?5?$AA@ 0308d340     MQ2Commands.obj
 0002:00002344       ??_C@_0L@DLGBCOOH@?$CKUnknown?$CFd?$AA@ 0308d344     MQ2Commands.obj
 0002:00002350       ??_C@_0DC@GHNOAFHL@Container?3?5?$CFd?5Slot?5?$CFs?0?5?$CFd?$CF?$CF?5Redu@ 0308d350     MQ2Commands.obj
 0002:00002384       ??_C@_06HFFMMPL@Item?3?5?$AA@ 0308d384     MQ2Commands.obj
 0002:0000238c       ??_C@_05NINMLNFO@AC?$CFd?5?$AA@ 0308d38c     MQ2Commands.obj
 0002:00002394       ??_C@_06JHBBGJMI@?$CFdDam?5?$AA@ 0308d394     MQ2Commands.obj
 0002:0000239c       ??_C@_06HOFELKLJ@?$CFdDly?5?$AA@ 0308d39c     MQ2Commands.obj
 0002:000023a4       ??_C@_06CNEFJOGK@?$CFdRng?5?$AA@ 0308d3a4     MQ2Commands.obj
 0002:000023ac       ??_C@_05NCHGGBJE@?$CFdHP?5?$AA@ 0308d3ac     MQ2Commands.obj
 0002:000023b4       ??_C@_07EEEOGGJI@?$CFdMana?5?$AA@ 0308d3b4     MQ2Commands.obj
 0002:000023bc       ??_C@_06KNBDIIGE@?$CFdSTR?5?$AA@ 0308d3bc     MQ2Commands.obj
 0002:000023c4       ??_C@_06LDHDJFEN@?$CFdSTA?5?$AA@ 0308d3c4     MQ2Commands.obj
 0002:000023cc       ??_C@_06JKOBHGNK@?$CFdDEX?5?$AA@ 0308d3cc     MQ2Commands.obj
 0002:000023d4       ??_C@_06OFOMPIGG@?$CFdAGI?5?$AA@ 0308d3d4     MQ2Commands.obj
 0002:000023dc       ??_C@_06PLCCMLNB@?$CFdWIS?5?$AA@ 0308d3dc     MQ2Commands.obj
 0002:000023e4       ??_C@_06LMGKMMAO@?$CFdINT?5?$AA@ 0308d3e4     MQ2Commands.obj
 0002:000023ec       ??_C@_06MJFMOKOI@?$CFdCHA?5?$AA@ 0308d3ec     MQ2Commands.obj
 0002:000023f4       ??_C@_06LAFCALJM@?$CFdSvM?5?$AA@ 0308d3f4     MQ2Commands.obj
 0002:000023fc       ??_C@_06LPIDDABD@?$CFdSvD?5?$AA@ 0308d3fc     MQ2Commands.obj
 0002:00002404       ??_C@_06KEKMDLLP@?$CFdSvP?5?$AA@ 0308d404     MQ2Commands.obj
 0002:0000240c       ??_C@_06LMAHOEHN@?$CFdSvF?5?$AA@ 0308d40c     MQ2Commands.obj
 0002:00002414       ??_C@_06LKMMCGJG@?$CFdSvC?5?$AA@ 0308d414     MQ2Commands.obj
 0002:0000241c       ??_C@_0BA@OHOCPGLP@?$CFdSvCorruption?5?$AA@ 0308d41c     MQ2Commands.obj
 0002:0000242c       ??_C@_0BB@JCCCDKEI@Stack?5size?5?$DN?5?$CFd?5?$AA@ 0308d42c     MQ2Commands.obj
 0002:00002440       ??_C@_0DK@ENGGHEJG@Your?5Location?5is?5?$CF3?42f?0?5?$CF3?42f?0?5?$CF@ 0308d440     MQ2Commands.obj
 0002:0000247c       ??_C@_05MEHLAELG@clear?$AA@ 0308d47c     MQ2Commands.obj
